ARM GAS  C:\Users\kopusov.FT\AppData\Local\Temp\ccCpI1R1.s 			page 1


   1              		.syntax unified
   2              		.cpu cortex-m3
   3              		.fpu softvfp
   4              		.eabi_attribute 20, 1
   5              		.eabi_attribute 21, 1
   6              		.eabi_attribute 23, 3
   7              		.eabi_attribute 24, 1
   8              		.eabi_attribute 25, 1
   9              		.eabi_attribute 26, 1
  10              		.eabi_attribute 30, 1
  11              		.eabi_attribute 34, 1
  12              		.eabi_attribute 18, 4
  13              		.thumb
  14              		.file	"cyfitter_cfg.c"
  15              		.text
  16              	.Ltext0:
  17              		.cfi_sections	.debug_frame
  18              		.section	.text.cfg_write_bytes32,"ax",%progbits
  19              		.align	2
  20              		.thumb
  21              		.thumb_func
  22              		.type	cfg_write_bytes32, %function
  23              	cfg_write_bytes32:
  24              	.LFB3:
  25              		.file 1 "Generated_Source\\PSoC5\\cyfitter_cfg.c"
   1:Generated_Source\PSoC5/cyfitter_cfg.c **** /*******************************************************************************
   2:Generated_Source\PSoC5/cyfitter_cfg.c **** * File Name: cyfitter_cfg.c
   3:Generated_Source\PSoC5/cyfitter_cfg.c **** * 
   4:Generated_Source\PSoC5/cyfitter_cfg.c **** * PSoC Creator  4.0
   5:Generated_Source\PSoC5/cyfitter_cfg.c **** *
   6:Generated_Source\PSoC5/cyfitter_cfg.c **** * Description:
   7:Generated_Source\PSoC5/cyfitter_cfg.c **** * This file contains device initialization code.
   8:Generated_Source\PSoC5/cyfitter_cfg.c **** * Except for the user defined sections in CyClockStartupError(), this file should not be modified.
   9:Generated_Source\PSoC5/cyfitter_cfg.c **** * This file is automatically generated by PSoC Creator.
  10:Generated_Source\PSoC5/cyfitter_cfg.c **** *
  11:Generated_Source\PSoC5/cyfitter_cfg.c **** ********************************************************************************
  12:Generated_Source\PSoC5/cyfitter_cfg.c **** * Copyright (c) 2007-2016 Cypress Semiconductor.  All rights reserved.
  13:Generated_Source\PSoC5/cyfitter_cfg.c **** * You may use this file only in accordance with the license, terms, conditions, 
  14:Generated_Source\PSoC5/cyfitter_cfg.c **** * disclaimers, and limitations in the end user license agreement accompanying 
  15:Generated_Source\PSoC5/cyfitter_cfg.c **** * the software package with which this file was provided.
  16:Generated_Source\PSoC5/cyfitter_cfg.c **** ********************************************************************************/
  17:Generated_Source\PSoC5/cyfitter_cfg.c **** 
  18:Generated_Source\PSoC5/cyfitter_cfg.c **** #include <string.h>
  19:Generated_Source\PSoC5/cyfitter_cfg.c **** #include "cytypes.h"
  20:Generated_Source\PSoC5/cyfitter_cfg.c **** #include "cydevice_trm.h"
  21:Generated_Source\PSoC5/cyfitter_cfg.c **** #include "cyfitter.h"
  22:Generated_Source\PSoC5/cyfitter_cfg.c **** #include "CyLib.h"
  23:Generated_Source\PSoC5/cyfitter_cfg.c **** #include "cyfitter_cfg.h"
  24:Generated_Source\PSoC5/cyfitter_cfg.c **** #include "cyapicallbacks.h"
  25:Generated_Source\PSoC5/cyfitter_cfg.c **** 
  26:Generated_Source\PSoC5/cyfitter_cfg.c **** 
  27:Generated_Source\PSoC5/cyfitter_cfg.c **** #if defined(__GNUC__) || defined(__ARMCC_VERSION)
  28:Generated_Source\PSoC5/cyfitter_cfg.c ****     #define CYPACKED 
  29:Generated_Source\PSoC5/cyfitter_cfg.c ****     #define CYPACKED_ATTR __attribute__ ((packed))
  30:Generated_Source\PSoC5/cyfitter_cfg.c ****     #define CYALIGNED __attribute__ ((aligned))
  31:Generated_Source\PSoC5/cyfitter_cfg.c ****     #define CY_CFG_UNUSED __attribute__ ((unused))
  32:Generated_Source\PSoC5/cyfitter_cfg.c ****     #ifndef CY_CFG_SECTION
ARM GAS  C:\Users\kopusov.FT\AppData\Local\Temp\ccCpI1R1.s 			page 2


  33:Generated_Source\PSoC5/cyfitter_cfg.c ****         #define CY_CFG_SECTION __attribute__ ((section(".psocinit")))
  34:Generated_Source\PSoC5/cyfitter_cfg.c ****     #endif
  35:Generated_Source\PSoC5/cyfitter_cfg.c ****     
  36:Generated_Source\PSoC5/cyfitter_cfg.c ****     #if defined(__ARMCC_VERSION)
  37:Generated_Source\PSoC5/cyfitter_cfg.c ****         #define CY_CFG_MEMORY_BARRIER() __memory_changed()
  38:Generated_Source\PSoC5/cyfitter_cfg.c ****     #else
  39:Generated_Source\PSoC5/cyfitter_cfg.c ****         #define CY_CFG_MEMORY_BARRIER() __sync_synchronize()
  40:Generated_Source\PSoC5/cyfitter_cfg.c ****     #endif
  41:Generated_Source\PSoC5/cyfitter_cfg.c ****     
  42:Generated_Source\PSoC5/cyfitter_cfg.c **** #elif defined(__ICCARM__)
  43:Generated_Source\PSoC5/cyfitter_cfg.c ****     #include <intrinsics.h>
  44:Generated_Source\PSoC5/cyfitter_cfg.c **** 
  45:Generated_Source\PSoC5/cyfitter_cfg.c ****     #define CYPACKED __packed
  46:Generated_Source\PSoC5/cyfitter_cfg.c ****     #define CYPACKED_ATTR 
  47:Generated_Source\PSoC5/cyfitter_cfg.c ****     #define CYALIGNED _Pragma("data_alignment=4")
  48:Generated_Source\PSoC5/cyfitter_cfg.c ****     #define CY_CFG_UNUSED _Pragma("diag_suppress=Pe177")
  49:Generated_Source\PSoC5/cyfitter_cfg.c ****     #define CY_CFG_SECTION _Pragma("location=\".psocinit\"")
  50:Generated_Source\PSoC5/cyfitter_cfg.c ****     
  51:Generated_Source\PSoC5/cyfitter_cfg.c ****     #define CY_CFG_MEMORY_BARRIER() __DMB()
  52:Generated_Source\PSoC5/cyfitter_cfg.c ****     
  53:Generated_Source\PSoC5/cyfitter_cfg.c **** #else
  54:Generated_Source\PSoC5/cyfitter_cfg.c ****     #error Unsupported toolchain
  55:Generated_Source\PSoC5/cyfitter_cfg.c **** #endif
  56:Generated_Source\PSoC5/cyfitter_cfg.c **** 
  57:Generated_Source\PSoC5/cyfitter_cfg.c **** 
  58:Generated_Source\PSoC5/cyfitter_cfg.c **** CY_CFG_UNUSED
  59:Generated_Source\PSoC5/cyfitter_cfg.c **** static void CYMEMZERO(void *s, size_t n);
  60:Generated_Source\PSoC5/cyfitter_cfg.c **** CY_CFG_UNUSED
  61:Generated_Source\PSoC5/cyfitter_cfg.c **** static void CYMEMZERO(void *s, size_t n)
  62:Generated_Source\PSoC5/cyfitter_cfg.c **** {
  63:Generated_Source\PSoC5/cyfitter_cfg.c **** 	(void)memset(s, 0, n);
  64:Generated_Source\PSoC5/cyfitter_cfg.c **** }
  65:Generated_Source\PSoC5/cyfitter_cfg.c **** CY_CFG_UNUSED
  66:Generated_Source\PSoC5/cyfitter_cfg.c **** static void CYCONFIGCPY(void *dest, const void *src, size_t n);
  67:Generated_Source\PSoC5/cyfitter_cfg.c **** CY_CFG_UNUSED
  68:Generated_Source\PSoC5/cyfitter_cfg.c **** static void CYCONFIGCPY(void *dest, const void *src, size_t n)
  69:Generated_Source\PSoC5/cyfitter_cfg.c **** {
  70:Generated_Source\PSoC5/cyfitter_cfg.c **** 	(void)memcpy(dest, src, n);
  71:Generated_Source\PSoC5/cyfitter_cfg.c **** }
  72:Generated_Source\PSoC5/cyfitter_cfg.c **** CY_CFG_UNUSED
  73:Generated_Source\PSoC5/cyfitter_cfg.c **** static void CYCONFIGCPYCODE(void *dest, const void *src, size_t n);
  74:Generated_Source\PSoC5/cyfitter_cfg.c **** CY_CFG_UNUSED
  75:Generated_Source\PSoC5/cyfitter_cfg.c **** static void CYCONFIGCPYCODE(void *dest, const void *src, size_t n)
  76:Generated_Source\PSoC5/cyfitter_cfg.c **** {
  77:Generated_Source\PSoC5/cyfitter_cfg.c **** 	(void)memcpy(dest, src, n);
  78:Generated_Source\PSoC5/cyfitter_cfg.c **** }
  79:Generated_Source\PSoC5/cyfitter_cfg.c **** 
  80:Generated_Source\PSoC5/cyfitter_cfg.c **** 
  81:Generated_Source\PSoC5/cyfitter_cfg.c **** 
  82:Generated_Source\PSoC5/cyfitter_cfg.c **** 
  83:Generated_Source\PSoC5/cyfitter_cfg.c **** /* Clock startup error codes                                                   */
  84:Generated_Source\PSoC5/cyfitter_cfg.c **** #define CYCLOCKSTART_NO_ERROR    0u
  85:Generated_Source\PSoC5/cyfitter_cfg.c **** #define CYCLOCKSTART_XTAL_ERROR  1u
  86:Generated_Source\PSoC5/cyfitter_cfg.c **** #define CYCLOCKSTART_32KHZ_ERROR 2u
  87:Generated_Source\PSoC5/cyfitter_cfg.c **** #define CYCLOCKSTART_PLL_ERROR   3u
  88:Generated_Source\PSoC5/cyfitter_cfg.c **** 
  89:Generated_Source\PSoC5/cyfitter_cfg.c **** 
ARM GAS  C:\Users\kopusov.FT\AppData\Local\Temp\ccCpI1R1.s 			page 3


  90:Generated_Source\PSoC5/cyfitter_cfg.c **** #ifdef CY_NEED_CYCLOCKSTARTUPERROR
  91:Generated_Source\PSoC5/cyfitter_cfg.c **** /*******************************************************************************
  92:Generated_Source\PSoC5/cyfitter_cfg.c **** * Function Name: CyClockStartupError
  93:Generated_Source\PSoC5/cyfitter_cfg.c **** ********************************************************************************
  94:Generated_Source\PSoC5/cyfitter_cfg.c **** * Summary:
  95:Generated_Source\PSoC5/cyfitter_cfg.c **** *  If an error is encountered during clock configuration (crystal startup error,
  96:Generated_Source\PSoC5/cyfitter_cfg.c **** *  PLL lock error, etc.), the system will end up here.  Unless reimplemented by
  97:Generated_Source\PSoC5/cyfitter_cfg.c **** *  the customer, this function will stop in an infinite loop.
  98:Generated_Source\PSoC5/cyfitter_cfg.c **** *
  99:Generated_Source\PSoC5/cyfitter_cfg.c **** * Parameters:
 100:Generated_Source\PSoC5/cyfitter_cfg.c **** *   void
 101:Generated_Source\PSoC5/cyfitter_cfg.c **** *
 102:Generated_Source\PSoC5/cyfitter_cfg.c **** * Return:
 103:Generated_Source\PSoC5/cyfitter_cfg.c **** *   void
 104:Generated_Source\PSoC5/cyfitter_cfg.c **** *
 105:Generated_Source\PSoC5/cyfitter_cfg.c **** *******************************************************************************/
 106:Generated_Source\PSoC5/cyfitter_cfg.c **** CY_CFG_UNUSED
 107:Generated_Source\PSoC5/cyfitter_cfg.c **** static void CyClockStartupError(uint8 errorCode);
 108:Generated_Source\PSoC5/cyfitter_cfg.c **** CY_CFG_UNUSED
 109:Generated_Source\PSoC5/cyfitter_cfg.c **** static void CyClockStartupError(uint8 errorCode)
 110:Generated_Source\PSoC5/cyfitter_cfg.c **** {
 111:Generated_Source\PSoC5/cyfitter_cfg.c ****     /* To remove the compiler warning if errorCode not used.                */
 112:Generated_Source\PSoC5/cyfitter_cfg.c ****     errorCode = errorCode;
 113:Generated_Source\PSoC5/cyfitter_cfg.c **** 
 114:Generated_Source\PSoC5/cyfitter_cfg.c ****     /* If we have a clock startup error (bad MHz crystal, PLL lock, etc.),  */
 115:Generated_Source\PSoC5/cyfitter_cfg.c ****     /* we will end up here to allow the customer to implement something to  */
 116:Generated_Source\PSoC5/cyfitter_cfg.c ****     /* deal with the clock condition.                                       */
 117:Generated_Source\PSoC5/cyfitter_cfg.c **** 
 118:Generated_Source\PSoC5/cyfitter_cfg.c **** #ifdef CY_CFG_CLOCK_STARTUP_ERROR_CALLBACK
 119:Generated_Source\PSoC5/cyfitter_cfg.c **** 	CY_CFG_Clock_Startup_ErrorCallback();
 120:Generated_Source\PSoC5/cyfitter_cfg.c **** #else
 121:Generated_Source\PSoC5/cyfitter_cfg.c **** 	/*  If not using CY_CFG_CLOCK_STARTUP_ERROR_CALLBACK, place your clock startup code here. */
 122:Generated_Source\PSoC5/cyfitter_cfg.c ****     /* `#START CyClockStartupError` */
 123:Generated_Source\PSoC5/cyfitter_cfg.c **** 
 124:Generated_Source\PSoC5/cyfitter_cfg.c **** 
 125:Generated_Source\PSoC5/cyfitter_cfg.c **** 
 126:Generated_Source\PSoC5/cyfitter_cfg.c ****     /* `#END` */
 127:Generated_Source\PSoC5/cyfitter_cfg.c **** 
 128:Generated_Source\PSoC5/cyfitter_cfg.c ****     /* If nothing else, stop here since the clocks have not started         */
 129:Generated_Source\PSoC5/cyfitter_cfg.c ****     /* correctly.                                                           */
 130:Generated_Source\PSoC5/cyfitter_cfg.c ****     while(1) {}
 131:Generated_Source\PSoC5/cyfitter_cfg.c **** #endif /* CY_CFG_CLOCK_STARTUP_ERROR_CALLBACK */ 
 132:Generated_Source\PSoC5/cyfitter_cfg.c **** }
 133:Generated_Source\PSoC5/cyfitter_cfg.c **** #endif
 134:Generated_Source\PSoC5/cyfitter_cfg.c **** 
 135:Generated_Source\PSoC5/cyfitter_cfg.c **** #define CY_CFG_BASE_ADDR_COUNT 28u
 136:Generated_Source\PSoC5/cyfitter_cfg.c **** CYPACKED typedef struct
 137:Generated_Source\PSoC5/cyfitter_cfg.c **** {
 138:Generated_Source\PSoC5/cyfitter_cfg.c **** 	uint8 offset;
 139:Generated_Source\PSoC5/cyfitter_cfg.c **** 	uint8 value;
 140:Generated_Source\PSoC5/cyfitter_cfg.c **** } CYPACKED_ATTR cy_cfg_addrvalue_t;
 141:Generated_Source\PSoC5/cyfitter_cfg.c **** 
 142:Generated_Source\PSoC5/cyfitter_cfg.c **** #define cy_cfg_addr_table ((const uint32 CYFAR *)0x48000000u)
 143:Generated_Source\PSoC5/cyfitter_cfg.c **** #define cy_cfg_data_table ((const cy_cfg_addrvalue_t CYFAR *)0x48000070u)
 144:Generated_Source\PSoC5/cyfitter_cfg.c **** 
 145:Generated_Source\PSoC5/cyfitter_cfg.c **** /* IOPINS0_0 Address: CYREG_PRT0_DM0 Size (bytes): 8 */
 146:Generated_Source\PSoC5/cyfitter_cfg.c **** #define BS_IOPINS0_0_VAL ((const uint8 CYFAR *)0x480003ECu)
ARM GAS  C:\Users\kopusov.FT\AppData\Local\Temp\ccCpI1R1.s 			page 4


 147:Generated_Source\PSoC5/cyfitter_cfg.c **** 
 148:Generated_Source\PSoC5/cyfitter_cfg.c **** /* IOPINS0_7 Address: CYREG_PRT12_DR Size (bytes): 10 */
 149:Generated_Source\PSoC5/cyfitter_cfg.c **** #define BS_IOPINS0_7_VAL ((const uint8 CYFAR *)0x480003F4u)
 150:Generated_Source\PSoC5/cyfitter_cfg.c **** 
 151:Generated_Source\PSoC5/cyfitter_cfg.c **** /* IOPINS1_7 Address: CYREG_PRT12_DR + 0x0000000Bu Size (bytes): 5 */
 152:Generated_Source\PSoC5/cyfitter_cfg.c **** #define BS_IOPINS1_7_VAL ((const uint8 CYFAR *)0x48000400u)
 153:Generated_Source\PSoC5/cyfitter_cfg.c **** 
 154:Generated_Source\PSoC5/cyfitter_cfg.c **** /* IOPINS0_8 Address: CYREG_PRT15_DR Size (bytes): 10 */
 155:Generated_Source\PSoC5/cyfitter_cfg.c **** #define BS_IOPINS0_8_VAL ((const uint8 CYFAR *)0x48000408u)
 156:Generated_Source\PSoC5/cyfitter_cfg.c **** 
 157:Generated_Source\PSoC5/cyfitter_cfg.c **** /* IOPINS0_1 Address: CYREG_PRT1_DR Size (bytes): 10 */
 158:Generated_Source\PSoC5/cyfitter_cfg.c **** #define BS_IOPINS0_1_VAL ((const uint8 CYFAR *)0x48000414u)
 159:Generated_Source\PSoC5/cyfitter_cfg.c **** 
 160:Generated_Source\PSoC5/cyfitter_cfg.c **** /* IOPINS0_3 Address: CYREG_PRT3_DM0 Size (bytes): 8 */
 161:Generated_Source\PSoC5/cyfitter_cfg.c **** #define BS_IOPINS0_3_VAL ((const uint8 CYFAR *)0x48000420u)
 162:Generated_Source\PSoC5/cyfitter_cfg.c **** 
 163:Generated_Source\PSoC5/cyfitter_cfg.c **** 
 164:Generated_Source\PSoC5/cyfitter_cfg.c **** /*******************************************************************************
 165:Generated_Source\PSoC5/cyfitter_cfg.c **** * Function Name: cfg_write_bytes32
 166:Generated_Source\PSoC5/cyfitter_cfg.c **** ********************************************************************************
 167:Generated_Source\PSoC5/cyfitter_cfg.c **** * Summary:
 168:Generated_Source\PSoC5/cyfitter_cfg.c **** *  This function is used for setting up the chip configuration areas that
 169:Generated_Source\PSoC5/cyfitter_cfg.c **** *  contain relatively sparse data.
 170:Generated_Source\PSoC5/cyfitter_cfg.c **** *
 171:Generated_Source\PSoC5/cyfitter_cfg.c **** * Parameters:
 172:Generated_Source\PSoC5/cyfitter_cfg.c **** *   void
 173:Generated_Source\PSoC5/cyfitter_cfg.c **** *
 174:Generated_Source\PSoC5/cyfitter_cfg.c **** * Return:
 175:Generated_Source\PSoC5/cyfitter_cfg.c **** *   void
 176:Generated_Source\PSoC5/cyfitter_cfg.c **** *
 177:Generated_Source\PSoC5/cyfitter_cfg.c **** *******************************************************************************/
 178:Generated_Source\PSoC5/cyfitter_cfg.c **** static void cfg_write_bytes32(const uint32 addr_table[], const cy_cfg_addrvalue_t data_table[]);
 179:Generated_Source\PSoC5/cyfitter_cfg.c **** static void cfg_write_bytes32(const uint32 addr_table[], const cy_cfg_addrvalue_t data_table[])
 180:Generated_Source\PSoC5/cyfitter_cfg.c **** {
  26              		.loc 1 180 0
  27              		.cfi_startproc
  28              		@ args = 0, pretend = 0, frame = 0
  29              		@ frame_needed = 0, uses_anonymous_args = 0
  30              		@ link register save eliminated.
  31              	.LVL0:
  32 0000 F0B4     		push	{r4, r5, r6, r7}
  33              		.cfi_def_cfa_offset 16
  34              		.cfi_offset 4, -16
  35              		.cfi_offset 5, -12
  36              		.cfi_offset 6, -8
  37              		.cfi_offset 7, -4
  38              	.LVL1:
 181:Generated_Source\PSoC5/cyfitter_cfg.c **** 	/* For 32-bit little-endian architectures */
 182:Generated_Source\PSoC5/cyfitter_cfg.c **** 	uint32 i, j = 0u;
  39              		.loc 1 182 0
  40 0002 0022     		movs	r2, #0
 183:Generated_Source\PSoC5/cyfitter_cfg.c **** 	for (i = 0u; i < CY_CFG_BASE_ADDR_COUNT; i++)
  41              		.loc 1 183 0
  42 0004 1746     		mov	r7, r2
  43 0006 11E0     		b	.L2
  44              	.LVL2:
  45              	.L5:
ARM GAS  C:\Users\kopusov.FT\AppData\Local\Temp\ccCpI1R1.s 			page 5


  46              	.LBB2:
 184:Generated_Source\PSoC5/cyfitter_cfg.c **** 	{
 185:Generated_Source\PSoC5/cyfitter_cfg.c **** 		uint32 baseAddr = addr_table[i];
  47              		.loc 1 185 0
  48 0008 50F82760 		ldr	r6, [r0, r7, lsl #2]
  49              	.LVL3:
 186:Generated_Source\PSoC5/cyfitter_cfg.c **** 		uint8 count = (uint8)baseAddr;
  50              		.loc 1 186 0
  51 000c F3B2     		uxtb	r3, r6
  52              	.LVL4:
 187:Generated_Source\PSoC5/cyfitter_cfg.c **** 		baseAddr &= 0xFFFFFF00u;
  53              		.loc 1 187 0
  54 000e 26F0FF06 		bic	r6, r6, #255
  55              	.LVL5:
 188:Generated_Source\PSoC5/cyfitter_cfg.c **** 		while (count != 0u)
  56              		.loc 1 188 0
  57 0012 08E0     		b	.L3
  58              	.L4:
 189:Generated_Source\PSoC5/cyfitter_cfg.c **** 		{
 190:Generated_Source\PSoC5/cyfitter_cfg.c **** 			CY_SET_XTND_REG8((void CYFAR *)(baseAddr + data_table[j].offset), data_table[j].value);
  59              		.loc 1 190 0
  60 0014 01EB4205 		add	r5, r1, r2, lsl #1
  61 0018 11F81240 		ldrb	r4, [r1, r2, lsl #1]	@ zero_extendqisi2
  62 001c 6D78     		ldrb	r5, [r5, #1]	@ zero_extendqisi2
  63 001e A555     		strb	r5, [r4, r6]
 191:Generated_Source\PSoC5/cyfitter_cfg.c **** 			j++;
  64              		.loc 1 191 0
  65 0020 0132     		adds	r2, r2, #1
  66              	.LVL6:
 192:Generated_Source\PSoC5/cyfitter_cfg.c **** 			count--;
  67              		.loc 1 192 0
  68 0022 013B     		subs	r3, r3, #1
  69              	.LVL7:
  70 0024 DBB2     		uxtb	r3, r3
  71              	.LVL8:
  72              	.L3:
 188:Generated_Source\PSoC5/cyfitter_cfg.c **** 		{
  73              		.loc 1 188 0
  74 0026 002B     		cmp	r3, #0
  75 0028 F4D1     		bne	.L4
  76              	.LBE2:
 183:Generated_Source\PSoC5/cyfitter_cfg.c **** 	{
  77              		.loc 1 183 0 discriminator 2
  78 002a 0137     		adds	r7, r7, #1
  79              	.LVL9:
  80              	.L2:
 183:Generated_Source\PSoC5/cyfitter_cfg.c **** 	{
  81              		.loc 1 183 0 is_stmt 0 discriminator 1
  82 002c 1B2F     		cmp	r7, #27
  83 002e EBD9     		bls	.L5
 193:Generated_Source\PSoC5/cyfitter_cfg.c **** 		}
 194:Generated_Source\PSoC5/cyfitter_cfg.c **** 	}
 195:Generated_Source\PSoC5/cyfitter_cfg.c **** }
  84              		.loc 1 195 0 is_stmt 1
  85 0030 F0BC     		pop	{r4, r5, r6, r7}
  86              		.cfi_restore 7
  87              		.cfi_restore 6
ARM GAS  C:\Users\kopusov.FT\AppData\Local\Temp\ccCpI1R1.s 			page 6


  88              		.cfi_restore 5
  89              		.cfi_restore 4
  90              		.cfi_def_cfa_offset 0
  91              	.LVL10:
  92 0032 7047     		bx	lr
  93              		.cfi_endproc
  94              	.LFE3:
  95              		.size	cfg_write_bytes32, .-cfg_write_bytes32
  96              		.section	.text.AnalogSetDefault,"ax",%progbits
  97              		.align	2
  98              		.thumb
  99              		.thumb_func
 100              		.type	AnalogSetDefault, %function
 101              	AnalogSetDefault:
 102              	.LFB5:
 196:Generated_Source\PSoC5/cyfitter_cfg.c **** 
 197:Generated_Source\PSoC5/cyfitter_cfg.c **** /*******************************************************************************
 198:Generated_Source\PSoC5/cyfitter_cfg.c **** * Function Name: ClockSetup
 199:Generated_Source\PSoC5/cyfitter_cfg.c **** ********************************************************************************
 200:Generated_Source\PSoC5/cyfitter_cfg.c **** *
 201:Generated_Source\PSoC5/cyfitter_cfg.c **** * Summary:
 202:Generated_Source\PSoC5/cyfitter_cfg.c **** *  Performs the initialization of all of the clocks in the device based on the
 203:Generated_Source\PSoC5/cyfitter_cfg.c **** *  settings in the Clock tab of the DWR.  This includes enabling the requested
 204:Generated_Source\PSoC5/cyfitter_cfg.c **** *  clocks and setting the necessary dividers to produce the desired frequency. 
 205:Generated_Source\PSoC5/cyfitter_cfg.c **** *
 206:Generated_Source\PSoC5/cyfitter_cfg.c **** * Parameters:
 207:Generated_Source\PSoC5/cyfitter_cfg.c **** *  void
 208:Generated_Source\PSoC5/cyfitter_cfg.c **** *
 209:Generated_Source\PSoC5/cyfitter_cfg.c **** * Return:
 210:Generated_Source\PSoC5/cyfitter_cfg.c **** *  void
 211:Generated_Source\PSoC5/cyfitter_cfg.c **** *
 212:Generated_Source\PSoC5/cyfitter_cfg.c **** *******************************************************************************/
 213:Generated_Source\PSoC5/cyfitter_cfg.c **** static void ClockSetup(void);
 214:Generated_Source\PSoC5/cyfitter_cfg.c **** static void ClockSetup(void)
 215:Generated_Source\PSoC5/cyfitter_cfg.c **** {
 216:Generated_Source\PSoC5/cyfitter_cfg.c **** 	uint32 timeout;
 217:Generated_Source\PSoC5/cyfitter_cfg.c **** 	uint8 pllLock;
 218:Generated_Source\PSoC5/cyfitter_cfg.c **** 
 219:Generated_Source\PSoC5/cyfitter_cfg.c **** 
 220:Generated_Source\PSoC5/cyfitter_cfg.c **** 	/* Configure Digital Clocks based on settings from Clock DWR */
 221:Generated_Source\PSoC5/cyfitter_cfg.c **** 	CY_SET_XTND_REG16((void CYFAR *)(CYREG_CLKDIST_DCFG0_CFG0), 0x0003u);
 222:Generated_Source\PSoC5/cyfitter_cfg.c **** 	CY_SET_XTND_REG8((void CYFAR *)(CYREG_CLKDIST_DCFG0_CFG0 + 0x2u), 0x18u);
 223:Generated_Source\PSoC5/cyfitter_cfg.c **** 	CY_SET_XTND_REG16((void CYFAR *)(CYREG_CLKDIST_DCFG1_CFG0), 0x031Fu);
 224:Generated_Source\PSoC5/cyfitter_cfg.c **** 	CY_SET_XTND_REG8((void CYFAR *)(CYREG_CLKDIST_DCFG1_CFG0 + 0x2u), 0x18u);
 225:Generated_Source\PSoC5/cyfitter_cfg.c **** 
 226:Generated_Source\PSoC5/cyfitter_cfg.c **** 	/* Configure ILO based on settings from Clock DWR */
 227:Generated_Source\PSoC5/cyfitter_cfg.c **** 	CY_SET_XTND_REG8((void CYFAR *)(CYREG_SLOWCLK_ILO_CR0), 0x06u);
 228:Generated_Source\PSoC5/cyfitter_cfg.c **** 
 229:Generated_Source\PSoC5/cyfitter_cfg.c **** 	/* Configure IMO based on settings from Clock DWR */
 230:Generated_Source\PSoC5/cyfitter_cfg.c **** 	CY_SET_XTND_REG8((void CYFAR *)(CYREG_FASTCLK_IMO_CR), 0x52u);
 231:Generated_Source\PSoC5/cyfitter_cfg.c **** 	CY_SET_XTND_REG8((void CYFAR *)(CYREG_IMO_TR1), (CY_GET_XTND_REG8((void CYFAR *)CYREG_FLSHID_CUST_
 232:Generated_Source\PSoC5/cyfitter_cfg.c **** 
 233:Generated_Source\PSoC5/cyfitter_cfg.c **** 	/* Configure Bus/Master Clock based on settings from Clock DWR */
 234:Generated_Source\PSoC5/cyfitter_cfg.c **** 	CY_SET_XTND_REG16((void CYFAR *)(CYREG_CLKDIST_MSTR0), 0x0000u);
 235:Generated_Source\PSoC5/cyfitter_cfg.c **** 
 236:Generated_Source\PSoC5/cyfitter_cfg.c **** 	/* Configure PLL based on settings from Clock DWR */
 237:Generated_Source\PSoC5/cyfitter_cfg.c **** 	CY_SET_XTND_REG16((void CYFAR *)(CYREG_FASTCLK_PLL_P), 0x0708u);
ARM GAS  C:\Users\kopusov.FT\AppData\Local\Temp\ccCpI1R1.s 			page 7


 238:Generated_Source\PSoC5/cyfitter_cfg.c **** 	CY_SET_XTND_REG16((void CYFAR *)(CYREG_FASTCLK_PLL_CFG0), 0x1251u);
 239:Generated_Source\PSoC5/cyfitter_cfg.c **** 	/* Wait up to 250us for the PLL to lock */
 240:Generated_Source\PSoC5/cyfitter_cfg.c **** 	pllLock = 0u;
 241:Generated_Source\PSoC5/cyfitter_cfg.c **** 	for (timeout = 250u / 10u; (timeout > 0u) && (pllLock != 0x03u); timeout--)
 242:Generated_Source\PSoC5/cyfitter_cfg.c **** 	{ 
 243:Generated_Source\PSoC5/cyfitter_cfg.c **** 		pllLock = 0x03u & ((uint8)((uint8)pllLock << 1) | ((CY_GET_XTND_REG8((void CYFAR *)CYREG_FASTCLK_
 244:Generated_Source\PSoC5/cyfitter_cfg.c **** 		CyDelayCycles(10u * 48u); /* Delay 10us based on 48MHz clock */
 245:Generated_Source\PSoC5/cyfitter_cfg.c **** 	}
 246:Generated_Source\PSoC5/cyfitter_cfg.c **** 	CY_SET_XTND_REG8((void CYFAR *)(CYREG_CLKDIST_MSTR0), 0x07u);
 247:Generated_Source\PSoC5/cyfitter_cfg.c **** 	CY_SET_XTND_REG8((void CYFAR *)(CYREG_CLKDIST_BCFG0), 0x00u);
 248:Generated_Source\PSoC5/cyfitter_cfg.c **** 	CY_SET_XTND_REG8((void CYFAR *)(CYREG_CLKDIST_BCFG2), 0x48u);
 249:Generated_Source\PSoC5/cyfitter_cfg.c **** 	CY_SET_XTND_REG8((void CYFAR *)(CYREG_CLKDIST_MSTR0), 0x00u);
 250:Generated_Source\PSoC5/cyfitter_cfg.c **** 
 251:Generated_Source\PSoC5/cyfitter_cfg.c **** 	/* Configure USB Clock based on settings from Clock DWR */
 252:Generated_Source\PSoC5/cyfitter_cfg.c **** 	CY_SET_XTND_REG8((void CYFAR *)(CYREG_CLKDIST_UCFG), 0x00u);
 253:Generated_Source\PSoC5/cyfitter_cfg.c **** 	CY_SET_XTND_REG8((void CYFAR *)(CYREG_CLKDIST_LD), 0x02u);
 254:Generated_Source\PSoC5/cyfitter_cfg.c **** 
 255:Generated_Source\PSoC5/cyfitter_cfg.c **** 	CY_SET_XTND_REG8((void CYFAR *)(CYREG_PM_ACT_CFG2), ((CY_GET_XTND_REG8((void CYFAR *)CYREG_PM_ACT_
 256:Generated_Source\PSoC5/cyfitter_cfg.c **** }
 257:Generated_Source\PSoC5/cyfitter_cfg.c **** 
 258:Generated_Source\PSoC5/cyfitter_cfg.c **** 
 259:Generated_Source\PSoC5/cyfitter_cfg.c **** /* Analog API Functions */
 260:Generated_Source\PSoC5/cyfitter_cfg.c **** 
 261:Generated_Source\PSoC5/cyfitter_cfg.c **** 
 262:Generated_Source\PSoC5/cyfitter_cfg.c **** /*******************************************************************************
 263:Generated_Source\PSoC5/cyfitter_cfg.c **** * Function Name: AnalogSetDefault
 264:Generated_Source\PSoC5/cyfitter_cfg.c **** ********************************************************************************
 265:Generated_Source\PSoC5/cyfitter_cfg.c **** *
 266:Generated_Source\PSoC5/cyfitter_cfg.c **** * Summary:
 267:Generated_Source\PSoC5/cyfitter_cfg.c **** *  Sets up the analog portions of the chip to default values based on chip
 268:Generated_Source\PSoC5/cyfitter_cfg.c **** *  configuration options from the project.
 269:Generated_Source\PSoC5/cyfitter_cfg.c **** *
 270:Generated_Source\PSoC5/cyfitter_cfg.c **** * Parameters:
 271:Generated_Source\PSoC5/cyfitter_cfg.c **** *  void
 272:Generated_Source\PSoC5/cyfitter_cfg.c **** *
 273:Generated_Source\PSoC5/cyfitter_cfg.c **** * Return:
 274:Generated_Source\PSoC5/cyfitter_cfg.c **** *  void
 275:Generated_Source\PSoC5/cyfitter_cfg.c **** *
 276:Generated_Source\PSoC5/cyfitter_cfg.c **** *******************************************************************************/
 277:Generated_Source\PSoC5/cyfitter_cfg.c **** static void AnalogSetDefault(void);
 278:Generated_Source\PSoC5/cyfitter_cfg.c **** static void AnalogSetDefault(void)
 279:Generated_Source\PSoC5/cyfitter_cfg.c **** {
 103              		.loc 1 279 0
 104              		.cfi_startproc
 105              		@ args = 0, pretend = 0, frame = 0
 106              		@ frame_needed = 0, uses_anonymous_args = 0
 107              		@ link register save eliminated.
 280:Generated_Source\PSoC5/cyfitter_cfg.c **** 	uint8 bg_xover_inl_trim = CY_GET_XTND_REG8((void CYFAR *)(CYREG_FLSHID_MFG_CFG_BG_XOVER_INL_TRIM +
 108              		.loc 1 280 0
 109 0000 064B     		ldr	r3, .L8
 110 0002 1B78     		ldrb	r3, [r3]	@ zero_extendqisi2
 111 0004 DBB2     		uxtb	r3, r3
 112              	.LVL11:
 281:Generated_Source\PSoC5/cyfitter_cfg.c **** 	CY_SET_XTND_REG8((void CYFAR *)(CYREG_BG_DFT0), (bg_xover_inl_trim & 0x07u));
 113              		.loc 1 281 0
 114 0006 03F00701 		and	r1, r3, #7
 115 000a 054A     		ldr	r2, .L8+4
ARM GAS  C:\Users\kopusov.FT\AppData\Local\Temp\ccCpI1R1.s 			page 8


 116 000c 1170     		strb	r1, [r2]
 282:Generated_Source\PSoC5/cyfitter_cfg.c **** 	CY_SET_XTND_REG8((void CYFAR *)(CYREG_BG_DFT1), ((bg_xover_inl_trim >> 4) & 0x0Fu));
 117              		.loc 1 282 0
 118 000e 1B09     		lsrs	r3, r3, #4
 119              	.LVL12:
 120 0010 0132     		adds	r2, r2, #1
 121 0012 1370     		strb	r3, [r2]
 283:Generated_Source\PSoC5/cyfitter_cfg.c **** 	CY_SET_XTND_REG8((void CYFAR *)CYREG_PUMP_CR0, 0x44u);
 122              		.loc 1 283 0
 123 0014 4422     		movs	r2, #68
 124 0016 034B     		ldr	r3, .L8+8
 125 0018 1A70     		strb	r2, [r3]
 126 001a 7047     		bx	lr
 127              	.L9:
 128              		.align	2
 129              	.L8:
 130 001c CF010049 		.word	1224737231
 131 0020 6E580040 		.word	1073764462
 132 0024 76580040 		.word	1073764470
 133              		.cfi_endproc
 134              	.LFE5:
 135              		.size	AnalogSetDefault, .-AnalogSetDefault
 136              		.section	.text.CYMEMZERO,"ax",%progbits
 137              		.align	2
 138              		.thumb
 139              		.thumb_func
 140              		.type	CYMEMZERO, %function
 141              	CYMEMZERO:
 142              	.LFB0:
  62:Generated_Source\PSoC5/cyfitter_cfg.c **** 	(void)memset(s, 0, n);
 143              		.loc 1 62 0
 144              		.cfi_startproc
 145              		@ args = 0, pretend = 0, frame = 0
 146              		@ frame_needed = 0, uses_anonymous_args = 0
 147              	.LVL13:
 148 0000 08B5     		push	{r3, lr}
 149              		.cfi_def_cfa_offset 8
 150              		.cfi_offset 3, -8
 151              		.cfi_offset 14, -4
 152 0002 0A46     		mov	r2, r1
  63:Generated_Source\PSoC5/cyfitter_cfg.c **** }
 153              		.loc 1 63 0
 154 0004 0021     		movs	r1, #0
 155              	.LVL14:
 156 0006 FFF7FEFF 		bl	memset
 157              	.LVL15:
 158 000a 08BD     		pop	{r3, pc}
 159              		.cfi_endproc
 160              	.LFE0:
 161              		.size	CYMEMZERO, .-CYMEMZERO
 162              		.section	.text.ClockSetup,"ax",%progbits
 163              		.align	2
 164              		.thumb
 165              		.thumb_func
 166              		.type	ClockSetup, %function
 167              	ClockSetup:
 168              	.LFB4:
ARM GAS  C:\Users\kopusov.FT\AppData\Local\Temp\ccCpI1R1.s 			page 9


 215:Generated_Source\PSoC5/cyfitter_cfg.c **** 	uint32 timeout;
 169              		.loc 1 215 0
 170              		.cfi_startproc
 171              		@ args = 0, pretend = 0, frame = 0
 172              		@ frame_needed = 0, uses_anonymous_args = 0
 173 0000 38B5     		push	{r3, r4, r5, lr}
 174              		.cfi_def_cfa_offset 16
 175              		.cfi_offset 3, -16
 176              		.cfi_offset 4, -12
 177              		.cfi_offset 5, -8
 178              		.cfi_offset 14, -4
 221:Generated_Source\PSoC5/cyfitter_cfg.c **** 	CY_SET_XTND_REG8((void CYFAR *)(CYREG_CLKDIST_DCFG0_CFG0 + 0x2u), 0x18u);
 179              		.loc 1 221 0
 180 0002 0322     		movs	r2, #3
 181 0004 244B     		ldr	r3, .L17
 182 0006 1A80     		strh	r2, [r3]	@ movhi
 222:Generated_Source\PSoC5/cyfitter_cfg.c **** 	CY_SET_XTND_REG16((void CYFAR *)(CYREG_CLKDIST_DCFG1_CFG0), 0x031Fu);
 183              		.loc 1 222 0
 184 0008 1823     		movs	r3, #24
 185 000a 244A     		ldr	r2, .L17+4
 186 000c 1370     		strb	r3, [r2]
 223:Generated_Source\PSoC5/cyfitter_cfg.c **** 	CY_SET_XTND_REG8((void CYFAR *)(CYREG_CLKDIST_DCFG1_CFG0 + 0x2u), 0x18u);
 187              		.loc 1 223 0
 188 000e 40F21F31 		movw	r1, #799
 189 0012 0232     		adds	r2, r2, #2
 190 0014 1180     		strh	r1, [r2]	@ movhi
 224:Generated_Source\PSoC5/cyfitter_cfg.c **** 
 191              		.loc 1 224 0
 192 0016 0232     		adds	r2, r2, #2
 193 0018 1370     		strb	r3, [r2]
 227:Generated_Source\PSoC5/cyfitter_cfg.c **** 
 194              		.loc 1 227 0
 195 001a 0622     		movs	r2, #6
 196 001c 204B     		ldr	r3, .L17+8
 197 001e 1A70     		strb	r2, [r3]
 230:Generated_Source\PSoC5/cyfitter_cfg.c **** 	CY_SET_XTND_REG8((void CYFAR *)(CYREG_IMO_TR1), (CY_GET_XTND_REG8((void CYFAR *)CYREG_FLSHID_CUST_
 198              		.loc 1 230 0
 199 0020 5222     		movs	r2, #82
 200 0022 A3F58073 		sub	r3, r3, #256
 201 0026 1A70     		strb	r2, [r3]
 231:Generated_Source\PSoC5/cyfitter_cfg.c **** 
 202              		.loc 1 231 0
 203 0028 1E4B     		ldr	r3, .L17+12
 204 002a 1B78     		ldrb	r3, [r3]	@ zero_extendqisi2
 205 002c DBB2     		uxtb	r3, r3
 206 002e 1E4A     		ldr	r2, .L17+16
 207 0030 1370     		strb	r3, [r2]
 234:Generated_Source\PSoC5/cyfitter_cfg.c **** 
 208              		.loc 1 234 0
 209 0032 0024     		movs	r4, #0
 210 0034 1D4B     		ldr	r3, .L17+20
 211 0036 1C80     		strh	r4, [r3]	@ movhi
 237:Generated_Source\PSoC5/cyfitter_cfg.c **** 	CY_SET_XTND_REG16((void CYFAR *)(CYREG_FASTCLK_PLL_CFG0), 0x1251u);
 212              		.loc 1 237 0
 213 0038 4FF4E162 		mov	r2, #1800
 214 003c 03F21E23 		addw	r3, r3, #542
 215 0040 1A80     		strh	r2, [r3]	@ movhi
ARM GAS  C:\Users\kopusov.FT\AppData\Local\Temp\ccCpI1R1.s 			page 10


 238:Generated_Source\PSoC5/cyfitter_cfg.c **** 	/* Wait up to 250us for the PLL to lock */
 216              		.loc 1 238 0
 217 0042 41F25122 		movw	r2, #4689
 218 0046 023B     		subs	r3, r3, #2
 219 0048 1A80     		strh	r2, [r3]	@ movhi
 220              	.LVL16:
 241:Generated_Source\PSoC5/cyfitter_cfg.c **** 	{ 
 221              		.loc 1 241 0
 222 004a 1925     		movs	r5, #25
 223 004c 0CE0     		b	.L13
 224              	.LVL17:
 225              	.L15:
 243:Generated_Source\PSoC5/cyfitter_cfg.c **** 		CyDelayCycles(10u * 48u); /* Delay 10us based on 48MHz clock */
 226              		.loc 1 243 0 discriminator 4
 227 004e 184B     		ldr	r3, .L17+24
 228 0050 1B78     		ldrb	r3, [r3]	@ zero_extendqisi2
 229 0052 03F00103 		and	r3, r3, #1
 230 0056 43EA4404 		orr	r4, r3, r4, lsl #1
 231              	.LVL18:
 232 005a 04F00304 		and	r4, r4, #3
 233              	.LVL19:
 244:Generated_Source\PSoC5/cyfitter_cfg.c **** 	}
 234              		.loc 1 244 0 discriminator 4
 235 005e 4FF4F070 		mov	r0, #480
 236 0062 FFF7FEFF 		bl	CyDelayCycles
 237              	.LVL20:
 241:Generated_Source\PSoC5/cyfitter_cfg.c **** 	{ 
 238              		.loc 1 241 0 discriminator 4
 239 0066 013D     		subs	r5, r5, #1
 240              	.LVL21:
 241              	.L13:
 241:Generated_Source\PSoC5/cyfitter_cfg.c **** 	{ 
 242              		.loc 1 241 0 is_stmt 0 discriminator 1
 243 0068 0DB1     		cbz	r5, .L14
 241:Generated_Source\PSoC5/cyfitter_cfg.c **** 	{ 
 244              		.loc 1 241 0 discriminator 3
 245 006a 032C     		cmp	r4, #3
 246 006c EFD1     		bne	.L15
 247              	.L14:
 246:Generated_Source\PSoC5/cyfitter_cfg.c **** 	CY_SET_XTND_REG8((void CYFAR *)(CYREG_CLKDIST_BCFG0), 0x00u);
 248              		.loc 1 246 0 is_stmt 1
 249 006e 0F4A     		ldr	r2, .L17+20
 250 0070 0723     		movs	r3, #7
 251 0072 1370     		strb	r3, [r2]
 247:Generated_Source\PSoC5/cyfitter_cfg.c **** 	CY_SET_XTND_REG8((void CYFAR *)(CYREG_CLKDIST_BCFG2), 0x48u);
 252              		.loc 1 247 0
 253 0074 0023     		movs	r3, #0
 254 0076 0F49     		ldr	r1, .L17+28
 255 0078 0B70     		strb	r3, [r1]
 248:Generated_Source\PSoC5/cyfitter_cfg.c **** 	CY_SET_XTND_REG8((void CYFAR *)(CYREG_CLKDIST_MSTR0), 0x00u);
 256              		.loc 1 248 0
 257 007a 4820     		movs	r0, #72
 258 007c 0231     		adds	r1, r1, #2
 259 007e 0870     		strb	r0, [r1]
 249:Generated_Source\PSoC5/cyfitter_cfg.c **** 
 260              		.loc 1 249 0
 261 0080 1370     		strb	r3, [r2]
ARM GAS  C:\Users\kopusov.FT\AppData\Local\Temp\ccCpI1R1.s 			page 11


 252:Generated_Source\PSoC5/cyfitter_cfg.c **** 	CY_SET_XTND_REG8((void CYFAR *)(CYREG_CLKDIST_LD), 0x02u);
 262              		.loc 1 252 0
 263 0082 0532     		adds	r2, r2, #5
 264 0084 1370     		strb	r3, [r2]
 253:Generated_Source\PSoC5/cyfitter_cfg.c **** 
 265              		.loc 1 253 0
 266 0086 0222     		movs	r2, #2
 267 0088 0B4B     		ldr	r3, .L17+32
 268 008a 1A70     		strb	r2, [r3]
 255:Generated_Source\PSoC5/cyfitter_cfg.c **** }
 269              		.loc 1 255 0
 270 008c 0B4A     		ldr	r2, .L17+36
 271 008e 1378     		ldrb	r3, [r2]	@ zero_extendqisi2
 272 0090 43F00303 		orr	r3, r3, #3
 273 0094 1370     		strb	r3, [r2]
 274 0096 38BD     		pop	{r3, r4, r5, pc}
 275              	.LVL22:
 276              	.L18:
 277              		.align	2
 278              	.L17:
 279 0098 80400040 		.word	1073758336
 280 009c 82400040 		.word	1073758338
 281 00a0 00430040 		.word	1073758976
 282 00a4 0F010049 		.word	1224737039
 283 00a8 A1460040 		.word	1073759905
 284 00ac 04400040 		.word	1073758212
 285 00b0 25420040 		.word	1073758757
 286 00b4 06400040 		.word	1073758214
 287 00b8 01400040 		.word	1073758209
 288 00bc A2430040 		.word	1073759138
 289              		.cfi_endproc
 290              	.LFE4:
 291              		.size	ClockSetup, .-ClockSetup
 292              		.section	.text.CYCONFIGCPY,"ax",%progbits
 293              		.align	2
 294              		.thumb
 295              		.thumb_func
 296              		.type	CYCONFIGCPY, %function
 297              	CYCONFIGCPY:
 298              	.LFB1:
  69:Generated_Source\PSoC5/cyfitter_cfg.c **** 	(void)memcpy(dest, src, n);
 299              		.loc 1 69 0
 300              		.cfi_startproc
 301              		@ args = 0, pretend = 0, frame = 0
 302              		@ frame_needed = 0, uses_anonymous_args = 0
 303              	.LVL23:
 304 0000 08B5     		push	{r3, lr}
 305              		.cfi_def_cfa_offset 8
 306              		.cfi_offset 3, -8
 307              		.cfi_offset 14, -4
  70:Generated_Source\PSoC5/cyfitter_cfg.c **** }
 308              		.loc 1 70 0
 309 0002 FFF7FEFF 		bl	memcpy
 310              	.LVL24:
 311 0006 08BD     		pop	{r3, pc}
 312              		.cfi_endproc
 313              	.LFE1:
ARM GAS  C:\Users\kopusov.FT\AppData\Local\Temp\ccCpI1R1.s 			page 12


 314              		.size	CYCONFIGCPY, .-CYCONFIGCPY
 315              		.section	.text.SetAnalogRoutingPumps,"ax",%progbits
 316              		.align	2
 317              		.global	SetAnalogRoutingPumps
 318              		.thumb
 319              		.thumb_func
 320              		.type	SetAnalogRoutingPumps, %function
 321              	SetAnalogRoutingPumps:
 322              	.LFB6:
 284:Generated_Source\PSoC5/cyfitter_cfg.c **** }
 285:Generated_Source\PSoC5/cyfitter_cfg.c **** 
 286:Generated_Source\PSoC5/cyfitter_cfg.c **** 
 287:Generated_Source\PSoC5/cyfitter_cfg.c **** /*******************************************************************************
 288:Generated_Source\PSoC5/cyfitter_cfg.c **** * Function Name: SetAnalogRoutingPumps
 289:Generated_Source\PSoC5/cyfitter_cfg.c **** ********************************************************************************
 290:Generated_Source\PSoC5/cyfitter_cfg.c **** *
 291:Generated_Source\PSoC5/cyfitter_cfg.c **** * Summary:
 292:Generated_Source\PSoC5/cyfitter_cfg.c **** * Enables or disables the analog pumps feeding analog routing switches.
 293:Generated_Source\PSoC5/cyfitter_cfg.c **** * Intended to be called at startup, based on the Vdda system configuration;
 294:Generated_Source\PSoC5/cyfitter_cfg.c **** * may be called during operation when the user informs us that the Vdda voltage
 295:Generated_Source\PSoC5/cyfitter_cfg.c **** * crossed the pump threshold.
 296:Generated_Source\PSoC5/cyfitter_cfg.c **** *
 297:Generated_Source\PSoC5/cyfitter_cfg.c **** * Parameters:
 298:Generated_Source\PSoC5/cyfitter_cfg.c **** *  enabled - 1 to enable the pumps, 0 to disable the pumps
 299:Generated_Source\PSoC5/cyfitter_cfg.c **** *
 300:Generated_Source\PSoC5/cyfitter_cfg.c **** * Return:
 301:Generated_Source\PSoC5/cyfitter_cfg.c **** *  void
 302:Generated_Source\PSoC5/cyfitter_cfg.c **** *
 303:Generated_Source\PSoC5/cyfitter_cfg.c **** *******************************************************************************/
 304:Generated_Source\PSoC5/cyfitter_cfg.c **** void SetAnalogRoutingPumps(uint8 enabled)
 305:Generated_Source\PSoC5/cyfitter_cfg.c **** {
 323              		.loc 1 305 0
 324              		.cfi_startproc
 325              		@ args = 0, pretend = 0, frame = 0
 326              		@ frame_needed = 0, uses_anonymous_args = 0
 327              		@ link register save eliminated.
 328              	.LVL25:
 306:Generated_Source\PSoC5/cyfitter_cfg.c **** 	uint8 regValue = CY_GET_XTND_REG8((void CYFAR *)CYREG_PUMP_CR0);
 329              		.loc 1 306 0
 330 0000 024A     		ldr	r2, .L22
 331 0002 1378     		ldrb	r3, [r2]	@ zero_extendqisi2
 332 0004 DBB2     		uxtb	r3, r3
 333              	.LVL26:
 307:Generated_Source\PSoC5/cyfitter_cfg.c **** 	if (enabled != 0u)
 308:Generated_Source\PSoC5/cyfitter_cfg.c **** 	{
 309:Generated_Source\PSoC5/cyfitter_cfg.c **** 		regValue |= 0x00u;
 310:Generated_Source\PSoC5/cyfitter_cfg.c **** 	}
 311:Generated_Source\PSoC5/cyfitter_cfg.c **** 	else
 312:Generated_Source\PSoC5/cyfitter_cfg.c **** 	{
 313:Generated_Source\PSoC5/cyfitter_cfg.c **** 		regValue &= (uint8)~0x00u;
 314:Generated_Source\PSoC5/cyfitter_cfg.c **** 	}
 315:Generated_Source\PSoC5/cyfitter_cfg.c **** 	CY_SET_XTND_REG8((void CYFAR *)CYREG_PUMP_CR0, regValue);
 334              		.loc 1 315 0
 335 0006 1370     		strb	r3, [r2]
 336 0008 7047     		bx	lr
 337              	.L23:
 338 000a 00BF     		.align	2
ARM GAS  C:\Users\kopusov.FT\AppData\Local\Temp\ccCpI1R1.s 			page 13


 339              	.L22:
 340 000c 76580040 		.word	1073764470
 341              		.cfi_endproc
 342              	.LFE6:
 343              		.size	SetAnalogRoutingPumps, .-SetAnalogRoutingPumps
 344              		.section	.text.cyfitter_cfg,"ax",%progbits
 345              		.align	2
 346              		.global	cyfitter_cfg
 347              		.thumb
 348              		.thumb_func
 349              		.type	cyfitter_cfg, %function
 350              	cyfitter_cfg:
 351              	.LFB7:
 316:Generated_Source\PSoC5/cyfitter_cfg.c **** }
 317:Generated_Source\PSoC5/cyfitter_cfg.c **** 
 318:Generated_Source\PSoC5/cyfitter_cfg.c **** #define CY_AMUX_UNUSED CYREG_BOOST_SR
 319:Generated_Source\PSoC5/cyfitter_cfg.c **** 
 320:Generated_Source\PSoC5/cyfitter_cfg.c **** 
 321:Generated_Source\PSoC5/cyfitter_cfg.c **** /*******************************************************************************
 322:Generated_Source\PSoC5/cyfitter_cfg.c **** * Function Name: cyfitter_cfg
 323:Generated_Source\PSoC5/cyfitter_cfg.c **** ********************************************************************************
 324:Generated_Source\PSoC5/cyfitter_cfg.c **** * Summary:
 325:Generated_Source\PSoC5/cyfitter_cfg.c **** *  This function is called by the start-up code for the selected device. It
 326:Generated_Source\PSoC5/cyfitter_cfg.c **** *  performs all of the necessary device configuration based on the design
 327:Generated_Source\PSoC5/cyfitter_cfg.c **** *  settings.  This includes settings from the Design Wide Resources (DWR) such
 328:Generated_Source\PSoC5/cyfitter_cfg.c **** *  as Clocks and Pins as well as any component configuration that is necessary.
 329:Generated_Source\PSoC5/cyfitter_cfg.c **** *
 330:Generated_Source\PSoC5/cyfitter_cfg.c **** * Parameters:  
 331:Generated_Source\PSoC5/cyfitter_cfg.c **** *   void
 332:Generated_Source\PSoC5/cyfitter_cfg.c **** *
 333:Generated_Source\PSoC5/cyfitter_cfg.c **** * Return:
 334:Generated_Source\PSoC5/cyfitter_cfg.c **** *   void
 335:Generated_Source\PSoC5/cyfitter_cfg.c **** *
 336:Generated_Source\PSoC5/cyfitter_cfg.c **** *******************************************************************************/
 337:Generated_Source\PSoC5/cyfitter_cfg.c **** 
 338:Generated_Source\PSoC5/cyfitter_cfg.c **** void cyfitter_cfg(void)
 339:Generated_Source\PSoC5/cyfitter_cfg.c **** {
 352              		.loc 1 339 0
 353              		.cfi_startproc
 354              		@ args = 0, pretend = 0, frame = 0
 355              		@ frame_needed = 0, uses_anonymous_args = 0
 356 0000 38B5     		push	{r3, r4, r5, lr}
 357              		.cfi_def_cfa_offset 16
 358              		.cfi_offset 3, -16
 359              		.cfi_offset 4, -12
 360              		.cfi_offset 5, -8
 361              		.cfi_offset 14, -4
 340:Generated_Source\PSoC5/cyfitter_cfg.c **** #ifdef CYGlobalIntDisable
 341:Generated_Source\PSoC5/cyfitter_cfg.c **** 	/* Disable interrupts by default. Let user enable if/when they want. */
 342:Generated_Source\PSoC5/cyfitter_cfg.c **** 	CYGlobalIntDisable
 362              		.loc 1 342 0
 363              	@ 342 "Generated_Source\PSoC5\cyfitter_cfg.c" 1
 364 0002 72B6     		CPSID   i
 365              	@ 0 "" 2
 343:Generated_Source\PSoC5/cyfitter_cfg.c **** #endif
 344:Generated_Source\PSoC5/cyfitter_cfg.c **** 
 345:Generated_Source\PSoC5/cyfitter_cfg.c **** 	/* Enable/Disable Debug functionality based on settings from System DWR */
ARM GAS  C:\Users\kopusov.FT\AppData\Local\Temp\ccCpI1R1.s 			page 14


 346:Generated_Source\PSoC5/cyfitter_cfg.c **** 	CY_SET_XTND_REG8((void CYFAR *)CYREG_MLOGIC_DEBUG, (CY_GET_XTND_REG8((void CYFAR *)CYREG_MLOGIC_DE
 366              		.loc 1 346 0
 367              		.thumb
 368 0004 314A     		ldr	r2, .L28
 369 0006 1378     		ldrb	r3, [r2]	@ zero_extendqisi2
 370 0008 43F00403 		orr	r3, r3, #4
 371 000c 1370     		strb	r3, [r2]
 372              	.LVL27:
 373              	.LBB3:
 347:Generated_Source\PSoC5/cyfitter_cfg.c **** 
 348:Generated_Source\PSoC5/cyfitter_cfg.c **** 	{
 349:Generated_Source\PSoC5/cyfitter_cfg.c **** 
 350:Generated_Source\PSoC5/cyfitter_cfg.c **** 		CYPACKED typedef struct {
 351:Generated_Source\PSoC5/cyfitter_cfg.c **** 			void CYFAR *address;
 352:Generated_Source\PSoC5/cyfitter_cfg.c **** 			uint16 size;
 353:Generated_Source\PSoC5/cyfitter_cfg.c **** 		} CYPACKED_ATTR cfg_memset_t;
 354:Generated_Source\PSoC5/cyfitter_cfg.c **** 
 355:Generated_Source\PSoC5/cyfitter_cfg.c **** 		static const cfg_memset_t CYCODE cfg_memset_list [] = {
 356:Generated_Source\PSoC5/cyfitter_cfg.c **** 			/* address, size */
 357:Generated_Source\PSoC5/cyfitter_cfg.c **** 			{(void CYFAR *)(CYREG_TMR0_CFG0), 12u},
 358:Generated_Source\PSoC5/cyfitter_cfg.c **** 			{(void CYFAR *)(CYREG_PRT2_DR), 16u},
 359:Generated_Source\PSoC5/cyfitter_cfg.c **** 			{(void CYFAR *)(CYREG_PRT4_DR), 48u},
 360:Generated_Source\PSoC5/cyfitter_cfg.c **** 			{(void CYFAR *)(CYDEV_UCFG_B0_P0_U0_BASE), 4096u},
 361:Generated_Source\PSoC5/cyfitter_cfg.c **** 			{(void CYFAR *)(CYDEV_UCFG_B1_P2_U0_BASE), 2048u},
 362:Generated_Source\PSoC5/cyfitter_cfg.c **** 			{(void CYFAR *)(CYDEV_UCFG_DSI0_BASE), 2560u},
 363:Generated_Source\PSoC5/cyfitter_cfg.c **** 			{(void CYFAR *)(CYDEV_UCFG_DSI12_BASE), 512u},
 364:Generated_Source\PSoC5/cyfitter_cfg.c **** 			{(void CYFAR *)(CYREG_BCTL0_MDCLK_EN), 32u},
 365:Generated_Source\PSoC5/cyfitter_cfg.c **** 		};
 366:Generated_Source\PSoC5/cyfitter_cfg.c **** 
 367:Generated_Source\PSoC5/cyfitter_cfg.c **** 		uint8 CYDATA i;
 368:Generated_Source\PSoC5/cyfitter_cfg.c **** 
 369:Generated_Source\PSoC5/cyfitter_cfg.c **** 		/* Zero out critical memory blocks before beginning configuration */
 370:Generated_Source\PSoC5/cyfitter_cfg.c **** 		for (i = 0u; i < (sizeof(cfg_memset_list)/sizeof(cfg_memset_list[0])); i++)
 374              		.loc 1 370 0
 375 000e 0024     		movs	r4, #0
 376 0010 0CE0     		b	.L25
 377              	.LVL28:
 378              	.L26:
 379              	.LBB4:
 371:Generated_Source\PSoC5/cyfitter_cfg.c **** 		{
 372:Generated_Source\PSoC5/cyfitter_cfg.c **** 			const cfg_memset_t CYCODE * CYDATA ms = &cfg_memset_list[i];
 373:Generated_Source\PSoC5/cyfitter_cfg.c **** 			CYMEMZERO(ms->address, (size_t)(uint32)(ms->size));
 380              		.loc 1 373 0 discriminator 3
 381 0012 2F49     		ldr	r1, .L28+4
 382 0014 6300     		lsls	r3, r4, #1
 383 0016 1A19     		adds	r2, r3, r4
 384 0018 5200     		lsls	r2, r2, #1
 385 001a 0A44     		add	r2, r2, r1
 386 001c 2344     		add	r3, r3, r4
 387 001e 5B00     		lsls	r3, r3, #1
 388 0020 C858     		ldr	r0, [r1, r3]	@ unaligned
 389 0022 9188     		ldrh	r1, [r2, #4]
 390 0024 FFF7FEFF 		bl	CYMEMZERO
 391              	.LVL29:
 392              	.LBE4:
 370:Generated_Source\PSoC5/cyfitter_cfg.c **** 		{
 393              		.loc 1 370 0 discriminator 3
ARM GAS  C:\Users\kopusov.FT\AppData\Local\Temp\ccCpI1R1.s 			page 15


 394 0028 0134     		adds	r4, r4, #1
 395              	.LVL30:
 396 002a E4B2     		uxtb	r4, r4
 397              	.LVL31:
 398              	.L25:
 370:Generated_Source\PSoC5/cyfitter_cfg.c **** 		{
 399              		.loc 1 370 0 is_stmt 0 discriminator 1
 400 002c 072C     		cmp	r4, #7
 401 002e F0D9     		bls	.L26
 374:Generated_Source\PSoC5/cyfitter_cfg.c **** 		}
 375:Generated_Source\PSoC5/cyfitter_cfg.c **** 
 376:Generated_Source\PSoC5/cyfitter_cfg.c **** 		cfg_write_bytes32(cy_cfg_addr_table, cy_cfg_data_table);
 402              		.loc 1 376 0 is_stmt 1
 403 0030 4FF09040 		mov	r0, #1207959552
 404 0034 2749     		ldr	r1, .L28+8
 405 0036 FFF7FEFF 		bl	cfg_write_bytes32
 406              	.LVL32:
 377:Generated_Source\PSoC5/cyfitter_cfg.c **** 
 378:Generated_Source\PSoC5/cyfitter_cfg.c **** 		/* Enable digital routing */
 379:Generated_Source\PSoC5/cyfitter_cfg.c **** 		CY_SET_XTND_REG8((void CYFAR *)CYREG_BCTL0_BANK_CTL, CY_GET_XTND_REG8((void CYFAR *)CYREG_BCTL0_B
 407              		.loc 1 379 0
 408 003a 274A     		ldr	r2, .L28+12
 409 003c 1378     		ldrb	r3, [r2]	@ zero_extendqisi2
 410 003e 43F00203 		orr	r3, r3, #2
 411 0042 1370     		strb	r3, [r2]
 380:Generated_Source\PSoC5/cyfitter_cfg.c **** 		CY_SET_XTND_REG8((void CYFAR *)CYREG_BCTL1_BANK_CTL, CY_GET_XTND_REG8((void CYFAR *)CYREG_BCTL1_B
 412              		.loc 1 380 0
 413 0044 1032     		adds	r2, r2, #16
 414 0046 1378     		ldrb	r3, [r2]	@ zero_extendqisi2
 415 0048 43F00203 		orr	r3, r3, #2
 416 004c 1370     		strb	r3, [r2]
 381:Generated_Source\PSoC5/cyfitter_cfg.c **** 
 382:Generated_Source\PSoC5/cyfitter_cfg.c **** 		/* Enable UDB array */
 383:Generated_Source\PSoC5/cyfitter_cfg.c **** 		CY_SET_XTND_REG8((void CYFAR *)CYREG_PM_ACT_CFG0, CY_GET_XTND_REG8((void CYFAR *)CYREG_PM_ACT_CFG
 417              		.loc 1 383 0
 418 004e 234C     		ldr	r4, .L28+16
 419              	.LVL33:
 420 0050 2378     		ldrb	r3, [r4]	@ zero_extendqisi2
 421 0052 43F04003 		orr	r3, r3, #64
 422 0056 2370     		strb	r3, [r4]
 384:Generated_Source\PSoC5/cyfitter_cfg.c **** 		CY_SET_XTND_REG8((void CYFAR *)CYREG_PM_AVAIL_CR2, CY_GET_XTND_REG8((void CYFAR *)CYREG_PM_AVAIL_
 423              		.loc 1 384 0
 424 0058 A2F58632 		sub	r2, r2, #68608
 425 005c 513A     		subs	r2, r2, #81
 426 005e 1378     		ldrb	r3, [r2]	@ zero_extendqisi2
 427 0060 43F01003 		orr	r3, r3, #16
 428 0064 1370     		strb	r3, [r2]
 429              	.LBE3:
 385:Generated_Source\PSoC5/cyfitter_cfg.c **** 	}
 386:Generated_Source\PSoC5/cyfitter_cfg.c **** 
 387:Generated_Source\PSoC5/cyfitter_cfg.c **** 
 388:Generated_Source\PSoC5/cyfitter_cfg.c **** 	/* Perform second pass device configuration. These items must be configured in specific order afte
 389:Generated_Source\PSoC5/cyfitter_cfg.c **** 	CYCONFIGCPY((void CYFAR *)(CYREG_PRT0_DM0), (const void CYFAR *)(BS_IOPINS0_0_VAL), 8u);
 430              		.loc 1 389 0
 431 0066 1E48     		ldr	r0, .L28+20
 432 0068 1E49     		ldr	r1, .L28+24
 433 006a 0822     		movs	r2, #8
ARM GAS  C:\Users\kopusov.FT\AppData\Local\Temp\ccCpI1R1.s 			page 16


 434 006c FFF7FEFF 		bl	CYCONFIGCPY
 435              	.LVL34:
 390:Generated_Source\PSoC5/cyfitter_cfg.c **** 	CYCONFIGCPY((void CYFAR *)(CYREG_PRT12_DR), (const void CYFAR *)(BS_IOPINS0_7_VAL), 10u);
 436              		.loc 1 390 0
 437 0070 1D48     		ldr	r0, .L28+28
 438 0072 1E49     		ldr	r1, .L28+32
 439 0074 0A22     		movs	r2, #10
 440 0076 FFF7FEFF 		bl	CYCONFIGCPY
 441              	.LVL35:
 391:Generated_Source\PSoC5/cyfitter_cfg.c **** 	CYCONFIGCPY((void CYFAR *)(CYREG_PRT12_DR + 0x0000000Bu), (const void CYFAR *)(BS_IOPINS1_7_VAL), 
 442              		.loc 1 391 0
 443 007a 1D48     		ldr	r0, .L28+36
 444 007c 1D49     		ldr	r1, .L28+40
 445 007e 0522     		movs	r2, #5
 446 0080 FFF7FEFF 		bl	CYCONFIGCPY
 447              	.LVL36:
 392:Generated_Source\PSoC5/cyfitter_cfg.c **** 	CYCONFIGCPY((void CYFAR *)(CYREG_PRT15_DR), (const void CYFAR *)(BS_IOPINS0_8_VAL), 10u);
 448              		.loc 1 392 0
 449 0084 1C48     		ldr	r0, .L28+44
 450 0086 1D49     		ldr	r1, .L28+48
 451 0088 0A22     		movs	r2, #10
 452 008a FFF7FEFF 		bl	CYCONFIGCPY
 453              	.LVL37:
 393:Generated_Source\PSoC5/cyfitter_cfg.c **** 	CYCONFIGCPY((void CYFAR *)(CYREG_PRT1_DR), (const void CYFAR *)(BS_IOPINS0_1_VAL), 10u);
 454              		.loc 1 393 0
 455 008e 1C48     		ldr	r0, .L28+52
 456 0090 1C49     		ldr	r1, .L28+56
 457 0092 0A22     		movs	r2, #10
 458 0094 FFF7FEFF 		bl	CYCONFIGCPY
 459              	.LVL38:
 394:Generated_Source\PSoC5/cyfitter_cfg.c **** 	CYCONFIGCPY((void CYFAR *)(CYREG_PRT3_DM0), (const void CYFAR *)(BS_IOPINS0_3_VAL), 8u);
 460              		.loc 1 394 0
 461 0098 1B48     		ldr	r0, .L28+60
 462 009a 1C49     		ldr	r1, .L28+64
 463 009c 0822     		movs	r2, #8
 464 009e FFF7FEFF 		bl	CYCONFIGCPY
 465              	.LVL39:
 395:Generated_Source\PSoC5/cyfitter_cfg.c **** 	/* Switch Boost to the precision bandgap reference from its internal reference */
 396:Generated_Source\PSoC5/cyfitter_cfg.c **** 	CY_SET_REG8((void CYXDATA *)CYREG_BOOST_CR2, (CY_GET_REG8((void CYXDATA *)CYREG_BOOST_CR2) | 0x08u
 466              		.loc 1 396 0
 467 00a2 1B4A     		ldr	r2, .L28+68
 468 00a4 1378     		ldrb	r3, [r2]	@ zero_extendqisi2
 469 00a6 43F00803 		orr	r3, r3, #8
 470 00aa 1370     		strb	r3, [r2]
 397:Generated_Source\PSoC5/cyfitter_cfg.c **** 
 398:Generated_Source\PSoC5/cyfitter_cfg.c **** 	/* Set Flash Cycles based on max possible frequency in case a glitch occurs during ClockSetup(). *
 399:Generated_Source\PSoC5/cyfitter_cfg.c **** 	CY_SET_XTND_REG8((void CYFAR *)(CYREG_CACHE_CC_CTL), (((CYDEV_INSTRUCT_CACHE_ENABLED) != 0) ? 0x01
 471              		.loc 1 399 0
 472 00ac 194D     		ldr	r5, .L28+72
 473 00ae 0123     		movs	r3, #1
 474 00b0 2B70     		strb	r3, [r5]
 400:Generated_Source\PSoC5/cyfitter_cfg.c **** 	/* Setup clocks based on selections from Clock DWR */
 401:Generated_Source\PSoC5/cyfitter_cfg.c **** 	ClockSetup();
 475              		.loc 1 401 0
 476 00b2 FFF7FEFF 		bl	ClockSetup
 477              	.LVL40:
 402:Generated_Source\PSoC5/cyfitter_cfg.c **** 	/* Set Flash Cycles based on newly configured 24.00MHz Bus Clock. */
ARM GAS  C:\Users\kopusov.FT\AppData\Local\Temp\ccCpI1R1.s 			page 17


 403:Generated_Source\PSoC5/cyfitter_cfg.c **** 	CY_SET_XTND_REG8((void CYFAR *)(CYREG_CACHE_CC_CTL), (((CYDEV_INSTRUCT_CACHE_ENABLED) != 0) ? 0x81
 478              		.loc 1 403 0
 479 00b6 8123     		movs	r3, #129
 480 00b8 2B70     		strb	r3, [r5]
 404:Generated_Source\PSoC5/cyfitter_cfg.c **** 
 405:Generated_Source\PSoC5/cyfitter_cfg.c **** 	/* Perform basic analog initialization to defaults */
 406:Generated_Source\PSoC5/cyfitter_cfg.c **** 	AnalogSetDefault();
 481              		.loc 1 406 0
 482 00ba FFF7FEFF 		bl	AnalogSetDefault
 483              	.LVL41:
 407:Generated_Source\PSoC5/cyfitter_cfg.c **** 
 408:Generated_Source\PSoC5/cyfitter_cfg.c **** 	/* Configure alternate active mode */
 409:Generated_Source\PSoC5/cyfitter_cfg.c **** 	CYCONFIGCPY((void CYFAR *)CYDEV_PM_STBY_BASE, (const void CYFAR *)CYDEV_PM_ACT_BASE, 14u);
 484              		.loc 1 409 0
 485 00be 1648     		ldr	r0, .L28+76
 486 00c0 2146     		mov	r1, r4
 487 00c2 0E22     		movs	r2, #14
 488 00c4 FFF7FEFF 		bl	CYCONFIGCPY
 489              	.LVL42:
 490 00c8 38BD     		pop	{r3, r4, r5, pc}
 491              	.L29:
 492 00ca 00BF     		.align	2
 493              	.L28:
 494 00cc E8460040 		.word	1073759976
 495 00d0 00000000 		.word	.LANCHOR0
 496 00d4 70000048 		.word	1207959664
 497 00d8 03500140 		.word	1073827843
 498 00dc A0430040 		.word	1073759136
 499 00e0 02510040 		.word	1073762562
 500 00e4 EC030048 		.word	1207960556
 501 00e8 C0510040 		.word	1073762752
 502 00ec F4030048 		.word	1207960564
 503 00f0 CB510040 		.word	1073762763
 504 00f4 00040048 		.word	1207960576
 505 00f8 F0510040 		.word	1073762800
 506 00fc 08040048 		.word	1207960584
 507 0100 10510040 		.word	1073762576
 508 0104 14040048 		.word	1207960596
 509 0108 32510040 		.word	1073762610
 510 010c 20040048 		.word	1207960608
 511 0110 22430040 		.word	1073759010
 512 0114 00480040 		.word	1073760256
 513 0118 B0430040 		.word	1073759152
 514              		.cfi_endproc
 515              	.LFE7:
 516              		.size	cyfitter_cfg, .-cyfitter_cfg
 517              		.section	.rodata
 518              		.align	2
 519              		.set	.LANCHOR0,. + 0
 520              		.type	cfg_memset_list.4874, %object
 521              		.size	cfg_memset_list.4874, 48
 522              	cfg_memset_list.4874:
 523 0000 004F0040 		.word	1073762048
 524 0004 0C00     		.short	12
 525 0006 20510040 		.4byte	1073762592
 526 000a 1000     		.short	16
 527 000c 40510040 		.word	1073762624
ARM GAS  C:\Users\kopusov.FT\AppData\Local\Temp\ccCpI1R1.s 			page 18


 528 0010 3000     		.short	48
 529 0012 00000140 		.4byte	1073807360
 530 0016 0010     		.short	4096
 531 0018 00140140 		.word	1073812480
 532 001c 0008     		.short	2048
 533 001e 00400140 		.4byte	1073823744
 534 0022 000A     		.short	2560
 535 0024 004C0140 		.word	1073826816
 536 0028 0002     		.short	512
 537 002a 00500140 		.4byte	1073827840
 538 002e 2000     		.short	32
 539              		.text
 540              	.Letext0:
 541              		.file 2 "c:\\program files (x86)\\cypress\\psoc creator\\4.0\\psoc creator\\import\\gnu\\arm\\4.9.
 542              		.file 3 "Generated_Source\\PSoC5\\cytypes.h"
 543              		.file 4 "Generated_Source\\PSoC5\\CyLib.h"