ARM GAS  C:\Users\kopusov.FT\AppData\Local\Temp\ccoqKBbc.s 			page 1


   1              		.syntax unified
   2              		.cpu cortex-m3
   3              		.fpu softvfp
   4              		.eabi_attribute 20, 1
   5              		.eabi_attribute 21, 1
   6              		.eabi_attribute 23, 3
   7              		.eabi_attribute 24, 1
   8              		.eabi_attribute 25, 1
   9              		.eabi_attribute 26, 1
  10              		.eabi_attribute 30, 1
  11              		.eabi_attribute 34, 1
  12              		.eabi_attribute 18, 4
  13              		.thumb
  14              		.file	"ISR.c"
  15              		.text
  16              	.Ltext0:
  17              		.cfi_sections	.debug_frame
  18              		.section	.text.ISR_Interrupt,"ax",%progbits
  19              		.align	2
  20              		.global	ISR_Interrupt
  21              		.thumb
  22              		.thumb_func
  23              		.type	ISR_Interrupt, %function
  24              	ISR_Interrupt:
  25              	.LFB3:
  26              		.file 1 "Generated_Source\\PSoC5\\ISR.c"
   1:Generated_Source\PSoC5/ISR.c **** /*******************************************************************************
   2:Generated_Source\PSoC5/ISR.c **** * File Name: ISR.c  
   3:Generated_Source\PSoC5/ISR.c **** * Version 1.70
   4:Generated_Source\PSoC5/ISR.c **** *
   5:Generated_Source\PSoC5/ISR.c **** *  Description:
   6:Generated_Source\PSoC5/ISR.c **** *   API for controlling the state of an interrupt.
   7:Generated_Source\PSoC5/ISR.c **** *
   8:Generated_Source\PSoC5/ISR.c **** *
   9:Generated_Source\PSoC5/ISR.c **** *  Note:
  10:Generated_Source\PSoC5/ISR.c **** *
  11:Generated_Source\PSoC5/ISR.c **** ********************************************************************************
  12:Generated_Source\PSoC5/ISR.c **** * Copyright 2008-2015, Cypress Semiconductor Corporation.  All rights reserved.
  13:Generated_Source\PSoC5/ISR.c **** * You may use this file only in accordance with the license, terms, conditions, 
  14:Generated_Source\PSoC5/ISR.c **** * disclaimers, and limitations in the end user license agreement accompanying 
  15:Generated_Source\PSoC5/ISR.c **** * the software package with which this file was provided.
  16:Generated_Source\PSoC5/ISR.c **** *******************************************************************************/
  17:Generated_Source\PSoC5/ISR.c **** 
  18:Generated_Source\PSoC5/ISR.c **** 
  19:Generated_Source\PSoC5/ISR.c **** #include <cydevice_trm.h>
  20:Generated_Source\PSoC5/ISR.c **** #include <CyLib.h>
  21:Generated_Source\PSoC5/ISR.c **** #include <ISR.h>
  22:Generated_Source\PSoC5/ISR.c **** #include "cyapicallbacks.h"
  23:Generated_Source\PSoC5/ISR.c **** 
  24:Generated_Source\PSoC5/ISR.c **** #if !defined(ISR__REMOVED) /* Check for removal by optimization */
  25:Generated_Source\PSoC5/ISR.c **** 
  26:Generated_Source\PSoC5/ISR.c **** /*******************************************************************************
  27:Generated_Source\PSoC5/ISR.c **** *  Place your includes, defines and code here 
  28:Generated_Source\PSoC5/ISR.c **** ********************************************************************************/
  29:Generated_Source\PSoC5/ISR.c **** /* `#START ISR_intc` */
  30:Generated_Source\PSoC5/ISR.c **** 
  31:Generated_Source\PSoC5/ISR.c **** #include "MDIO_host_2_my.h"
ARM GAS  C:\Users\kopusov.FT\AppData\Local\Temp\ccoqKBbc.s 			page 2


  32:Generated_Source\PSoC5/ISR.c ****     /* Data received MDIO Host */
  33:Generated_Source\PSoC5/ISR.c **** extern volatile uint16 MDIO_host_2_data_bits;
  34:Generated_Source\PSoC5/ISR.c **** 
  35:Generated_Source\PSoC5/ISR.c ****     /* Internal Status Register */
  36:Generated_Source\PSoC5/ISR.c **** extern volatile uint8 MDIO_host_2_StatusRegister;
  37:Generated_Source\PSoC5/ISR.c ****     
  38:Generated_Source\PSoC5/ISR.c **** /* `#END` */
  39:Generated_Source\PSoC5/ISR.c **** 
  40:Generated_Source\PSoC5/ISR.c **** #ifndef CYINT_IRQ_BASE
  41:Generated_Source\PSoC5/ISR.c **** #define CYINT_IRQ_BASE      16
  42:Generated_Source\PSoC5/ISR.c **** #endif /* CYINT_IRQ_BASE */
  43:Generated_Source\PSoC5/ISR.c **** #ifndef CYINT_VECT_TABLE
  44:Generated_Source\PSoC5/ISR.c **** #define CYINT_VECT_TABLE    ((cyisraddress **) CYREG_NVIC_VECT_OFFSET)
  45:Generated_Source\PSoC5/ISR.c **** #endif /* CYINT_VECT_TABLE */
  46:Generated_Source\PSoC5/ISR.c **** 
  47:Generated_Source\PSoC5/ISR.c **** /* Declared in startup, used to set unused interrupts to. */
  48:Generated_Source\PSoC5/ISR.c **** CY_ISR_PROTO(IntDefaultHandler);
  49:Generated_Source\PSoC5/ISR.c **** 
  50:Generated_Source\PSoC5/ISR.c **** 
  51:Generated_Source\PSoC5/ISR.c **** /*******************************************************************************
  52:Generated_Source\PSoC5/ISR.c **** * Function Name: ISR_Start
  53:Generated_Source\PSoC5/ISR.c **** ********************************************************************************
  54:Generated_Source\PSoC5/ISR.c **** *
  55:Generated_Source\PSoC5/ISR.c **** * Summary:
  56:Generated_Source\PSoC5/ISR.c **** *  Set up the interrupt and enable it. This function disables the interrupt, 
  57:Generated_Source\PSoC5/ISR.c **** *  sets the default interrupt vector, sets the priority from the value in the
  58:Generated_Source\PSoC5/ISR.c **** *  Design Wide Resources Interrupt Editor, then enables the interrupt to the 
  59:Generated_Source\PSoC5/ISR.c **** *  interrupt controller.
  60:Generated_Source\PSoC5/ISR.c **** *
  61:Generated_Source\PSoC5/ISR.c **** * Parameters:  
  62:Generated_Source\PSoC5/ISR.c **** *   None
  63:Generated_Source\PSoC5/ISR.c **** *
  64:Generated_Source\PSoC5/ISR.c **** * Return:
  65:Generated_Source\PSoC5/ISR.c **** *   None
  66:Generated_Source\PSoC5/ISR.c **** *
  67:Generated_Source\PSoC5/ISR.c **** *******************************************************************************/
  68:Generated_Source\PSoC5/ISR.c **** void ISR_Start(void)
  69:Generated_Source\PSoC5/ISR.c **** {
  70:Generated_Source\PSoC5/ISR.c ****     /* For all we know the interrupt is active. */
  71:Generated_Source\PSoC5/ISR.c ****     ISR_Disable();
  72:Generated_Source\PSoC5/ISR.c **** 
  73:Generated_Source\PSoC5/ISR.c ****     /* Set the ISR to point to the ISR Interrupt. */
  74:Generated_Source\PSoC5/ISR.c ****     ISR_SetVector(&ISR_Interrupt);
  75:Generated_Source\PSoC5/ISR.c **** 
  76:Generated_Source\PSoC5/ISR.c ****     /* Set the priority. */
  77:Generated_Source\PSoC5/ISR.c ****     ISR_SetPriority((uint8)ISR_INTC_PRIOR_NUMBER);
  78:Generated_Source\PSoC5/ISR.c **** 
  79:Generated_Source\PSoC5/ISR.c ****     /* Enable it. */
  80:Generated_Source\PSoC5/ISR.c ****     ISR_Enable();
  81:Generated_Source\PSoC5/ISR.c **** }
  82:Generated_Source\PSoC5/ISR.c **** 
  83:Generated_Source\PSoC5/ISR.c **** 
  84:Generated_Source\PSoC5/ISR.c **** /*******************************************************************************
  85:Generated_Source\PSoC5/ISR.c **** * Function Name: ISR_StartEx
  86:Generated_Source\PSoC5/ISR.c **** ********************************************************************************
  87:Generated_Source\PSoC5/ISR.c **** *
  88:Generated_Source\PSoC5/ISR.c **** * Summary:
ARM GAS  C:\Users\kopusov.FT\AppData\Local\Temp\ccoqKBbc.s 			page 3


  89:Generated_Source\PSoC5/ISR.c **** *  Sets up the interrupt and enables it. This function disables the interrupt,
  90:Generated_Source\PSoC5/ISR.c **** *  sets the interrupt vector based on the address passed in, sets the priority 
  91:Generated_Source\PSoC5/ISR.c **** *  from the value in the Design Wide Resources Interrupt Editor, then enables 
  92:Generated_Source\PSoC5/ISR.c **** *  the interrupt to the interrupt controller.
  93:Generated_Source\PSoC5/ISR.c **** *  
  94:Generated_Source\PSoC5/ISR.c **** *  When defining ISR functions, the CY_ISR and CY_ISR_PROTO macros should be 
  95:Generated_Source\PSoC5/ISR.c **** *  used to provide consistent definition across compilers:
  96:Generated_Source\PSoC5/ISR.c **** *  
  97:Generated_Source\PSoC5/ISR.c **** *  Function definition example:
  98:Generated_Source\PSoC5/ISR.c **** *   CY_ISR(MyISR)
  99:Generated_Source\PSoC5/ISR.c **** *   {
 100:Generated_Source\PSoC5/ISR.c **** *   }
 101:Generated_Source\PSoC5/ISR.c **** *   Function prototype example:
 102:Generated_Source\PSoC5/ISR.c **** *   CY_ISR_PROTO(MyISR);
 103:Generated_Source\PSoC5/ISR.c **** *
 104:Generated_Source\PSoC5/ISR.c **** * Parameters:  
 105:Generated_Source\PSoC5/ISR.c **** *   address: Address of the ISR to set in the interrupt vector table.
 106:Generated_Source\PSoC5/ISR.c **** *
 107:Generated_Source\PSoC5/ISR.c **** * Return:
 108:Generated_Source\PSoC5/ISR.c **** *   None
 109:Generated_Source\PSoC5/ISR.c **** *
 110:Generated_Source\PSoC5/ISR.c **** *******************************************************************************/
 111:Generated_Source\PSoC5/ISR.c **** void ISR_StartEx(cyisraddress address)
 112:Generated_Source\PSoC5/ISR.c **** {
 113:Generated_Source\PSoC5/ISR.c ****     /* For all we know the interrupt is active. */
 114:Generated_Source\PSoC5/ISR.c ****     ISR_Disable();
 115:Generated_Source\PSoC5/ISR.c **** 
 116:Generated_Source\PSoC5/ISR.c ****     /* Set the ISR to point to the ISR Interrupt. */
 117:Generated_Source\PSoC5/ISR.c ****     ISR_SetVector(address);
 118:Generated_Source\PSoC5/ISR.c **** 
 119:Generated_Source\PSoC5/ISR.c ****     /* Set the priority. */
 120:Generated_Source\PSoC5/ISR.c ****     ISR_SetPriority((uint8)ISR_INTC_PRIOR_NUMBER);
 121:Generated_Source\PSoC5/ISR.c **** 
 122:Generated_Source\PSoC5/ISR.c ****     /* Enable it. */
 123:Generated_Source\PSoC5/ISR.c ****     ISR_Enable();
 124:Generated_Source\PSoC5/ISR.c **** }
 125:Generated_Source\PSoC5/ISR.c **** 
 126:Generated_Source\PSoC5/ISR.c **** 
 127:Generated_Source\PSoC5/ISR.c **** /*******************************************************************************
 128:Generated_Source\PSoC5/ISR.c **** * Function Name: ISR_Stop
 129:Generated_Source\PSoC5/ISR.c **** ********************************************************************************
 130:Generated_Source\PSoC5/ISR.c **** *
 131:Generated_Source\PSoC5/ISR.c **** * Summary:
 132:Generated_Source\PSoC5/ISR.c **** *   Disables and removes the interrupt.
 133:Generated_Source\PSoC5/ISR.c **** *
 134:Generated_Source\PSoC5/ISR.c **** * Parameters:  
 135:Generated_Source\PSoC5/ISR.c **** *   None
 136:Generated_Source\PSoC5/ISR.c **** *
 137:Generated_Source\PSoC5/ISR.c **** * Return:
 138:Generated_Source\PSoC5/ISR.c **** *   None
 139:Generated_Source\PSoC5/ISR.c **** *
 140:Generated_Source\PSoC5/ISR.c **** *******************************************************************************/
 141:Generated_Source\PSoC5/ISR.c **** void ISR_Stop(void)
 142:Generated_Source\PSoC5/ISR.c **** {
 143:Generated_Source\PSoC5/ISR.c ****     /* Disable this interrupt. */
 144:Generated_Source\PSoC5/ISR.c ****     ISR_Disable();
 145:Generated_Source\PSoC5/ISR.c **** 
ARM GAS  C:\Users\kopusov.FT\AppData\Local\Temp\ccoqKBbc.s 			page 4


 146:Generated_Source\PSoC5/ISR.c ****     /* Set the ISR to point to the passive one. */
 147:Generated_Source\PSoC5/ISR.c ****     ISR_SetVector(&IntDefaultHandler);
 148:Generated_Source\PSoC5/ISR.c **** }
 149:Generated_Source\PSoC5/ISR.c **** 
 150:Generated_Source\PSoC5/ISR.c **** 
 151:Generated_Source\PSoC5/ISR.c **** /*******************************************************************************
 152:Generated_Source\PSoC5/ISR.c **** * Function Name: ISR_Interrupt
 153:Generated_Source\PSoC5/ISR.c **** ********************************************************************************
 154:Generated_Source\PSoC5/ISR.c **** *
 155:Generated_Source\PSoC5/ISR.c **** * Summary:
 156:Generated_Source\PSoC5/ISR.c **** *   The default Interrupt Service Routine for ISR.
 157:Generated_Source\PSoC5/ISR.c **** *
 158:Generated_Source\PSoC5/ISR.c **** *   Add custom code between the coments to keep the next version of this file
 159:Generated_Source\PSoC5/ISR.c **** *   from over writting your code.
 160:Generated_Source\PSoC5/ISR.c **** *
 161:Generated_Source\PSoC5/ISR.c **** * Parameters:  
 162:Generated_Source\PSoC5/ISR.c **** *
 163:Generated_Source\PSoC5/ISR.c **** * Return:
 164:Generated_Source\PSoC5/ISR.c **** *   None
 165:Generated_Source\PSoC5/ISR.c **** *
 166:Generated_Source\PSoC5/ISR.c **** *******************************************************************************/
 167:Generated_Source\PSoC5/ISR.c **** CY_ISR(ISR_Interrupt)
 168:Generated_Source\PSoC5/ISR.c **** {
  27              		.loc 1 168 0
  28              		.cfi_startproc
  29              		@ args = 0, pretend = 0, frame = 0
  30              		@ frame_needed = 0, uses_anonymous_args = 0
  31              		@ link register save eliminated.
 169:Generated_Source\PSoC5/ISR.c ****     #ifdef ISR_INTERRUPT_INTERRUPT_CALLBACK
 170:Generated_Source\PSoC5/ISR.c ****         ISR_Interrupt_InterruptCallback();
 171:Generated_Source\PSoC5/ISR.c ****     #endif /* ISR_INTERRUPT_INTERRUPT_CALLBACK */ 
 172:Generated_Source\PSoC5/ISR.c **** 
 173:Generated_Source\PSoC5/ISR.c ****     /*  Place your Interrupt code here. */
 174:Generated_Source\PSoC5/ISR.c ****     /* `#START ISR_Interrupt` */
 175:Generated_Source\PSoC5/ISR.c **** 
 176:Generated_Source\PSoC5/ISR.c ****     /* Get Data from FIFO f1 */
 177:Generated_Source\PSoC5/ISR.c **** //	MDIO_host_2_data_bits = CY_GET_REG16(MDIO_host_2_FIFO_F1_PTR);
 178:Generated_Source\PSoC5/ISR.c ****   //  LED_3_Write(1);
 179:Generated_Source\PSoC5/ISR.c ****     MDIO_host_2_StatusRegister |= 1;
  32              		.loc 1 179 0
  33 0000 024A     		ldr	r2, .L2
  34 0002 1378     		ldrb	r3, [r2]	@ zero_extendqisi2
  35 0004 43F00103 		orr	r3, r3, #1
  36 0008 1370     		strb	r3, [r2]
  37 000a 7047     		bx	lr
  38              	.L3:
  39              		.align	2
  40              	.L2:
  41 000c 00000000 		.word	MDIO_host_2_StatusRegister
  42              		.cfi_endproc
  43              	.LFE3:
  44              		.size	ISR_Interrupt, .-ISR_Interrupt
  45              		.section	.text.ISR_SetVector,"ax",%progbits
  46              		.align	2
  47              		.global	ISR_SetVector
  48              		.thumb
  49              		.thumb_func
ARM GAS  C:\Users\kopusov.FT\AppData\Local\Temp\ccoqKBbc.s 			page 5


  50              		.type	ISR_SetVector, %function
  51              	ISR_SetVector:
  52              	.LFB4:
 180:Generated_Source\PSoC5/ISR.c **** //	LED_3_Write(0);
 181:Generated_Source\PSoC5/ISR.c **** 	
 182:Generated_Source\PSoC5/ISR.c ****     
 183:Generated_Source\PSoC5/ISR.c ****     /* `#END` */
 184:Generated_Source\PSoC5/ISR.c **** }
 185:Generated_Source\PSoC5/ISR.c **** 
 186:Generated_Source\PSoC5/ISR.c **** 
 187:Generated_Source\PSoC5/ISR.c **** /*******************************************************************************
 188:Generated_Source\PSoC5/ISR.c **** * Function Name: ISR_SetVector
 189:Generated_Source\PSoC5/ISR.c **** ********************************************************************************
 190:Generated_Source\PSoC5/ISR.c **** *
 191:Generated_Source\PSoC5/ISR.c **** * Summary:
 192:Generated_Source\PSoC5/ISR.c **** *   Change the ISR vector for the Interrupt. Note calling ISR_Start
 193:Generated_Source\PSoC5/ISR.c **** *   will override any effect this method would have had. To set the vector 
 194:Generated_Source\PSoC5/ISR.c **** *   before the component has been started use ISR_StartEx instead.
 195:Generated_Source\PSoC5/ISR.c **** * 
 196:Generated_Source\PSoC5/ISR.c **** *   When defining ISR functions, the CY_ISR and CY_ISR_PROTO macros should be 
 197:Generated_Source\PSoC5/ISR.c **** *   used to provide consistent definition across compilers:
 198:Generated_Source\PSoC5/ISR.c **** *
 199:Generated_Source\PSoC5/ISR.c **** *   Function definition example:
 200:Generated_Source\PSoC5/ISR.c **** *   CY_ISR(MyISR)
 201:Generated_Source\PSoC5/ISR.c **** *   {
 202:Generated_Source\PSoC5/ISR.c **** *   }
 203:Generated_Source\PSoC5/ISR.c **** *
 204:Generated_Source\PSoC5/ISR.c **** *   Function prototype example:
 205:Generated_Source\PSoC5/ISR.c **** *     CY_ISR_PROTO(MyISR);
 206:Generated_Source\PSoC5/ISR.c **** *
 207:Generated_Source\PSoC5/ISR.c **** * Parameters:
 208:Generated_Source\PSoC5/ISR.c **** *   address: Address of the ISR to set in the interrupt vector table.
 209:Generated_Source\PSoC5/ISR.c **** *
 210:Generated_Source\PSoC5/ISR.c **** * Return:
 211:Generated_Source\PSoC5/ISR.c **** *   None
 212:Generated_Source\PSoC5/ISR.c **** *
 213:Generated_Source\PSoC5/ISR.c **** *******************************************************************************/
 214:Generated_Source\PSoC5/ISR.c **** void ISR_SetVector(cyisraddress address)
 215:Generated_Source\PSoC5/ISR.c **** {
  53              		.loc 1 215 0
  54              		.cfi_startproc
  55              		@ args = 0, pretend = 0, frame = 0
  56              		@ frame_needed = 0, uses_anonymous_args = 0
  57              		@ link register save eliminated.
  58              	.LVL0:
 216:Generated_Source\PSoC5/ISR.c ****     cyisraddress * ramVectorTable;
 217:Generated_Source\PSoC5/ISR.c **** 
 218:Generated_Source\PSoC5/ISR.c ****     ramVectorTable = (cyisraddress *) *CYINT_VECT_TABLE;
  59              		.loc 1 218 0
  60 0000 014B     		ldr	r3, .L5
  61 0002 1B68     		ldr	r3, [r3]
  62              	.LVL1:
 219:Generated_Source\PSoC5/ISR.c **** 
 220:Generated_Source\PSoC5/ISR.c ****     ramVectorTable[CYINT_IRQ_BASE + (uint32)ISR__INTC_NUMBER] = address;
  63              		.loc 1 220 0
  64 0004 1864     		str	r0, [r3, #64]
  65 0006 7047     		bx	lr
ARM GAS  C:\Users\kopusov.FT\AppData\Local\Temp\ccoqKBbc.s 			page 6


  66              	.L6:
  67              		.align	2
  68              	.L5:
  69 0008 08ED00E0 		.word	-536810232
  70              		.cfi_endproc
  71              	.LFE4:
  72              		.size	ISR_SetVector, .-ISR_SetVector
  73              		.section	.text.ISR_GetVector,"ax",%progbits
  74              		.align	2
  75              		.global	ISR_GetVector
  76              		.thumb
  77              		.thumb_func
  78              		.type	ISR_GetVector, %function
  79              	ISR_GetVector:
  80              	.LFB5:
 221:Generated_Source\PSoC5/ISR.c **** }
 222:Generated_Source\PSoC5/ISR.c **** 
 223:Generated_Source\PSoC5/ISR.c **** 
 224:Generated_Source\PSoC5/ISR.c **** /*******************************************************************************
 225:Generated_Source\PSoC5/ISR.c **** * Function Name: ISR_GetVector
 226:Generated_Source\PSoC5/ISR.c **** ********************************************************************************
 227:Generated_Source\PSoC5/ISR.c **** *
 228:Generated_Source\PSoC5/ISR.c **** * Summary:
 229:Generated_Source\PSoC5/ISR.c **** *   Gets the "address" of the current ISR vector for the Interrupt.
 230:Generated_Source\PSoC5/ISR.c **** *
 231:Generated_Source\PSoC5/ISR.c **** * Parameters:
 232:Generated_Source\PSoC5/ISR.c **** *   None
 233:Generated_Source\PSoC5/ISR.c **** *
 234:Generated_Source\PSoC5/ISR.c **** * Return:
 235:Generated_Source\PSoC5/ISR.c **** *   Address of the ISR in the interrupt vector table.
 236:Generated_Source\PSoC5/ISR.c **** *
 237:Generated_Source\PSoC5/ISR.c **** *******************************************************************************/
 238:Generated_Source\PSoC5/ISR.c **** cyisraddress ISR_GetVector(void)
 239:Generated_Source\PSoC5/ISR.c **** {
  81              		.loc 1 239 0
  82              		.cfi_startproc
  83              		@ args = 0, pretend = 0, frame = 0
  84              		@ frame_needed = 0, uses_anonymous_args = 0
  85              		@ link register save eliminated.
 240:Generated_Source\PSoC5/ISR.c ****     cyisraddress * ramVectorTable;
 241:Generated_Source\PSoC5/ISR.c **** 
 242:Generated_Source\PSoC5/ISR.c ****     ramVectorTable = (cyisraddress *) *CYINT_VECT_TABLE;
  86              		.loc 1 242 0
  87 0000 014B     		ldr	r3, .L8
  88 0002 1B68     		ldr	r3, [r3]
  89              	.LVL2:
 243:Generated_Source\PSoC5/ISR.c **** 
 244:Generated_Source\PSoC5/ISR.c ****     return ramVectorTable[CYINT_IRQ_BASE + (uint32)ISR__INTC_NUMBER];
 245:Generated_Source\PSoC5/ISR.c **** }
  90              		.loc 1 245 0
  91 0004 186C     		ldr	r0, [r3, #64]
  92 0006 7047     		bx	lr
  93              	.L9:
  94              		.align	2
  95              	.L8:
  96 0008 08ED00E0 		.word	-536810232
  97              		.cfi_endproc
ARM GAS  C:\Users\kopusov.FT\AppData\Local\Temp\ccoqKBbc.s 			page 7


  98              	.LFE5:
  99              		.size	ISR_GetVector, .-ISR_GetVector
 100              		.section	.text.ISR_SetPriority,"ax",%progbits
 101              		.align	2
 102              		.global	ISR_SetPriority
 103              		.thumb
 104              		.thumb_func
 105              		.type	ISR_SetPriority, %function
 106              	ISR_SetPriority:
 107              	.LFB6:
 246:Generated_Source\PSoC5/ISR.c **** 
 247:Generated_Source\PSoC5/ISR.c **** 
 248:Generated_Source\PSoC5/ISR.c **** /*******************************************************************************
 249:Generated_Source\PSoC5/ISR.c **** * Function Name: ISR_SetPriority
 250:Generated_Source\PSoC5/ISR.c **** ********************************************************************************
 251:Generated_Source\PSoC5/ISR.c **** *
 252:Generated_Source\PSoC5/ISR.c **** * Summary:
 253:Generated_Source\PSoC5/ISR.c **** *   Sets the Priority of the Interrupt. 
 254:Generated_Source\PSoC5/ISR.c **** *
 255:Generated_Source\PSoC5/ISR.c **** *   Note calling ISR_Start or ISR_StartEx will 
 256:Generated_Source\PSoC5/ISR.c **** *   override any effect this API would have had. This API should only be called
 257:Generated_Source\PSoC5/ISR.c **** *   after ISR_Start or ISR_StartEx has been called. 
 258:Generated_Source\PSoC5/ISR.c **** *   To set the initial priority for the component, use the Design-Wide Resources
 259:Generated_Source\PSoC5/ISR.c **** *   Interrupt Editor.
 260:Generated_Source\PSoC5/ISR.c **** *
 261:Generated_Source\PSoC5/ISR.c **** *   Note This API has no effect on Non-maskable interrupt NMI).
 262:Generated_Source\PSoC5/ISR.c **** *
 263:Generated_Source\PSoC5/ISR.c **** * Parameters:
 264:Generated_Source\PSoC5/ISR.c **** *   priority: Priority of the interrupt, 0 being the highest priority
 265:Generated_Source\PSoC5/ISR.c **** *             PSoC 3 and PSoC 5LP: Priority is from 0 to 7.
 266:Generated_Source\PSoC5/ISR.c **** *             PSoC 4: Priority is from 0 to 3.
 267:Generated_Source\PSoC5/ISR.c **** *
 268:Generated_Source\PSoC5/ISR.c **** * Return:
 269:Generated_Source\PSoC5/ISR.c **** *   None
 270:Generated_Source\PSoC5/ISR.c **** *
 271:Generated_Source\PSoC5/ISR.c **** *******************************************************************************/
 272:Generated_Source\PSoC5/ISR.c **** void ISR_SetPriority(uint8 priority)
 273:Generated_Source\PSoC5/ISR.c **** {
 108              		.loc 1 273 0
 109              		.cfi_startproc
 110              		@ args = 0, pretend = 0, frame = 0
 111              		@ frame_needed = 0, uses_anonymous_args = 0
 112              		@ link register save eliminated.
 113              	.LVL3:
 274:Generated_Source\PSoC5/ISR.c ****     *ISR_INTC_PRIOR = priority << 5;
 114              		.loc 1 274 0
 115 0000 4001     		lsls	r0, r0, #5
 116              	.LVL4:
 117 0002 C0B2     		uxtb	r0, r0
 118 0004 014B     		ldr	r3, .L11
 119 0006 1870     		strb	r0, [r3]
 120 0008 7047     		bx	lr
 121              	.L12:
 122 000a 00BF     		.align	2
 123              	.L11:
 124 000c 00E400E0 		.word	-536812544
 125              		.cfi_endproc
ARM GAS  C:\Users\kopusov.FT\AppData\Local\Temp\ccoqKBbc.s 			page 8


 126              	.LFE6:
 127              		.size	ISR_SetPriority, .-ISR_SetPriority
 128              		.section	.text.ISR_GetPriority,"ax",%progbits
 129              		.align	2
 130              		.global	ISR_GetPriority
 131              		.thumb
 132              		.thumb_func
 133              		.type	ISR_GetPriority, %function
 134              	ISR_GetPriority:
 135              	.LFB7:
 275:Generated_Source\PSoC5/ISR.c **** }
 276:Generated_Source\PSoC5/ISR.c **** 
 277:Generated_Source\PSoC5/ISR.c **** 
 278:Generated_Source\PSoC5/ISR.c **** /*******************************************************************************
 279:Generated_Source\PSoC5/ISR.c **** * Function Name: ISR_GetPriority
 280:Generated_Source\PSoC5/ISR.c **** ********************************************************************************
 281:Generated_Source\PSoC5/ISR.c **** *
 282:Generated_Source\PSoC5/ISR.c **** * Summary:
 283:Generated_Source\PSoC5/ISR.c **** *   Gets the Priority of the Interrupt.
 284:Generated_Source\PSoC5/ISR.c **** *
 285:Generated_Source\PSoC5/ISR.c **** * Parameters:
 286:Generated_Source\PSoC5/ISR.c **** *   None
 287:Generated_Source\PSoC5/ISR.c **** *
 288:Generated_Source\PSoC5/ISR.c **** * Return:
 289:Generated_Source\PSoC5/ISR.c **** *   Priority of the interrupt, 0 being the highest priority
 290:Generated_Source\PSoC5/ISR.c **** *    PSoC 3 and PSoC 5LP: Priority is from 0 to 7.
 291:Generated_Source\PSoC5/ISR.c **** *    PSoC 4: Priority is from 0 to 3.
 292:Generated_Source\PSoC5/ISR.c **** *
 293:Generated_Source\PSoC5/ISR.c **** *******************************************************************************/
 294:Generated_Source\PSoC5/ISR.c **** uint8 ISR_GetPriority(void)
 295:Generated_Source\PSoC5/ISR.c **** {
 136              		.loc 1 295 0
 137              		.cfi_startproc
 138              		@ args = 0, pretend = 0, frame = 0
 139              		@ frame_needed = 0, uses_anonymous_args = 0
 140              		@ link register save eliminated.
 296:Generated_Source\PSoC5/ISR.c ****     uint8 priority;
 297:Generated_Source\PSoC5/ISR.c **** 
 298:Generated_Source\PSoC5/ISR.c **** 
 299:Generated_Source\PSoC5/ISR.c ****     priority = *ISR_INTC_PRIOR >> 5;
 141              		.loc 1 299 0
 142 0000 014B     		ldr	r3, .L14
 143 0002 1878     		ldrb	r0, [r3]	@ zero_extendqisi2
 144              	.LVL5:
 300:Generated_Source\PSoC5/ISR.c **** 
 301:Generated_Source\PSoC5/ISR.c ****     return priority;
 302:Generated_Source\PSoC5/ISR.c **** }
 145              		.loc 1 302 0
 146 0004 4009     		lsrs	r0, r0, #5
 147              	.LVL6:
 148 0006 7047     		bx	lr
 149              	.L15:
 150              		.align	2
 151              	.L14:
 152 0008 00E400E0 		.word	-536812544
 153              		.cfi_endproc
 154              	.LFE7:
ARM GAS  C:\Users\kopusov.FT\AppData\Local\Temp\ccoqKBbc.s 			page 9


 155              		.size	ISR_GetPriority, .-ISR_GetPriority
 156              		.section	.text.ISR_Enable,"ax",%progbits
 157              		.align	2
 158              		.global	ISR_Enable
 159              		.thumb
 160              		.thumb_func
 161              		.type	ISR_Enable, %function
 162              	ISR_Enable:
 163              	.LFB8:
 303:Generated_Source\PSoC5/ISR.c **** 
 304:Generated_Source\PSoC5/ISR.c **** 
 305:Generated_Source\PSoC5/ISR.c **** /*******************************************************************************
 306:Generated_Source\PSoC5/ISR.c **** * Function Name: ISR_Enable
 307:Generated_Source\PSoC5/ISR.c **** ********************************************************************************
 308:Generated_Source\PSoC5/ISR.c **** *
 309:Generated_Source\PSoC5/ISR.c **** * Summary:
 310:Generated_Source\PSoC5/ISR.c **** *   Enables the interrupt to the interrupt controller. Do not call this function
 311:Generated_Source\PSoC5/ISR.c **** *   unless ISR_Start() has been called or the functionality of the ISR_Start() 
 312:Generated_Source\PSoC5/ISR.c **** *   function, which sets the vector and the priority, has been called.
 313:Generated_Source\PSoC5/ISR.c **** *
 314:Generated_Source\PSoC5/ISR.c **** * Parameters:
 315:Generated_Source\PSoC5/ISR.c **** *   None
 316:Generated_Source\PSoC5/ISR.c **** *
 317:Generated_Source\PSoC5/ISR.c **** * Return:
 318:Generated_Source\PSoC5/ISR.c **** *   None
 319:Generated_Source\PSoC5/ISR.c **** *
 320:Generated_Source\PSoC5/ISR.c **** *******************************************************************************/
 321:Generated_Source\PSoC5/ISR.c **** void ISR_Enable(void)
 322:Generated_Source\PSoC5/ISR.c **** {
 164              		.loc 1 322 0
 165              		.cfi_startproc
 166              		@ args = 0, pretend = 0, frame = 0
 167              		@ frame_needed = 0, uses_anonymous_args = 0
 168              		@ link register save eliminated.
 323:Generated_Source\PSoC5/ISR.c ****     /* Enable the general interrupt. */
 324:Generated_Source\PSoC5/ISR.c ****     *ISR_INTC_SET_EN = ISR__INTC_MASK;
 169              		.loc 1 324 0
 170 0000 0122     		movs	r2, #1
 171 0002 014B     		ldr	r3, .L17
 172 0004 1A60     		str	r2, [r3]
 173 0006 7047     		bx	lr
 174              	.L18:
 175              		.align	2
 176              	.L17:
 177 0008 00E100E0 		.word	-536813312
 178              		.cfi_endproc
 179              	.LFE8:
 180              		.size	ISR_Enable, .-ISR_Enable
 181              		.section	.text.ISR_GetState,"ax",%progbits
 182              		.align	2
 183              		.global	ISR_GetState
 184              		.thumb
 185              		.thumb_func
 186              		.type	ISR_GetState, %function
 187              	ISR_GetState:
 188              	.LFB9:
 325:Generated_Source\PSoC5/ISR.c **** }
ARM GAS  C:\Users\kopusov.FT\AppData\Local\Temp\ccoqKBbc.s 			page 10


 326:Generated_Source\PSoC5/ISR.c **** 
 327:Generated_Source\PSoC5/ISR.c **** 
 328:Generated_Source\PSoC5/ISR.c **** /*******************************************************************************
 329:Generated_Source\PSoC5/ISR.c **** * Function Name: ISR_GetState
 330:Generated_Source\PSoC5/ISR.c **** ********************************************************************************
 331:Generated_Source\PSoC5/ISR.c **** *
 332:Generated_Source\PSoC5/ISR.c **** * Summary:
 333:Generated_Source\PSoC5/ISR.c **** *   Gets the state (enabled, disabled) of the Interrupt.
 334:Generated_Source\PSoC5/ISR.c **** *
 335:Generated_Source\PSoC5/ISR.c **** * Parameters:
 336:Generated_Source\PSoC5/ISR.c **** *   None
 337:Generated_Source\PSoC5/ISR.c **** *
 338:Generated_Source\PSoC5/ISR.c **** * Return:
 339:Generated_Source\PSoC5/ISR.c **** *   1 if enabled, 0 if disabled.
 340:Generated_Source\PSoC5/ISR.c **** *
 341:Generated_Source\PSoC5/ISR.c **** *******************************************************************************/
 342:Generated_Source\PSoC5/ISR.c **** uint8 ISR_GetState(void)
 343:Generated_Source\PSoC5/ISR.c **** {
 189              		.loc 1 343 0
 190              		.cfi_startproc
 191              		@ args = 0, pretend = 0, frame = 0
 192              		@ frame_needed = 0, uses_anonymous_args = 0
 193              		@ link register save eliminated.
 344:Generated_Source\PSoC5/ISR.c ****     /* Get the state of the general interrupt. */
 345:Generated_Source\PSoC5/ISR.c ****     return ((*ISR_INTC_SET_EN & (uint32)ISR__INTC_MASK) != 0u) ? 1u:0u;
 194              		.loc 1 345 0
 195 0000 024B     		ldr	r3, .L20
 196 0002 1868     		ldr	r0, [r3]
 346:Generated_Source\PSoC5/ISR.c **** }
 197              		.loc 1 346 0
 198 0004 00F00100 		and	r0, r0, #1
 199 0008 7047     		bx	lr
 200              	.L21:
 201 000a 00BF     		.align	2
 202              	.L20:
 203 000c 00E100E0 		.word	-536813312
 204              		.cfi_endproc
 205              	.LFE9:
 206              		.size	ISR_GetState, .-ISR_GetState
 207              		.section	.text.ISR_Disable,"ax",%progbits
 208              		.align	2
 209              		.global	ISR_Disable
 210              		.thumb
 211              		.thumb_func
 212              		.type	ISR_Disable, %function
 213              	ISR_Disable:
 214              	.LFB10:
 347:Generated_Source\PSoC5/ISR.c **** 
 348:Generated_Source\PSoC5/ISR.c **** 
 349:Generated_Source\PSoC5/ISR.c **** /*******************************************************************************
 350:Generated_Source\PSoC5/ISR.c **** * Function Name: ISR_Disable
 351:Generated_Source\PSoC5/ISR.c **** ********************************************************************************
 352:Generated_Source\PSoC5/ISR.c **** *
 353:Generated_Source\PSoC5/ISR.c **** * Summary:
 354:Generated_Source\PSoC5/ISR.c **** *   Disables the Interrupt in the interrupt controller.
 355:Generated_Source\PSoC5/ISR.c **** *
 356:Generated_Source\PSoC5/ISR.c **** * Parameters:
ARM GAS  C:\Users\kopusov.FT\AppData\Local\Temp\ccoqKBbc.s 			page 11


 357:Generated_Source\PSoC5/ISR.c **** *   None
 358:Generated_Source\PSoC5/ISR.c **** *
 359:Generated_Source\PSoC5/ISR.c **** * Return:
 360:Generated_Source\PSoC5/ISR.c **** *   None
 361:Generated_Source\PSoC5/ISR.c **** *
 362:Generated_Source\PSoC5/ISR.c **** *******************************************************************************/
 363:Generated_Source\PSoC5/ISR.c **** void ISR_Disable(void)
 364:Generated_Source\PSoC5/ISR.c **** {
 215              		.loc 1 364 0
 216              		.cfi_startproc
 217              		@ args = 0, pretend = 0, frame = 0
 218              		@ frame_needed = 0, uses_anonymous_args = 0
 219              		@ link register save eliminated.
 365:Generated_Source\PSoC5/ISR.c ****     /* Disable the general interrupt. */
 366:Generated_Source\PSoC5/ISR.c ****     *ISR_INTC_CLR_EN = ISR__INTC_MASK;
 220              		.loc 1 366 0
 221 0000 0122     		movs	r2, #1
 222 0002 014B     		ldr	r3, .L23
 223 0004 1A60     		str	r2, [r3]
 224 0006 7047     		bx	lr
 225              	.L24:
 226              		.align	2
 227              	.L23:
 228 0008 80E100E0 		.word	-536813184
 229              		.cfi_endproc
 230              	.LFE10:
 231              		.size	ISR_Disable, .-ISR_Disable
 232              		.section	.text.ISR_Start,"ax",%progbits
 233              		.align	2
 234              		.global	ISR_Start
 235              		.thumb
 236              		.thumb_func
 237              		.type	ISR_Start, %function
 238              	ISR_Start:
 239              	.LFB0:
  69:Generated_Source\PSoC5/ISR.c ****     /* For all we know the interrupt is active. */
 240              		.loc 1 69 0
 241              		.cfi_startproc
 242              		@ args = 0, pretend = 0, frame = 0
 243              		@ frame_needed = 0, uses_anonymous_args = 0
 244 0000 08B5     		push	{r3, lr}
 245              		.cfi_def_cfa_offset 8
 246              		.cfi_offset 3, -8
 247              		.cfi_offset 14, -4
  71:Generated_Source\PSoC5/ISR.c **** 
 248              		.loc 1 71 0
 249 0002 FFF7FEFF 		bl	ISR_Disable
 250              	.LVL7:
  74:Generated_Source\PSoC5/ISR.c **** 
 251              		.loc 1 74 0
 252 0006 0448     		ldr	r0, .L27
 253 0008 FFF7FEFF 		bl	ISR_SetVector
 254              	.LVL8:
  77:Generated_Source\PSoC5/ISR.c **** 
 255              		.loc 1 77 0
 256 000c 0720     		movs	r0, #7
 257 000e FFF7FEFF 		bl	ISR_SetPriority
ARM GAS  C:\Users\kopusov.FT\AppData\Local\Temp\ccoqKBbc.s 			page 12


 258              	.LVL9:
  80:Generated_Source\PSoC5/ISR.c **** }
 259              		.loc 1 80 0
 260 0012 FFF7FEFF 		bl	ISR_Enable
 261              	.LVL10:
 262 0016 08BD     		pop	{r3, pc}
 263              	.L28:
 264              		.align	2
 265              	.L27:
 266 0018 00000000 		.word	ISR_Interrupt
 267              		.cfi_endproc
 268              	.LFE0:
 269              		.size	ISR_Start, .-ISR_Start
 270              		.section	.text.ISR_StartEx,"ax",%progbits
 271              		.align	2
 272              		.global	ISR_StartEx
 273              		.thumb
 274              		.thumb_func
 275              		.type	ISR_StartEx, %function
 276              	ISR_StartEx:
 277              	.LFB1:
 112:Generated_Source\PSoC5/ISR.c ****     /* For all we know the interrupt is active. */
 278              		.loc 1 112 0
 279              		.cfi_startproc
 280              		@ args = 0, pretend = 0, frame = 0
 281              		@ frame_needed = 0, uses_anonymous_args = 0
 282              	.LVL11:
 283 0000 10B5     		push	{r4, lr}
 284              		.cfi_def_cfa_offset 8
 285              		.cfi_offset 4, -8
 286              		.cfi_offset 14, -4
 287 0002 0446     		mov	r4, r0
 114:Generated_Source\PSoC5/ISR.c **** 
 288              		.loc 1 114 0
 289 0004 FFF7FEFF 		bl	ISR_Disable
 290              	.LVL12:
 117:Generated_Source\PSoC5/ISR.c **** 
 291              		.loc 1 117 0
 292 0008 2046     		mov	r0, r4
 293 000a FFF7FEFF 		bl	ISR_SetVector
 294              	.LVL13:
 120:Generated_Source\PSoC5/ISR.c **** 
 295              		.loc 1 120 0
 296 000e 0720     		movs	r0, #7
 297 0010 FFF7FEFF 		bl	ISR_SetPriority
 298              	.LVL14:
 123:Generated_Source\PSoC5/ISR.c **** }
 299              		.loc 1 123 0
 300 0014 FFF7FEFF 		bl	ISR_Enable
 301              	.LVL15:
 302 0018 10BD     		pop	{r4, pc}
 303              		.cfi_endproc
 304              	.LFE1:
 305              		.size	ISR_StartEx, .-ISR_StartEx
 306 001a 00BF     		.section	.text.ISR_Stop,"ax",%progbits
 307              		.align	2
 308              		.global	ISR_Stop
ARM GAS  C:\Users\kopusov.FT\AppData\Local\Temp\ccoqKBbc.s 			page 13


 309              		.thumb
 310              		.thumb_func
 311              		.type	ISR_Stop, %function
 312              	ISR_Stop:
 313              	.LFB2:
 142:Generated_Source\PSoC5/ISR.c ****     /* Disable this interrupt. */
 314              		.loc 1 142 0
 315              		.cfi_startproc
 316              		@ args = 0, pretend = 0, frame = 0
 317              		@ frame_needed = 0, uses_anonymous_args = 0
 318 0000 08B5     		push	{r3, lr}
 319              		.cfi_def_cfa_offset 8
 320              		.cfi_offset 3, -8
 321              		.cfi_offset 14, -4
 144:Generated_Source\PSoC5/ISR.c **** 
 322              		.loc 1 144 0
 323 0002 FFF7FEFF 		bl	ISR_Disable
 324              	.LVL16:
 147:Generated_Source\PSoC5/ISR.c **** }
 325              		.loc 1 147 0
 326 0006 0248     		ldr	r0, .L33
 327 0008 FFF7FEFF 		bl	ISR_SetVector
 328              	.LVL17:
 329 000c 08BD     		pop	{r3, pc}
 330              	.L34:
 331 000e 00BF     		.align	2
 332              	.L33:
 333 0010 00000000 		.word	IntDefaultHandler
 334              		.cfi_endproc
 335              	.LFE2:
 336              		.size	ISR_Stop, .-ISR_Stop
 337              		.section	.text.ISR_SetPending,"ax",%progbits
 338              		.align	2
 339              		.global	ISR_SetPending
 340              		.thumb
 341              		.thumb_func
 342              		.type	ISR_SetPending, %function
 343              	ISR_SetPending:
 344              	.LFB11:
 367:Generated_Source\PSoC5/ISR.c **** }
 368:Generated_Source\PSoC5/ISR.c **** 
 369:Generated_Source\PSoC5/ISR.c **** 
 370:Generated_Source\PSoC5/ISR.c **** /*******************************************************************************
 371:Generated_Source\PSoC5/ISR.c **** * Function Name: ISR_SetPending
 372:Generated_Source\PSoC5/ISR.c **** ********************************************************************************
 373:Generated_Source\PSoC5/ISR.c **** *
 374:Generated_Source\PSoC5/ISR.c **** * Summary:
 375:Generated_Source\PSoC5/ISR.c **** *   Causes the Interrupt to enter the pending state, a software method of
 376:Generated_Source\PSoC5/ISR.c **** *   generating the interrupt.
 377:Generated_Source\PSoC5/ISR.c **** *
 378:Generated_Source\PSoC5/ISR.c **** * Parameters:
 379:Generated_Source\PSoC5/ISR.c **** *   None
 380:Generated_Source\PSoC5/ISR.c **** *
 381:Generated_Source\PSoC5/ISR.c **** * Return:
 382:Generated_Source\PSoC5/ISR.c **** *   None
 383:Generated_Source\PSoC5/ISR.c **** *
 384:Generated_Source\PSoC5/ISR.c **** * Side Effects:
ARM GAS  C:\Users\kopusov.FT\AppData\Local\Temp\ccoqKBbc.s 			page 14


 385:Generated_Source\PSoC5/ISR.c **** *   If interrupts are enabled and the interrupt is set up properly, the ISR is
 386:Generated_Source\PSoC5/ISR.c **** *   entered (depending on the priority of this interrupt and other pending 
 387:Generated_Source\PSoC5/ISR.c **** *   interrupts).
 388:Generated_Source\PSoC5/ISR.c **** *
 389:Generated_Source\PSoC5/ISR.c **** *******************************************************************************/
 390:Generated_Source\PSoC5/ISR.c **** void ISR_SetPending(void)
 391:Generated_Source\PSoC5/ISR.c **** {
 345              		.loc 1 391 0
 346              		.cfi_startproc
 347              		@ args = 0, pretend = 0, frame = 0
 348              		@ frame_needed = 0, uses_anonymous_args = 0
 349              		@ link register save eliminated.
 392:Generated_Source\PSoC5/ISR.c ****     *ISR_INTC_SET_PD = ISR__INTC_MASK;
 350              		.loc 1 392 0
 351 0000 0122     		movs	r2, #1
 352 0002 014B     		ldr	r3, .L36
 353 0004 1A60     		str	r2, [r3]
 354 0006 7047     		bx	lr
 355              	.L37:
 356              		.align	2
 357              	.L36:
 358 0008 00E200E0 		.word	-536813056
 359              		.cfi_endproc
 360              	.LFE11:
 361              		.size	ISR_SetPending, .-ISR_SetPending
 362              		.section	.text.ISR_ClearPending,"ax",%progbits
 363              		.align	2
 364              		.global	ISR_ClearPending
 365              		.thumb
 366              		.thumb_func
 367              		.type	ISR_ClearPending, %function
 368              	ISR_ClearPending:
 369              	.LFB12:
 393:Generated_Source\PSoC5/ISR.c **** }
 394:Generated_Source\PSoC5/ISR.c **** 
 395:Generated_Source\PSoC5/ISR.c **** 
 396:Generated_Source\PSoC5/ISR.c **** /*******************************************************************************
 397:Generated_Source\PSoC5/ISR.c **** * Function Name: ISR_ClearPending
 398:Generated_Source\PSoC5/ISR.c **** ********************************************************************************
 399:Generated_Source\PSoC5/ISR.c **** *
 400:Generated_Source\PSoC5/ISR.c **** * Summary:
 401:Generated_Source\PSoC5/ISR.c **** *   Clears a pending interrupt in the interrupt controller.
 402:Generated_Source\PSoC5/ISR.c **** *
 403:Generated_Source\PSoC5/ISR.c **** *   Note Some interrupt sources are clear-on-read and require the block 
 404:Generated_Source\PSoC5/ISR.c **** *   interrupt/status register to be read/cleared with the appropriate block API 
 405:Generated_Source\PSoC5/ISR.c **** *   (GPIO, UART, and so on). Otherwise the ISR will continue to remain in 
 406:Generated_Source\PSoC5/ISR.c **** *   pending state even though the interrupt itself is cleared using this API.
 407:Generated_Source\PSoC5/ISR.c **** *
 408:Generated_Source\PSoC5/ISR.c **** * Parameters:
 409:Generated_Source\PSoC5/ISR.c **** *   None
 410:Generated_Source\PSoC5/ISR.c **** *
 411:Generated_Source\PSoC5/ISR.c **** * Return:
 412:Generated_Source\PSoC5/ISR.c **** *   None
 413:Generated_Source\PSoC5/ISR.c **** *
 414:Generated_Source\PSoC5/ISR.c **** *******************************************************************************/
 415:Generated_Source\PSoC5/ISR.c **** void ISR_ClearPending(void)
 416:Generated_Source\PSoC5/ISR.c **** {
ARM GAS  C:\Users\kopusov.FT\AppData\Local\Temp\ccoqKBbc.s 			page 15


 370              		.loc 1 416 0
 371              		.cfi_startproc
 372              		@ args = 0, pretend = 0, frame = 0
 373              		@ frame_needed = 0, uses_anonymous_args = 0
 374              		@ link register save eliminated.
 417:Generated_Source\PSoC5/ISR.c ****     *ISR_INTC_CLR_PD = ISR__INTC_MASK;
 375              		.loc 1 417 0
 376 0000 0122     		movs	r2, #1
 377 0002 014B     		ldr	r3, .L39
 378 0004 1A60     		str	r2, [r3]
 379 0006 7047     		bx	lr
 380              	.L40:
 381              		.align	2
 382              	.L39:
 383 0008 80E200E0 		.word	-536812928
 384              		.cfi_endproc
 385              	.LFE12:
 386              		.size	ISR_ClearPending, .-ISR_ClearPending
 387              		.text
 388              	.Letext0:
 389              		.file 2 "Generated_Source\\PSoC5/cytypes.h"