ARM GAS  C:\Users\kopusov.FT\AppData\Local\Temp\cczw5fdt.s 			page 1


   1              		.syntax unified
   2              		.cpu cortex-m3
   3              		.fpu softvfp
   4              		.eabi_attribute 20, 1
   5              		.eabi_attribute 21, 1
   6              		.eabi_attribute 23, 3
   7              		.eabi_attribute 24, 1
   8              		.eabi_attribute 25, 1
   9              		.eabi_attribute 26, 1
  10              		.eabi_attribute 30, 1
  11              		.eabi_attribute 34, 1
  12              		.eabi_attribute 18, 4
  13              		.thumb
  14              		.file	"MDIO_Interface_PM.c"
  15              		.text
  16              	.Ltext0:
  17              		.cfi_sections	.debug_frame
  18              		.section	.text.MDIO_Interface_SaveConfig,"ax",%progbits
  19              		.align	2
  20              		.global	MDIO_Interface_SaveConfig
  21              		.thumb
  22              		.thumb_func
  23              		.type	MDIO_Interface_SaveConfig, %function
  24              	MDIO_Interface_SaveConfig:
  25              	.LFB0:
  26              		.file 1 "Generated_Source\\PSoC5\\MDIO_Interface_PM.c"
   1:Generated_Source\PSoC5/MDIO_Interface_PM.c **** /*******************************************************************************
   2:Generated_Source\PSoC5/MDIO_Interface_PM.c **** * File Name: MDIO_Interface_PM.c
   3:Generated_Source\PSoC5/MDIO_Interface_PM.c **** * Version 1.20
   4:Generated_Source\PSoC5/MDIO_Interface_PM.c **** *
   5:Generated_Source\PSoC5/MDIO_Interface_PM.c **** * Description:
   6:Generated_Source\PSoC5/MDIO_Interface_PM.c **** *  This file contains the setup, control and status commands to support
   7:Generated_Source\PSoC5/MDIO_Interface_PM.c **** *  component operations in low power mode.
   8:Generated_Source\PSoC5/MDIO_Interface_PM.c **** *
   9:Generated_Source\PSoC5/MDIO_Interface_PM.c **** * Note:
  10:Generated_Source\PSoC5/MDIO_Interface_PM.c **** *
  11:Generated_Source\PSoC5/MDIO_Interface_PM.c **** ********************************************************************************
  12:Generated_Source\PSoC5/MDIO_Interface_PM.c **** * Copyright 2013-2014, Cypress Semiconductor Corporation.  All rights reserved.
  13:Generated_Source\PSoC5/MDIO_Interface_PM.c **** * You may use this file only in accordance with the license, terms, conditions,
  14:Generated_Source\PSoC5/MDIO_Interface_PM.c **** * disclaimers, and limitations in the end user license agreement accompanying
  15:Generated_Source\PSoC5/MDIO_Interface_PM.c **** * the software package with which this file was provided.
  16:Generated_Source\PSoC5/MDIO_Interface_PM.c **** *******************************************************************************/
  17:Generated_Source\PSoC5/MDIO_Interface_PM.c **** 
  18:Generated_Source\PSoC5/MDIO_Interface_PM.c **** #include "MDIO_Interface.h"
  19:Generated_Source\PSoC5/MDIO_Interface_PM.c **** 
  20:Generated_Source\PSoC5/MDIO_Interface_PM.c **** #if(MDIO_Interface_ADVANCED_MODE)
  21:Generated_Source\PSoC5/MDIO_Interface_PM.c ****     #include "MDIO_Interface_REG.h"
  22:Generated_Source\PSoC5/MDIO_Interface_PM.c **** #endif /* MDIO_Interface_ADVANCED_MODE */
  23:Generated_Source\PSoC5/MDIO_Interface_PM.c **** 
  24:Generated_Source\PSoC5/MDIO_Interface_PM.c **** static MDIO_Interface_BACKUP_STRUCT MDIO_Interface_backup =
  25:Generated_Source\PSoC5/MDIO_Interface_PM.c **** {
  26:Generated_Source\PSoC5/MDIO_Interface_PM.c ****     /* By default the component and interrupts are disabled */
  27:Generated_Source\PSoC5/MDIO_Interface_PM.c ****     MDIO_Interface_DISABLED,
  28:Generated_Source\PSoC5/MDIO_Interface_PM.c ****     MDIO_Interface_DISABLED
  29:Generated_Source\PSoC5/MDIO_Interface_PM.c **** };
  30:Generated_Source\PSoC5/MDIO_Interface_PM.c **** 
  31:Generated_Source\PSoC5/MDIO_Interface_PM.c **** 
ARM GAS  C:\Users\kopusov.FT\AppData\Local\Temp\cczw5fdt.s 			page 2


  32:Generated_Source\PSoC5/MDIO_Interface_PM.c **** /*******************************************************************************
  33:Generated_Source\PSoC5/MDIO_Interface_PM.c **** * Function Name: MDIO_Interface_SaveConfig
  34:Generated_Source\PSoC5/MDIO_Interface_PM.c **** ********************************************************************************
  35:Generated_Source\PSoC5/MDIO_Interface_PM.c **** *
  36:Generated_Source\PSoC5/MDIO_Interface_PM.c **** * Summary:
  37:Generated_Source\PSoC5/MDIO_Interface_PM.c **** *  Saves MDIO_Interface configuration.
  38:Generated_Source\PSoC5/MDIO_Interface_PM.c **** *
  39:Generated_Source\PSoC5/MDIO_Interface_PM.c **** * Parameters:
  40:Generated_Source\PSoC5/MDIO_Interface_PM.c **** *  None.
  41:Generated_Source\PSoC5/MDIO_Interface_PM.c **** *
  42:Generated_Source\PSoC5/MDIO_Interface_PM.c **** * Return:
  43:Generated_Source\PSoC5/MDIO_Interface_PM.c **** *  None.
  44:Generated_Source\PSoC5/MDIO_Interface_PM.c **** *
  45:Generated_Source\PSoC5/MDIO_Interface_PM.c **** * Global Variables:
  46:Generated_Source\PSoC5/MDIO_Interface_PM.c **** *  MDIO_Interface_backup - modified when non-retention registers are saved.
  47:Generated_Source\PSoC5/MDIO_Interface_PM.c **** *
  48:Generated_Source\PSoC5/MDIO_Interface_PM.c **** * Reentrant:
  49:Generated_Source\PSoC5/MDIO_Interface_PM.c **** *  No.
  50:Generated_Source\PSoC5/MDIO_Interface_PM.c **** *
  51:Generated_Source\PSoC5/MDIO_Interface_PM.c **** *******************************************************************************/
  52:Generated_Source\PSoC5/MDIO_Interface_PM.c **** void MDIO_Interface_SaveConfig(void) 
  53:Generated_Source\PSoC5/MDIO_Interface_PM.c **** {
  27              		.loc 1 53 0
  28              		.cfi_startproc
  29              		@ args = 0, pretend = 0, frame = 0
  30              		@ frame_needed = 0, uses_anonymous_args = 0
  31              		@ link register save eliminated.
  54:Generated_Source\PSoC5/MDIO_Interface_PM.c ****     MDIO_Interface_backup.interruptState = MDIO_Interface_CONTROL_REG & MDIO_Interface_INT_EN;
  32              		.loc 1 54 0
  33 0000 034B     		ldr	r3, .L2
  34 0002 1B78     		ldrb	r3, [r3]	@ zero_extendqisi2
  35 0004 03F00203 		and	r3, r3, #2
  36 0008 024A     		ldr	r2, .L2+4
  37 000a 5370     		strb	r3, [r2, #1]
  38 000c 7047     		bx	lr
  39              	.L3:
  40 000e 00BF     		.align	2
  41              	.L2:
  42 0010 7B650040 		.word	1073767803
  43 0014 00000000 		.word	.LANCHOR0
  44              		.cfi_endproc
  45              	.LFE0:
  46              		.size	MDIO_Interface_SaveConfig, .-MDIO_Interface_SaveConfig
  47              		.section	.text.MDIO_Interface_RestoreConfig,"ax",%progbits
  48              		.align	2
  49              		.global	MDIO_Interface_RestoreConfig
  50              		.thumb
  51              		.thumb_func
  52              		.type	MDIO_Interface_RestoreConfig, %function
  53              	MDIO_Interface_RestoreConfig:
  54              	.LFB1:
  55:Generated_Source\PSoC5/MDIO_Interface_PM.c **** }
  56:Generated_Source\PSoC5/MDIO_Interface_PM.c **** 
  57:Generated_Source\PSoC5/MDIO_Interface_PM.c **** 
  58:Generated_Source\PSoC5/MDIO_Interface_PM.c **** /*******************************************************************************
  59:Generated_Source\PSoC5/MDIO_Interface_PM.c **** * Function Name: MDIO_Interface_RestoreConfig
  60:Generated_Source\PSoC5/MDIO_Interface_PM.c **** ********************************************************************************
ARM GAS  C:\Users\kopusov.FT\AppData\Local\Temp\cczw5fdt.s 			page 3


  61:Generated_Source\PSoC5/MDIO_Interface_PM.c **** *
  62:Generated_Source\PSoC5/MDIO_Interface_PM.c **** * Summary:
  63:Generated_Source\PSoC5/MDIO_Interface_PM.c **** *  Restores MDIO_Interface configuration.
  64:Generated_Source\PSoC5/MDIO_Interface_PM.c **** *
  65:Generated_Source\PSoC5/MDIO_Interface_PM.c **** * Parameters:
  66:Generated_Source\PSoC5/MDIO_Interface_PM.c **** *  None.
  67:Generated_Source\PSoC5/MDIO_Interface_PM.c **** *
  68:Generated_Source\PSoC5/MDIO_Interface_PM.c **** * Return:
  69:Generated_Source\PSoC5/MDIO_Interface_PM.c **** *  None.
  70:Generated_Source\PSoC5/MDIO_Interface_PM.c **** *
  71:Generated_Source\PSoC5/MDIO_Interface_PM.c **** * Global Variables:
  72:Generated_Source\PSoC5/MDIO_Interface_PM.c **** *  MDIO_Interface_backup - used when non-retention registers are restored.
  73:Generated_Source\PSoC5/MDIO_Interface_PM.c **** *
  74:Generated_Source\PSoC5/MDIO_Interface_PM.c **** * Reentrant:
  75:Generated_Source\PSoC5/MDIO_Interface_PM.c **** *  No.
  76:Generated_Source\PSoC5/MDIO_Interface_PM.c **** *
  77:Generated_Source\PSoC5/MDIO_Interface_PM.c **** *******************************************************************************/
  78:Generated_Source\PSoC5/MDIO_Interface_PM.c **** void MDIO_Interface_RestoreConfig(void) 
  79:Generated_Source\PSoC5/MDIO_Interface_PM.c **** {
  55              		.loc 1 79 0
  56              		.cfi_startproc
  57              		@ args = 0, pretend = 0, frame = 0
  58              		@ frame_needed = 0, uses_anonymous_args = 0
  59              		@ link register save eliminated.
  80:Generated_Source\PSoC5/MDIO_Interface_PM.c ****     #if(MDIO_Interface_ADVANCED_MODE)
  81:Generated_Source\PSoC5/MDIO_Interface_PM.c ****         /* Set memory type of each register page */
  82:Generated_Source\PSoC5/MDIO_Interface_PM.c ****         MDIO_Interface_MEM_TYPE_REG   = MDIO_Interface_PAGE_MEM_TYPE;
  60              		.loc 1 82 0
  61 0000 3F23     		movs	r3, #63
  62 0002 044A     		ldr	r2, .L5
  63 0004 1370     		strb	r3, [r2]
  83:Generated_Source\PSoC5/MDIO_Interface_PM.c ****         /* Set data width of each register page */
  84:Generated_Source\PSoC5/MDIO_Interface_PM.c ****         MDIO_Interface_PAGE_WIDTH_REG = MDIO_Interface_PAGE_DATA_WIDTH;
  64              		.loc 1 84 0
  65 0006 0132     		adds	r2, r2, #1
  66 0008 1370     		strb	r3, [r2]
  85:Generated_Source\PSoC5/MDIO_Interface_PM.c ****     #endif /* MDIO_Interface_ADVANCED_MODE */
  86:Generated_Source\PSoC5/MDIO_Interface_PM.c **** 
  87:Generated_Source\PSoC5/MDIO_Interface_PM.c ****     /* Restore interrupt state */
  88:Generated_Source\PSoC5/MDIO_Interface_PM.c ****     MDIO_Interface_CONTROL_REG = MDIO_Interface_backup.interruptState;
  67              		.loc 1 88 0
  68 000a 034B     		ldr	r3, .L5+4
  69 000c 5A78     		ldrb	r2, [r3, #1]	@ zero_extendqisi2
  70 000e 034B     		ldr	r3, .L5+8
  71 0010 1A70     		strb	r2, [r3]
  72 0012 7047     		bx	lr
  73              	.L6:
  74              		.align	2
  75              	.L5:
  76 0014 79640040 		.word	1073767545
  77 0018 00000000 		.word	.LANCHOR0
  78 001c 7B650040 		.word	1073767803
  79              		.cfi_endproc
  80              	.LFE1:
  81              		.size	MDIO_Interface_RestoreConfig, .-MDIO_Interface_RestoreConfig
  82              		.section	.text.MDIO_Interface_Sleep,"ax",%progbits
  83              		.align	2
ARM GAS  C:\Users\kopusov.FT\AppData\Local\Temp\cczw5fdt.s 			page 4


  84              		.global	MDIO_Interface_Sleep
  85              		.thumb
  86              		.thumb_func
  87              		.type	MDIO_Interface_Sleep, %function
  88              	MDIO_Interface_Sleep:
  89              	.LFB2:
  89:Generated_Source\PSoC5/MDIO_Interface_PM.c **** }
  90:Generated_Source\PSoC5/MDIO_Interface_PM.c **** 
  91:Generated_Source\PSoC5/MDIO_Interface_PM.c **** 
  92:Generated_Source\PSoC5/MDIO_Interface_PM.c **** /*******************************************************************************
  93:Generated_Source\PSoC5/MDIO_Interface_PM.c **** * Function Name: MDIO_Interface_Sleep
  94:Generated_Source\PSoC5/MDIO_Interface_PM.c **** ********************************************************************************
  95:Generated_Source\PSoC5/MDIO_Interface_PM.c **** *
  96:Generated_Source\PSoC5/MDIO_Interface_PM.c **** * Summary:
  97:Generated_Source\PSoC5/MDIO_Interface_PM.c **** *  Disables block's operation and saves its configuration. Should be called
  98:Generated_Source\PSoC5/MDIO_Interface_PM.c **** *  prior to entering low power mode.
  99:Generated_Source\PSoC5/MDIO_Interface_PM.c **** *
 100:Generated_Source\PSoC5/MDIO_Interface_PM.c **** * Parameters:
 101:Generated_Source\PSoC5/MDIO_Interface_PM.c **** *  None.
 102:Generated_Source\PSoC5/MDIO_Interface_PM.c **** *
 103:Generated_Source\PSoC5/MDIO_Interface_PM.c **** * Return:
 104:Generated_Source\PSoC5/MDIO_Interface_PM.c **** *  None.
 105:Generated_Source\PSoC5/MDIO_Interface_PM.c **** *
 106:Generated_Source\PSoC5/MDIO_Interface_PM.c **** * Global Variables:
 107:Generated_Source\PSoC5/MDIO_Interface_PM.c **** *  MDIO_Interface_backup - modified when non-retention registers are saved.
 108:Generated_Source\PSoC5/MDIO_Interface_PM.c **** *
 109:Generated_Source\PSoC5/MDIO_Interface_PM.c **** * Reentrant:
 110:Generated_Source\PSoC5/MDIO_Interface_PM.c **** *  No.
 111:Generated_Source\PSoC5/MDIO_Interface_PM.c **** *
 112:Generated_Source\PSoC5/MDIO_Interface_PM.c **** *******************************************************************************/
 113:Generated_Source\PSoC5/MDIO_Interface_PM.c **** void MDIO_Interface_Sleep(void) 
 114:Generated_Source\PSoC5/MDIO_Interface_PM.c **** {
  90              		.loc 1 114 0
  91              		.cfi_startproc
  92              		@ args = 0, pretend = 0, frame = 0
  93              		@ frame_needed = 0, uses_anonymous_args = 0
  94 0000 08B5     		push	{r3, lr}
  95              		.cfi_def_cfa_offset 8
  96              		.cfi_offset 3, -8
  97              		.cfi_offset 14, -4
 115:Generated_Source\PSoC5/MDIO_Interface_PM.c ****     if(MDIO_Interface_DISABLED != (MDIO_Interface_CONTROL_REG & MDIO_Interface_EN))
  98              		.loc 1 115 0
  99 0002 084B     		ldr	r3, .L11
 100 0004 1B78     		ldrb	r3, [r3]	@ zero_extendqisi2
 101 0006 13F0010F 		tst	r3, #1
 102 000a 03D0     		beq	.L8
 116:Generated_Source\PSoC5/MDIO_Interface_PM.c ****     {
 117:Generated_Source\PSoC5/MDIO_Interface_PM.c ****         MDIO_Interface_backup.enableState = MDIO_Interface_ENABLED;
 103              		.loc 1 117 0
 104 000c 0122     		movs	r2, #1
 105 000e 064B     		ldr	r3, .L11+4
 106 0010 1A70     		strb	r2, [r3]
 107 0012 02E0     		b	.L9
 108              	.L8:
 118:Generated_Source\PSoC5/MDIO_Interface_PM.c ****     }
 119:Generated_Source\PSoC5/MDIO_Interface_PM.c ****     else /* Component is disabled */
 120:Generated_Source\PSoC5/MDIO_Interface_PM.c ****     {
ARM GAS  C:\Users\kopusov.FT\AppData\Local\Temp\cczw5fdt.s 			page 5


 121:Generated_Source\PSoC5/MDIO_Interface_PM.c ****         MDIO_Interface_backup.enableState = MDIO_Interface_DISABLED;
 109              		.loc 1 121 0
 110 0014 0022     		movs	r2, #0
 111 0016 044B     		ldr	r3, .L11+4
 112 0018 1A70     		strb	r2, [r3]
 113              	.L9:
 122:Generated_Source\PSoC5/MDIO_Interface_PM.c ****     }
 123:Generated_Source\PSoC5/MDIO_Interface_PM.c **** 
 124:Generated_Source\PSoC5/MDIO_Interface_PM.c ****     /* Save registers configuration */
 125:Generated_Source\PSoC5/MDIO_Interface_PM.c ****     MDIO_Interface_SaveConfig();
 114              		.loc 1 125 0
 115 001a FFF7FEFF 		bl	MDIO_Interface_SaveConfig
 116              	.LVL0:
 126:Generated_Source\PSoC5/MDIO_Interface_PM.c **** 
 127:Generated_Source\PSoC5/MDIO_Interface_PM.c ****     /* Stop component */
 128:Generated_Source\PSoC5/MDIO_Interface_PM.c ****     MDIO_Interface_Stop();
 117              		.loc 1 128 0
 118 001e FFF7FEFF 		bl	MDIO_Interface_Stop
 119              	.LVL1:
 120 0022 08BD     		pop	{r3, pc}
 121              	.L12:
 122              		.align	2
 123              	.L11:
 124 0024 7B650040 		.word	1073767803
 125 0028 00000000 		.word	.LANCHOR0
 126              		.cfi_endproc
 127              	.LFE2:
 128              		.size	MDIO_Interface_Sleep, .-MDIO_Interface_Sleep
 129              		.section	.text.MDIO_Interface_Wakeup,"ax",%progbits
 130              		.align	2
 131              		.global	MDIO_Interface_Wakeup
 132              		.thumb
 133              		.thumb_func
 134              		.type	MDIO_Interface_Wakeup, %function
 135              	MDIO_Interface_Wakeup:
 136              	.LFB3:
 129:Generated_Source\PSoC5/MDIO_Interface_PM.c **** }
 130:Generated_Source\PSoC5/MDIO_Interface_PM.c **** 
 131:Generated_Source\PSoC5/MDIO_Interface_PM.c **** 
 132:Generated_Source\PSoC5/MDIO_Interface_PM.c **** /*******************************************************************************
 133:Generated_Source\PSoC5/MDIO_Interface_PM.c **** * Function Name: MDIO_Interface_Wakeup
 134:Generated_Source\PSoC5/MDIO_Interface_PM.c **** ********************************************************************************
 135:Generated_Source\PSoC5/MDIO_Interface_PM.c **** *
 136:Generated_Source\PSoC5/MDIO_Interface_PM.c **** * Summary:
 137:Generated_Source\PSoC5/MDIO_Interface_PM.c **** *  Enables block's operation and restores its configuration. Should be called
 138:Generated_Source\PSoC5/MDIO_Interface_PM.c **** *  after awaking from low power mode.
 139:Generated_Source\PSoC5/MDIO_Interface_PM.c **** *
 140:Generated_Source\PSoC5/MDIO_Interface_PM.c **** * Parameters:
 141:Generated_Source\PSoC5/MDIO_Interface_PM.c **** *  None.
 142:Generated_Source\PSoC5/MDIO_Interface_PM.c **** *
 143:Generated_Source\PSoC5/MDIO_Interface_PM.c **** * Return:
 144:Generated_Source\PSoC5/MDIO_Interface_PM.c **** *  None.
 145:Generated_Source\PSoC5/MDIO_Interface_PM.c **** *
 146:Generated_Source\PSoC5/MDIO_Interface_PM.c **** * Global Variables:
 147:Generated_Source\PSoC5/MDIO_Interface_PM.c **** *  MDIO_Interface_backup - used when non-retention registers are restored.
 148:Generated_Source\PSoC5/MDIO_Interface_PM.c **** *
 149:Generated_Source\PSoC5/MDIO_Interface_PM.c **** * Reentrant:
ARM GAS  C:\Users\kopusov.FT\AppData\Local\Temp\cczw5fdt.s 			page 6


 150:Generated_Source\PSoC5/MDIO_Interface_PM.c **** *  No.
 151:Generated_Source\PSoC5/MDIO_Interface_PM.c **** *
 152:Generated_Source\PSoC5/MDIO_Interface_PM.c **** *******************************************************************************/
 153:Generated_Source\PSoC5/MDIO_Interface_PM.c **** void MDIO_Interface_Wakeup(void)  
 154:Generated_Source\PSoC5/MDIO_Interface_PM.c **** {
 137              		.loc 1 154 0
 138              		.cfi_startproc
 139              		@ args = 0, pretend = 0, frame = 0
 140              		@ frame_needed = 0, uses_anonymous_args = 0
 141 0000 08B5     		push	{r3, lr}
 142              		.cfi_def_cfa_offset 8
 143              		.cfi_offset 3, -8
 144              		.cfi_offset 14, -4
 155:Generated_Source\PSoC5/MDIO_Interface_PM.c ****     /* Restore registers values */
 156:Generated_Source\PSoC5/MDIO_Interface_PM.c ****     MDIO_Interface_RestoreConfig();
 145              		.loc 1 156 0
 146 0002 FFF7FEFF 		bl	MDIO_Interface_RestoreConfig
 147              	.LVL2:
 157:Generated_Source\PSoC5/MDIO_Interface_PM.c **** 
 158:Generated_Source\PSoC5/MDIO_Interface_PM.c ****     if(MDIO_Interface_DISABLED != MDIO_Interface_backup.enableState)
 148              		.loc 1 158 0
 149 0006 034B     		ldr	r3, .L16
 150 0008 1B78     		ldrb	r3, [r3]	@ zero_extendqisi2
 151 000a 0BB1     		cbz	r3, .L13
 159:Generated_Source\PSoC5/MDIO_Interface_PM.c ****     {
 160:Generated_Source\PSoC5/MDIO_Interface_PM.c ****         /* Enable component's operation */
 161:Generated_Source\PSoC5/MDIO_Interface_PM.c ****         MDIO_Interface_Enable();
 152              		.loc 1 161 0
 153 000c FFF7FEFF 		bl	MDIO_Interface_Enable
 154              	.LVL3:
 155              	.L13:
 156 0010 08BD     		pop	{r3, pc}
 157              	.L17:
 158 0012 00BF     		.align	2
 159              	.L16:
 160 0014 00000000 		.word	.LANCHOR0
 161              		.cfi_endproc
 162              	.LFE3:
 163              		.size	MDIO_Interface_Wakeup, .-MDIO_Interface_Wakeup
 164              		.bss
 165              		.align	2
 166              		.set	.LANCHOR0,. + 0
 167              		.type	MDIO_Interface_backup, %object
 168              		.size	MDIO_Interface_backup, 2
 169              	MDIO_Interface_backup:
 170 0000 0000     		.space	2
 171 0002 0000     		.text
 172              	.Letext0:
 173              		.file 2 "Generated_Source\\PSoC5\\cytypes.h"
 174              		.file 3 "Generated_Source\\PSoC5\\MDIO_Interface.h"