ARM GAS  C:\Users\kopusov.FT\AppData\Local\Temp\ccIFSmHb.s 			page 1


   1              		.syntax unified
   2              		.cpu cortex-m3
   3              		.fpu softvfp
   4              		.eabi_attribute 20, 1
   5              		.eabi_attribute 21, 1
   6              		.eabi_attribute 23, 3
   7              		.eabi_attribute 24, 1
   8              		.eabi_attribute 25, 1
   9              		.eabi_attribute 26, 1
  10              		.eabi_attribute 30, 1
  11              		.eabi_attribute 34, 1
  12              		.eabi_attribute 18, 4
  13              		.thumb
  14              		.file	"MDIO_Host_1.c"
  15              		.text
  16              	.Ltext0:
  17              		.cfi_sections	.debug_frame
  18              		.section	.text.MDIO_Host_1_Enable,"ax",%progbits
  19              		.align	2
  20              		.global	MDIO_Host_1_Enable
  21              		.thumb
  22              		.thumb_func
  23              		.type	MDIO_Host_1_Enable, %function
  24              	MDIO_Host_1_Enable:
  25              	.LFB66:
  26              		.file 1 "Generated_Source\\PSoC5\\MDIO_Host_1.c"
   1:Generated_Source\PSoC5/MDIO_Host_1.c **** /* ==============================================
   2:Generated_Source\PSoC5/MDIO_Host_1.c ****  *
   3:Generated_Source\PSoC5/MDIO_Host_1.c ****  * Copyright Cypress Semiconductor, 2010
   4:Generated_Source\PSoC5/MDIO_Host_1.c ****  * All Rights Reserved
   5:Generated_Source\PSoC5/MDIO_Host_1.c ****  * UNPUBLISHED, LICENSED SOFTWARE.
   6:Generated_Source\PSoC5/MDIO_Host_1.c ****  *
   7:Generated_Source\PSoC5/MDIO_Host_1.c ****  * CONFIDENTIAL AND PROPRIETARY INFORMATION
   8:Generated_Source\PSoC5/MDIO_Host_1.c ****  * WHICH IS THE PROPERTY OF CYPRESS SEMICONDUCTOR
   9:Generated_Source\PSoC5/MDIO_Host_1.c ****  *
  10:Generated_Source\PSoC5/MDIO_Host_1.c ****  * ==============================================
  11:Generated_Source\PSoC5/MDIO_Host_1.c **** */
  12:Generated_Source\PSoC5/MDIO_Host_1.c **** //#include <device.h>
  13:Generated_Source\PSoC5/MDIO_Host_1.c **** #include <project.h>
  14:Generated_Source\PSoC5/MDIO_Host_1.c **** #include "cytypes.h"
  15:Generated_Source\PSoC5/MDIO_Host_1.c **** #include "cyfitter.h"
  16:Generated_Source\PSoC5/MDIO_Host_1.c **** #include "cypins.h"
  17:Generated_Source\PSoC5/MDIO_Host_1.c **** #include "MDIO_Host_1.h"
  18:Generated_Source\PSoC5/MDIO_Host_1.c **** 
  19:Generated_Source\PSoC5/MDIO_Host_1.c **** /*******************************************************************************
  20:Generated_Source\PSoC5/MDIO_Host_1.c **** * Variables
  21:Generated_Source\PSoC5/MDIO_Host_1.c **** ********************************************************************************/
  22:Generated_Source\PSoC5/MDIO_Host_1.c **** uint8						MDIO_Host_1_initVar = 0u;
  23:Generated_Source\PSoC5/MDIO_Host_1.c **** 
  24:Generated_Source\PSoC5/MDIO_Host_1.c **** /* Data received MDIO Host */
  25:Generated_Source\PSoC5/MDIO_Host_1.c **** extern volatile uint16 MDIO_Host_1_data_bits;	 
  26:Generated_Source\PSoC5/MDIO_Host_1.c **** 
  27:Generated_Source\PSoC5/MDIO_Host_1.c **** /* Internal Status Register */
  28:Generated_Source\PSoC5/MDIO_Host_1.c **** extern volatile uint8  MDIO_Host_1_StatusRegister;
  29:Generated_Source\PSoC5/MDIO_Host_1.c **** 
  30:Generated_Source\PSoC5/MDIO_Host_1.c **** /*******************************************************************************
  31:Generated_Source\PSoC5/MDIO_Host_1.c **** * Function Name: MDIO_Host_1_Start
ARM GAS  C:\Users\kopusov.FT\AppData\Local\Temp\ccIFSmHb.s 			page 2


  32:Generated_Source\PSoC5/MDIO_Host_1.c **** ********************************************************************************
  33:Generated_Source\PSoC5/MDIO_Host_1.c **** * Summary:
  34:Generated_Source\PSoC5/MDIO_Host_1.c **** *  Initializes the MDIO Host component.
  35:Generated_Source\PSoC5/MDIO_Host_1.c **** * 
  36:Generated_Source\PSoC5/MDIO_Host_1.c **** * Parameters:
  37:Generated_Source\PSoC5/MDIO_Host_1.c **** *  None
  38:Generated_Source\PSoC5/MDIO_Host_1.c **** *
  39:Generated_Source\PSoC5/MDIO_Host_1.c **** * Return:
  40:Generated_Source\PSoC5/MDIO_Host_1.c **** *  None
  41:Generated_Source\PSoC5/MDIO_Host_1.c **** * 
  42:Generated_Source\PSoC5/MDIO_Host_1.c **** * Side Effects:
  43:Generated_Source\PSoC5/MDIO_Host_1.c **** *
  44:Generated_Source\PSoC5/MDIO_Host_1.c **** ********************************************************************************/
  45:Generated_Source\PSoC5/MDIO_Host_1.c **** void MDIO_Host_1_Start(void)
  46:Generated_Source\PSoC5/MDIO_Host_1.c **** { 
  47:Generated_Source\PSoC5/MDIO_Host_1.c ****     /* If not already initialized, then initialize hardware and software */
  48:Generated_Source\PSoC5/MDIO_Host_1.c ****     if(MDIO_Host_1_initVar == 0u)
  49:Generated_Source\PSoC5/MDIO_Host_1.c ****     {
  50:Generated_Source\PSoC5/MDIO_Host_1.c ****         MDIO_Host_1_Init();
  51:Generated_Source\PSoC5/MDIO_Host_1.c ****         MDIO_Host_1_initVar = 1u;
  52:Generated_Source\PSoC5/MDIO_Host_1.c ****     }
  53:Generated_Source\PSoC5/MDIO_Host_1.c ****     MDIO_Host_1_Enable();
  54:Generated_Source\PSoC5/MDIO_Host_1.c **** }
  55:Generated_Source\PSoC5/MDIO_Host_1.c **** 
  56:Generated_Source\PSoC5/MDIO_Host_1.c **** /*******************************************************************************
  57:Generated_Source\PSoC5/MDIO_Host_1.c **** * Function Name: MDIO_Host_1_Stop
  58:Generated_Source\PSoC5/MDIO_Host_1.c **** ********************************************************************************
  59:Generated_Source\PSoC5/MDIO_Host_1.c **** * Summary:
  60:Generated_Source\PSoC5/MDIO_Host_1.c **** *  Disable the MDIO Host component and the internal interrupt
  61:Generated_Source\PSoC5/MDIO_Host_1.c **** * 
  62:Generated_Source\PSoC5/MDIO_Host_1.c **** * Parameters:
  63:Generated_Source\PSoC5/MDIO_Host_1.c **** *  None
  64:Generated_Source\PSoC5/MDIO_Host_1.c **** * 
  65:Generated_Source\PSoC5/MDIO_Host_1.c **** * Return:
  66:Generated_Source\PSoC5/MDIO_Host_1.c **** *  None
  67:Generated_Source\PSoC5/MDIO_Host_1.c **** * 
  68:Generated_Source\PSoC5/MDIO_Host_1.c **** * Side Effects:
  69:Generated_Source\PSoC5/MDIO_Host_1.c **** *  
  70:Generated_Source\PSoC5/MDIO_Host_1.c **** ********************************************************************************/
  71:Generated_Source\PSoC5/MDIO_Host_1.c **** void MDIO_Host_1_Stop(void)
  72:Generated_Source\PSoC5/MDIO_Host_1.c **** {
  73:Generated_Source\PSoC5/MDIO_Host_1.c **** 	/* Disable the hardware component */
  74:Generated_Source\PSoC5/MDIO_Host_1.c ****     MDIO_Host_1_CONTROL_REG = 0u;	// Set Enable and Valid bits to zero
  75:Generated_Source\PSoC5/MDIO_Host_1.c **** 	
  76:Generated_Source\PSoC5/MDIO_Host_1.c **** 	/* Disable Count7 hardware block */
  77:Generated_Source\PSoC5/MDIO_Host_1.c ****     MDIO_Host_1_CNT7_AUX_CTL_REG &= ~MDIO_Host_1_COUNT7_EN;
  78:Generated_Source\PSoC5/MDIO_Host_1.c **** 	
  79:Generated_Source\PSoC5/MDIO_Host_1.c **** 	/* Disable Interrupt */
  80:Generated_Source\PSoC5/MDIO_Host_1.c **** 	MDIO_Host_1_DisableInt();
  81:Generated_Source\PSoC5/MDIO_Host_1.c **** }
  82:Generated_Source\PSoC5/MDIO_Host_1.c **** 
  83:Generated_Source\PSoC5/MDIO_Host_1.c **** /*******************************************************************************
  84:Generated_Source\PSoC5/MDIO_Host_1.c **** * Function Name: MDIO_Host_1_Init
  85:Generated_Source\PSoC5/MDIO_Host_1.c **** ********************************************************************************
  86:Generated_Source\PSoC5/MDIO_Host_1.c **** * Summary:
  87:Generated_Source\PSoC5/MDIO_Host_1.c **** *  Initializes internal variables and resets the datapath FIFO.
  88:Generated_Source\PSoC5/MDIO_Host_1.c **** * 
ARM GAS  C:\Users\kopusov.FT\AppData\Local\Temp\ccIFSmHb.s 			page 3


  89:Generated_Source\PSoC5/MDIO_Host_1.c **** * Parameters:
  90:Generated_Source\PSoC5/MDIO_Host_1.c **** *  None
  91:Generated_Source\PSoC5/MDIO_Host_1.c **** *
  92:Generated_Source\PSoC5/MDIO_Host_1.c **** * Return:
  93:Generated_Source\PSoC5/MDIO_Host_1.c **** *  None
  94:Generated_Source\PSoC5/MDIO_Host_1.c **** * 
  95:Generated_Source\PSoC5/MDIO_Host_1.c **** * Side Effects:
  96:Generated_Source\PSoC5/MDIO_Host_1.c **** *  
  97:Generated_Source\PSoC5/MDIO_Host_1.c **** ********************************************************************************/
  98:Generated_Source\PSoC5/MDIO_Host_1.c **** void MDIO_Host_1_Init(void)
  99:Generated_Source\PSoC5/MDIO_Host_1.c **** { 	
 100:Generated_Source\PSoC5/MDIO_Host_1.c ****     /* Initialize the UDB control register */
 101:Generated_Source\PSoC5/MDIO_Host_1.c ****     MDIO_Host_1_CONTROL_REG = 0u;
 102:Generated_Source\PSoC5/MDIO_Host_1.c **** 	
 103:Generated_Source\PSoC5/MDIO_Host_1.c **** 	/* Reset Internal FIFOs */
 104:Generated_Source\PSoC5/MDIO_Host_1.c **** 	MDIO_Host_1_ClearInternalFIFOs();
 105:Generated_Source\PSoC5/MDIO_Host_1.c **** 
 106:Generated_Source\PSoC5/MDIO_Host_1.c ****     /* Initialize interrupts */
 107:Generated_Source\PSoC5/MDIO_Host_1.c **** 	MDIO_Host_1_EnableInt();
 108:Generated_Source\PSoC5/MDIO_Host_1.c **** }
 109:Generated_Source\PSoC5/MDIO_Host_1.c **** 
 110:Generated_Source\PSoC5/MDIO_Host_1.c **** /*******************************************************************************
 111:Generated_Source\PSoC5/MDIO_Host_1.c **** * Function Name: MDIO_Host_1_Enable()
 112:Generated_Source\PSoC5/MDIO_Host_1.c **** ********************************************************************************
 113:Generated_Source\PSoC5/MDIO_Host_1.c **** * Summary:
 114:Generated_Source\PSoC5/MDIO_Host_1.c **** *  Enables the hardware and internal interrupt.
 115:Generated_Source\PSoC5/MDIO_Host_1.c **** * 
 116:Generated_Source\PSoC5/MDIO_Host_1.c **** * Parameters:
 117:Generated_Source\PSoC5/MDIO_Host_1.c **** *  None
 118:Generated_Source\PSoC5/MDIO_Host_1.c **** *
 119:Generated_Source\PSoC5/MDIO_Host_1.c **** * Return:
 120:Generated_Source\PSoC5/MDIO_Host_1.c **** *  None
 121:Generated_Source\PSoC5/MDIO_Host_1.c **** * 
 122:Generated_Source\PSoC5/MDIO_Host_1.c **** * Side Effects:
 123:Generated_Source\PSoC5/MDIO_Host_1.c **** *  None
 124:Generated_Source\PSoC5/MDIO_Host_1.c **** ********************************************************************************/
 125:Generated_Source\PSoC5/MDIO_Host_1.c **** void MDIO_Host_1_Enable(void) 
 126:Generated_Source\PSoC5/MDIO_Host_1.c **** {
  27              		.loc 1 126 0
  28              		.cfi_startproc
  29              		@ args = 0, pretend = 0, frame = 0
  30              		@ frame_needed = 0, uses_anonymous_args = 0
  31              		@ link register save eliminated.
 127:Generated_Source\PSoC5/MDIO_Host_1.c **** 	/* Enable Count7 hardware block */
 128:Generated_Source\PSoC5/MDIO_Host_1.c ****     MDIO_Host_1_CNT7_AUX_CTL_REG |= MDIO_Host_1_COUNT7_EN;
  32              		.loc 1 128 0
  33 0000 064A     		ldr	r2, .L2
  34 0002 1378     		ldrb	r3, [r2]	@ zero_extendqisi2
  35 0004 43F02003 		orr	r3, r3, #32
  36 0008 1370     		strb	r3, [r2]
 129:Generated_Source\PSoC5/MDIO_Host_1.c **** 
 130:Generated_Source\PSoC5/MDIO_Host_1.c **** 	/* Enable the block */
 131:Generated_Source\PSoC5/MDIO_Host_1.c ****     MDIO_Host_1_CONTROL_REG |= MDIO_Host_1_ENABLE;
  37              		.loc 1 131 0
  38 000a 1F3A     		subs	r2, r2, #31
  39 000c 1378     		ldrb	r3, [r2]	@ zero_extendqisi2
  40 000e 43F00103 		orr	r3, r3, #1
ARM GAS  C:\Users\kopusov.FT\AppData\Local\Temp\ccIFSmHb.s 			page 4


  41 0012 1370     		strb	r3, [r2]
 132:Generated_Source\PSoC5/MDIO_Host_1.c **** 	
 133:Generated_Source\PSoC5/MDIO_Host_1.c **** 	/* Enable the interrupt */
 134:Generated_Source\PSoC5/MDIO_Host_1.c **** 	CyIntEnable(MDIO_Host_1_ISR_NUMBER);   
  42              		.loc 1 134 0
  43 0014 0122     		movs	r2, #1
  44 0016 024B     		ldr	r3, .L2+4
  45 0018 1A60     		str	r2, [r3]
  46 001a 7047     		bx	lr
  47              	.L3:
  48              		.align	2
  49              	.L2:
  50 001c 94650040 		.word	1073767828
  51 0020 00E100E0 		.word	-536813312
  52              		.cfi_endproc
  53              	.LFE66:
  54              		.size	MDIO_Host_1_Enable, .-MDIO_Host_1_Enable
  55              		.section	.text.MDIO_Host_1_EnableInt,"ax",%progbits
  56              		.align	2
  57              		.global	MDIO_Host_1_EnableInt
  58              		.thumb
  59              		.thumb_func
  60              		.type	MDIO_Host_1_EnableInt, %function
  61              	MDIO_Host_1_EnableInt:
  62              	.LFB67:
 135:Generated_Source\PSoC5/MDIO_Host_1.c **** }
 136:Generated_Source\PSoC5/MDIO_Host_1.c **** 
 137:Generated_Source\PSoC5/MDIO_Host_1.c **** /*******************************************************************************
 138:Generated_Source\PSoC5/MDIO_Host_1.c **** * Function Name: MDIO_Host_1_EnableInt
 139:Generated_Source\PSoC5/MDIO_Host_1.c **** ********************************************************************************
 140:Generated_Source\PSoC5/MDIO_Host_1.c **** * Summary:
 141:Generated_Source\PSoC5/MDIO_Host_1.c **** *  Enables and configure the interrupt from this component. 
 142:Generated_Source\PSoC5/MDIO_Host_1.c **** * 
 143:Generated_Source\PSoC5/MDIO_Host_1.c **** * Parameters:
 144:Generated_Source\PSoC5/MDIO_Host_1.c **** *  None
 145:Generated_Source\PSoC5/MDIO_Host_1.c **** * 
 146:Generated_Source\PSoC5/MDIO_Host_1.c **** * Return:
 147:Generated_Source\PSoC5/MDIO_Host_1.c **** *  None
 148:Generated_Source\PSoC5/MDIO_Host_1.c **** * 
 149:Generated_Source\PSoC5/MDIO_Host_1.c **** * Side Effects:
 150:Generated_Source\PSoC5/MDIO_Host_1.c **** *  None
 151:Generated_Source\PSoC5/MDIO_Host_1.c **** ********************************************************************************/
 152:Generated_Source\PSoC5/MDIO_Host_1.c **** void MDIO_Host_1_EnableInt(void)
 153:Generated_Source\PSoC5/MDIO_Host_1.c **** {   
  63              		.loc 1 153 0
  64              		.cfi_startproc
  65              		@ args = 0, pretend = 0, frame = 0
  66              		@ frame_needed = 0, uses_anonymous_args = 0
  67 0000 10B5     		push	{r4, lr}
  68              		.cfi_def_cfa_offset 8
  69              		.cfi_offset 4, -8
  70              		.cfi_offset 14, -4
 154:Generated_Source\PSoC5/MDIO_Host_1.c ****     /* Enable interrupt handler service routine */
 155:Generated_Source\PSoC5/MDIO_Host_1.c **** 	CyIntDisable(MDIO_Host_1_ISR_NUMBER);
  71              		.loc 1 155 0
  72 0002 0124     		movs	r4, #1
  73 0004 064B     		ldr	r3, .L6
ARM GAS  C:\Users\kopusov.FT\AppData\Local\Temp\ccIFSmHb.s 			page 5


  74 0006 1C60     		str	r4, [r3]
 156:Generated_Source\PSoC5/MDIO_Host_1.c **** 	CyIntSetVector(MDIO_Host_1_ISR_NUMBER, MDIO_Host_1_ISR_InterruptHandler);
  75              		.loc 1 156 0
  76 0008 0020     		movs	r0, #0
  77 000a 0649     		ldr	r1, .L6+4
  78 000c FFF7FEFF 		bl	CyIntSetVector
  79              	.LVL0:
 157:Generated_Source\PSoC5/MDIO_Host_1.c **** 	CyIntSetPriority(MDIO_Host_1_ISR_NUMBER, MDIO_Host_1_ISR_PRIORITY);
  80              		.loc 1 157 0
  81 0010 0020     		movs	r0, #0
  82 0012 0721     		movs	r1, #7
  83 0014 FFF7FEFF 		bl	CyIntSetPriority
  84              	.LVL1:
 158:Generated_Source\PSoC5/MDIO_Host_1.c **** 	CyIntEnable(MDIO_Host_1_ISR_NUMBER);        
  85              		.loc 1 158 0
  86 0018 034B     		ldr	r3, .L6+8
  87 001a 1C60     		str	r4, [r3]
  88 001c 10BD     		pop	{r4, pc}
  89              	.L7:
  90 001e 00BF     		.align	2
  91              	.L6:
  92 0020 80E100E0 		.word	-536813184
  93 0024 00000000 		.word	MDIO_Host_1_ISR_InterruptHandler
  94 0028 00E100E0 		.word	-536813312
  95              		.cfi_endproc
  96              	.LFE67:
  97              		.size	MDIO_Host_1_EnableInt, .-MDIO_Host_1_EnableInt
  98              		.section	.text.MDIO_Host_1_DisableInt,"ax",%progbits
  99              		.align	2
 100              		.global	MDIO_Host_1_DisableInt
 101              		.thumb
 102              		.thumb_func
 103              		.type	MDIO_Host_1_DisableInt, %function
 104              	MDIO_Host_1_DisableInt:
 105              	.LFB68:
 159:Generated_Source\PSoC5/MDIO_Host_1.c **** }
 160:Generated_Source\PSoC5/MDIO_Host_1.c **** 
 161:Generated_Source\PSoC5/MDIO_Host_1.c **** /*******************************************************************************
 162:Generated_Source\PSoC5/MDIO_Host_1.c **** * Function Name: MDIO_Host_1_DisableInt
 163:Generated_Source\PSoC5/MDIO_Host_1.c **** ********************************************************************************
 164:Generated_Source\PSoC5/MDIO_Host_1.c **** * Summary:
 165:Generated_Source\PSoC5/MDIO_Host_1.c **** *  Disables interrupts from this component
 166:Generated_Source\PSoC5/MDIO_Host_1.c **** *
 167:Generated_Source\PSoC5/MDIO_Host_1.c **** * Parameters:
 168:Generated_Source\PSoC5/MDIO_Host_1.c **** *  None
 169:Generated_Source\PSoC5/MDIO_Host_1.c **** * 
 170:Generated_Source\PSoC5/MDIO_Host_1.c **** * Return:
 171:Generated_Source\PSoC5/MDIO_Host_1.c **** *  None
 172:Generated_Source\PSoC5/MDIO_Host_1.c **** * 
 173:Generated_Source\PSoC5/MDIO_Host_1.c **** * Side Effects:
 174:Generated_Source\PSoC5/MDIO_Host_1.c **** *  None
 175:Generated_Source\PSoC5/MDIO_Host_1.c **** ********************************************************************************/
 176:Generated_Source\PSoC5/MDIO_Host_1.c **** void MDIO_Host_1_DisableInt(void)
 177:Generated_Source\PSoC5/MDIO_Host_1.c **** {  
 106              		.loc 1 177 0
 107              		.cfi_startproc
 108              		@ args = 0, pretend = 0, frame = 0
ARM GAS  C:\Users\kopusov.FT\AppData\Local\Temp\ccIFSmHb.s 			page 6


 109              		@ frame_needed = 0, uses_anonymous_args = 0
 110              		@ link register save eliminated.
 178:Generated_Source\PSoC5/MDIO_Host_1.c ****     /* Disable interrupt handler service routine */
 179:Generated_Source\PSoC5/MDIO_Host_1.c **** 	CyIntDisable(MDIO_Host_1_ISR_NUMBER);
 111              		.loc 1 179 0
 112 0000 0122     		movs	r2, #1
 113 0002 014B     		ldr	r3, .L9
 114 0004 1A60     		str	r2, [r3]
 115 0006 7047     		bx	lr
 116              	.L10:
 117              		.align	2
 118              	.L9:
 119 0008 80E100E0 		.word	-536813184
 120              		.cfi_endproc
 121              	.LFE68:
 122              		.size	MDIO_Host_1_DisableInt, .-MDIO_Host_1_DisableInt
 123              		.section	.text.MDIO_Host_1_Stop,"ax",%progbits
 124              		.align	2
 125              		.global	MDIO_Host_1_Stop
 126              		.thumb
 127              		.thumb_func
 128              		.type	MDIO_Host_1_Stop, %function
 129              	MDIO_Host_1_Stop:
 130              	.LFB64:
  72:Generated_Source\PSoC5/MDIO_Host_1.c **** 	/* Disable the hardware component */
 131              		.loc 1 72 0
 132              		.cfi_startproc
 133              		@ args = 0, pretend = 0, frame = 0
 134              		@ frame_needed = 0, uses_anonymous_args = 0
 135 0000 08B5     		push	{r3, lr}
 136              		.cfi_def_cfa_offset 8
 137              		.cfi_offset 3, -8
 138              		.cfi_offset 14, -4
  74:Generated_Source\PSoC5/MDIO_Host_1.c **** 	
 139              		.loc 1 74 0
 140 0002 0022     		movs	r2, #0
 141 0004 044B     		ldr	r3, .L13
 142 0006 1A70     		strb	r2, [r3]
  77:Generated_Source\PSoC5/MDIO_Host_1.c **** 	
 143              		.loc 1 77 0
 144 0008 044A     		ldr	r2, .L13+4
 145 000a 1378     		ldrb	r3, [r2]	@ zero_extendqisi2
 146 000c 03F0DF03 		and	r3, r3, #223
 147 0010 1370     		strb	r3, [r2]
  80:Generated_Source\PSoC5/MDIO_Host_1.c **** }
 148              		.loc 1 80 0
 149 0012 FFF7FEFF 		bl	MDIO_Host_1_DisableInt
 150              	.LVL2:
 151 0016 08BD     		pop	{r3, pc}
 152              	.L14:
 153              		.align	2
 154              	.L13:
 155 0018 75650040 		.word	1073767797
 156 001c 94650040 		.word	1073767828
 157              		.cfi_endproc
 158              	.LFE64:
 159              		.size	MDIO_Host_1_Stop, .-MDIO_Host_1_Stop
ARM GAS  C:\Users\kopusov.FT\AppData\Local\Temp\ccIFSmHb.s 			page 7


 160              		.section	.text.MDIO_Host_1_GetStatus,"ax",%progbits
 161              		.align	2
 162              		.global	MDIO_Host_1_GetStatus
 163              		.thumb
 164              		.thumb_func
 165              		.type	MDIO_Host_1_GetStatus, %function
 166              	MDIO_Host_1_GetStatus:
 167              	.LFB69:
 180:Generated_Source\PSoC5/MDIO_Host_1.c **** }
 181:Generated_Source\PSoC5/MDIO_Host_1.c **** 
 182:Generated_Source\PSoC5/MDIO_Host_1.c **** /*******************************************************************************
 183:Generated_Source\PSoC5/MDIO_Host_1.c **** * Function Name: MDIO_Host_1_GetStatus
 184:Generated_Source\PSoC5/MDIO_Host_1.c **** ********************************************************************************
 185:Generated_Source\PSoC5/MDIO_Host_1.c **** * Summary:
 186:Generated_Source\PSoC5/MDIO_Host_1.c **** *  Returns the internal status of the hardware.
 187:Generated_Source\PSoC5/MDIO_Host_1.c **** *
 188:Generated_Source\PSoC5/MDIO_Host_1.c **** * Parameters:
 189:Generated_Source\PSoC5/MDIO_Host_1.c **** *  None
 190:Generated_Source\PSoC5/MDIO_Host_1.c **** * 
 191:Generated_Source\PSoC5/MDIO_Host_1.c **** * Return:
 192:Generated_Source\PSoC5/MDIO_Host_1.c **** *  uint8
 193:Generated_Source\PSoC5/MDIO_Host_1.c **** *		b0   = Set when component is busy 
 194:Generated_Source\PSoC5/MDIO_Host_1.c **** *		b1 	 = Set when PHY address matches in the right timing 
 195:Generated_Source\PSoC5/MDIO_Host_1.c **** *		b7:2 = Reserved. Returns all zeros
 196:Generated_Source\PSoC5/MDIO_Host_1.c **** *
 197:Generated_Source\PSoC5/MDIO_Host_1.c **** * Side Effects:
 198:Generated_Source\PSoC5/MDIO_Host_1.c **** *  None
 199:Generated_Source\PSoC5/MDIO_Host_1.c **** ********************************************************************************/
 200:Generated_Source\PSoC5/MDIO_Host_1.c **** uint8 MDIO_Host_1_GetStatus(void) CYREENTRANT
 201:Generated_Source\PSoC5/MDIO_Host_1.c **** {
 168              		.loc 1 201 0
 169              		.cfi_startproc
 170              		@ args = 0, pretend = 0, frame = 0
 171              		@ frame_needed = 0, uses_anonymous_args = 0
 172              		@ link register save eliminated.
 202:Generated_Source\PSoC5/MDIO_Host_1.c **** 	return MDIO_Host_1_StatusRegister;
 173              		.loc 1 202 0
 174 0000 014B     		ldr	r3, .L16
 175 0002 1878     		ldrb	r0, [r3]	@ zero_extendqisi2
 203:Generated_Source\PSoC5/MDIO_Host_1.c **** }
 176              		.loc 1 203 0
 177 0004 7047     		bx	lr
 178              	.L17:
 179 0006 00BF     		.align	2
 180              	.L16:
 181 0008 00000000 		.word	MDIO_Host_1_StatusRegister
 182              		.cfi_endproc
 183              	.LFE69:
 184              		.size	MDIO_Host_1_GetStatus, .-MDIO_Host_1_GetStatus
 185              		.section	.text.MDIO_Host_1_ClearInternalFIFOs,"ax",%progbits
 186              		.align	2
 187              		.global	MDIO_Host_1_ClearInternalFIFOs
 188              		.thumb
 189              		.thumb_func
 190              		.type	MDIO_Host_1_ClearInternalFIFOs, %function
 191              	MDIO_Host_1_ClearInternalFIFOs:
 192              	.LFB70:
ARM GAS  C:\Users\kopusov.FT\AppData\Local\Temp\ccIFSmHb.s 			page 8


 204:Generated_Source\PSoC5/MDIO_Host_1.c **** 
 205:Generated_Source\PSoC5/MDIO_Host_1.c **** /*******************************************************************************
 206:Generated_Source\PSoC5/MDIO_Host_1.c **** * Function Name: MDIO_Host_1_ClearInternalFIFOs
 207:Generated_Source\PSoC5/MDIO_Host_1.c **** ********************************************************************************
 208:Generated_Source\PSoC5/MDIO_Host_1.c **** * Summary:
 209:Generated_Source\PSoC5/MDIO_Host_1.c **** *  Clear the internal FIFOs from the data path 
 210:Generated_Source\PSoC5/MDIO_Host_1.c **** *
 211:Generated_Source\PSoC5/MDIO_Host_1.c **** * Parameters:
 212:Generated_Source\PSoC5/MDIO_Host_1.c **** *  dataPtr: Pointer to the data buffer
 213:Generated_Source\PSoC5/MDIO_Host_1.c **** * 
 214:Generated_Source\PSoC5/MDIO_Host_1.c **** * Return:
 215:Generated_Source\PSoC5/MDIO_Host_1.c **** *  None
 216:Generated_Source\PSoC5/MDIO_Host_1.c **** *
 217:Generated_Source\PSoC5/MDIO_Host_1.c **** * Side Effects:
 218:Generated_Source\PSoC5/MDIO_Host_1.c **** *  The size of this buffer should be at least 32 x 16 bits (64 bytes), otherwise
 219:Generated_Source\PSoC5/MDIO_Host_1.c **** *  memory violation may occurs.
 220:Generated_Source\PSoC5/MDIO_Host_1.c **** *
 221:Generated_Source\PSoC5/MDIO_Host_1.c **** ********************************************************************************/
 222:Generated_Source\PSoC5/MDIO_Host_1.c **** void MDIO_Host_1_ClearInternalFIFOs(void)
 223:Generated_Source\PSoC5/MDIO_Host_1.c **** {
 193              		.loc 1 223 0
 194              		.cfi_startproc
 195              		@ args = 0, pretend = 0, frame = 0
 196              		@ frame_needed = 0, uses_anonymous_args = 0
 197              		@ link register save eliminated.
 224:Generated_Source\PSoC5/MDIO_Host_1.c **** 	/* Reset F0 FIFO  */
 225:Generated_Source\PSoC5/MDIO_Host_1.c **** 	CY_SET_REG16(MDIO_Host_1_DP_AUX_CTL_PTR, (CY_GET_REG16(MDIO_Host_1_DP_AUX_CTL_PTR) |  MDIO_Host_1_
 198              		.loc 1 225 0
 199 0000 0B4A     		ldr	r2, .L19
 200 0002 1388     		ldrh	r3, [r2]
 201 0004 9BB2     		uxth	r3, r3
 202 0006 43F48073 		orr	r3, r3, #256
 203 000a 43F00103 		orr	r3, r3, #1
 204 000e 1380     		strh	r3, [r2]	@ movhi
 226:Generated_Source\PSoC5/MDIO_Host_1.c ****     CY_SET_REG16(MDIO_Host_1_DP_AUX_CTL_PTR, (CY_GET_REG16(MDIO_Host_1_DP_AUX_CTL_PTR) & ~MDIO_Host
 205              		.loc 1 226 0
 206 0010 1388     		ldrh	r3, [r2]
 207 0012 9BB2     		uxth	r3, r3
 208 0014 23F48073 		bic	r3, r3, #256
 209 0018 23F00103 		bic	r3, r3, #1
 210 001c 9BB2     		uxth	r3, r3
 211 001e 1380     		strh	r3, [r2]	@ movhi
 227:Generated_Source\PSoC5/MDIO_Host_1.c **** 	
 228:Generated_Source\PSoC5/MDIO_Host_1.c **** 	/* Reset F1 FIFO  */
 229:Generated_Source\PSoC5/MDIO_Host_1.c **** 	CY_SET_REG16(MDIO_Host_1_DP_AUX_CTL_PTR, (CY_GET_REG16(MDIO_Host_1_DP_AUX_CTL_PTR) |  MDIO_Host_1_
 212              		.loc 1 229 0
 213 0020 1388     		ldrh	r3, [r2]
 214 0022 9BB2     		uxth	r3, r3
 215 0024 43F40073 		orr	r3, r3, #512
 216 0028 43F00203 		orr	r3, r3, #2
 217 002c 1380     		strh	r3, [r2]	@ movhi
 218 002e 7047     		bx	lr
 219              	.L20:
 220              		.align	2
 221              	.L19:
 222 0030 94650040 		.word	1073767828
 223              		.cfi_endproc
ARM GAS  C:\Users\kopusov.FT\AppData\Local\Temp\ccIFSmHb.s 			page 9


 224              	.LFE70:
 225              		.size	MDIO_Host_1_ClearInternalFIFOs, .-MDIO_Host_1_ClearInternalFIFOs
 226              		.section	.text.MDIO_Host_1_Init,"ax",%progbits
 227              		.align	2
 228              		.global	MDIO_Host_1_Init
 229              		.thumb
 230              		.thumb_func
 231              		.type	MDIO_Host_1_Init, %function
 232              	MDIO_Host_1_Init:
 233              	.LFB65:
  99:Generated_Source\PSoC5/MDIO_Host_1.c ****     /* Initialize the UDB control register */
 234              		.loc 1 99 0
 235              		.cfi_startproc
 236              		@ args = 0, pretend = 0, frame = 0
 237              		@ frame_needed = 0, uses_anonymous_args = 0
 238 0000 08B5     		push	{r3, lr}
 239              		.cfi_def_cfa_offset 8
 240              		.cfi_offset 3, -8
 241              		.cfi_offset 14, -4
 101:Generated_Source\PSoC5/MDIO_Host_1.c **** 	
 242              		.loc 1 101 0
 243 0002 0022     		movs	r2, #0
 244 0004 034B     		ldr	r3, .L23
 245 0006 1A70     		strb	r2, [r3]
 104:Generated_Source\PSoC5/MDIO_Host_1.c **** 
 246              		.loc 1 104 0
 247 0008 FFF7FEFF 		bl	MDIO_Host_1_ClearInternalFIFOs
 248              	.LVL3:
 107:Generated_Source\PSoC5/MDIO_Host_1.c **** }
 249              		.loc 1 107 0
 250 000c FFF7FEFF 		bl	MDIO_Host_1_EnableInt
 251              	.LVL4:
 252 0010 08BD     		pop	{r3, pc}
 253              	.L24:
 254 0012 00BF     		.align	2
 255              	.L23:
 256 0014 75650040 		.word	1073767797
 257              		.cfi_endproc
 258              	.LFE65:
 259              		.size	MDIO_Host_1_Init, .-MDIO_Host_1_Init
 260              		.section	.text.MDIO_Host_1_Start,"ax",%progbits
 261              		.align	2
 262              		.global	MDIO_Host_1_Start
 263              		.thumb
 264              		.thumb_func
 265              		.type	MDIO_Host_1_Start, %function
 266              	MDIO_Host_1_Start:
 267              	.LFB63:
  46:Generated_Source\PSoC5/MDIO_Host_1.c ****     /* If not already initialized, then initialize hardware and software */
 268              		.loc 1 46 0
 269              		.cfi_startproc
 270              		@ args = 0, pretend = 0, frame = 0
 271              		@ frame_needed = 0, uses_anonymous_args = 0
 272 0000 08B5     		push	{r3, lr}
 273              		.cfi_def_cfa_offset 8
 274              		.cfi_offset 3, -8
 275              		.cfi_offset 14, -4
ARM GAS  C:\Users\kopusov.FT\AppData\Local\Temp\ccIFSmHb.s 			page 10


  48:Generated_Source\PSoC5/MDIO_Host_1.c ****     {
 276              		.loc 1 48 0
 277 0002 054B     		ldr	r3, .L28
 278 0004 1B78     		ldrb	r3, [r3]	@ zero_extendqisi2
 279 0006 23B9     		cbnz	r3, .L26
  50:Generated_Source\PSoC5/MDIO_Host_1.c ****         MDIO_Host_1_initVar = 1u;
 280              		.loc 1 50 0
 281 0008 FFF7FEFF 		bl	MDIO_Host_1_Init
 282              	.LVL5:
  51:Generated_Source\PSoC5/MDIO_Host_1.c ****     }
 283              		.loc 1 51 0
 284 000c 0122     		movs	r2, #1
 285 000e 024B     		ldr	r3, .L28
 286 0010 1A70     		strb	r2, [r3]
 287              	.L26:
  53:Generated_Source\PSoC5/MDIO_Host_1.c **** }
 288              		.loc 1 53 0
 289 0012 FFF7FEFF 		bl	MDIO_Host_1_Enable
 290              	.LVL6:
 291 0016 08BD     		pop	{r3, pc}
 292              	.L29:
 293              		.align	2
 294              	.L28:
 295 0018 00000000 		.word	.LANCHOR0
 296              		.cfi_endproc
 297              	.LFE63:
 298              		.size	MDIO_Host_1_Start, .-MDIO_Host_1_Start
 299              		.section	.text.MDIO_Host_1_WriteDataC45,"ax",%progbits
 300              		.align	2
 301              		.global	MDIO_Host_1_WriteDataC45
 302              		.thumb
 303              		.thumb_func
 304              		.type	MDIO_Host_1_WriteDataC45, %function
 305              	MDIO_Host_1_WriteDataC45:
 306              	.LFB71:
 230:Generated_Source\PSoC5/MDIO_Host_1.c ****     //CY_SET_REG16(MDIO_Host_1_DP_AUX_CTL_PTR, (CY_GET_REG16(MDIO_Host_1_DP_AUX_CTL_PTR) & ~MDIO_Ho
 231:Generated_Source\PSoC5/MDIO_Host_1.c **** }
 232:Generated_Source\PSoC5/MDIO_Host_1.c **** 
 233:Generated_Source\PSoC5/MDIO_Host_1.c **** /*******************************************************************************
 234:Generated_Source\PSoC5/MDIO_Host_1.c **** *
 235:Generated_Source\PSoC5/MDIO_Host_1.c **** * MDIO_Host_1_WriteData_C45()
 236:Generated_Source\PSoC5/MDIO_Host_1.c **** *
 237:Generated_Source\PSoC5/MDIO_Host_1.c **** *******************************************************************************/
 238:Generated_Source\PSoC5/MDIO_Host_1.c **** uint8 MDIO_Host_1_WriteDataC45(uint8 op_mode, uint8 phy_addr, uint8 dev_addr, uint16 reg_data) // W
 239:Generated_Source\PSoC5/MDIO_Host_1.c **** {
 307              		.loc 1 239 0
 308              		.cfi_startproc
 309              		@ args = 0, pretend = 0, frame = 0
 310              		@ frame_needed = 0, uses_anonymous_args = 0
 311              		@ link register save eliminated.
 312              	.LVL7:
 313 0000 30B4     		push	{r4, r5}
 314              		.cfi_def_cfa_offset 8
 315              		.cfi_offset 4, -8
 316              		.cfi_offset 5, -4
 240:Generated_Source\PSoC5/MDIO_Host_1.c ****    	uint16	control_bits;
 241:Generated_Source\PSoC5/MDIO_Host_1.c **** 	uint8   status_reg;
ARM GAS  C:\Users\kopusov.FT\AppData\Local\Temp\ccIFSmHb.s 			page 11


 242:Generated_Source\PSoC5/MDIO_Host_1.c **** 
 243:Generated_Source\PSoC5/MDIO_Host_1.c **** 	/* Clear and Set the control register for writing */
 244:Generated_Source\PSoC5/MDIO_Host_1.c **** 	MDIO_Host_1_CONTROL_REG &= MDIO_Host_1_ENABLE;
 317              		.loc 1 244 0
 318 0002 134C     		ldr	r4, .L33
 319 0004 2578     		ldrb	r5, [r4]	@ zero_extendqisi2
 320 0006 05F00105 		and	r5, r5, #1
 321 000a 2570     		strb	r5, [r4]
 245:Generated_Source\PSoC5/MDIO_Host_1.c **** 	MDIO_Host_1_CONTROL_REG |= MDIO_Host_1_WRITE;
 322              		.loc 1 245 0
 323 000c 2578     		ldrb	r5, [r4]	@ zero_extendqisi2
 324 000e EDB2     		uxtb	r5, r5
 325 0010 2570     		strb	r5, [r4]
 246:Generated_Source\PSoC5/MDIO_Host_1.c **** 	
 247:Generated_Source\PSoC5/MDIO_Host_1.c ****    	/* Set the control bits and write in the fifo f0 */
 248:Generated_Source\PSoC5/MDIO_Host_1.c ****    	control_bits = 0x0002+((uint16)op_mode<<12)+(((uint16)phy_addr)<<7)+(((uint16)dev_addr)<<2);
 326              		.loc 1 248 0
 327 0012 C901     		lsls	r1, r1, #7
 328              	.LVL8:
 329 0014 01EB0030 		add	r0, r1, r0, lsl #12
 330              	.LVL9:
 331 0018 00EB8202 		add	r2, r0, r2, lsl #2
 332              	.LVL10:
 333 001c 911C     		adds	r1, r2, #2
 334 001e 89B2     		uxth	r1, r1
 335              	.LVL11:
 249:Generated_Source\PSoC5/MDIO_Host_1.c ****    	CY_SET_REG16(MDIO_Host_1_FIFO_F0_PTR, control_bits);
 336              		.loc 1 249 0
 337 0020 0C4A     		ldr	r2, .L33+4
 338 0022 1180     		strh	r1, [r2]	@ movhi
 250:Generated_Source\PSoC5/MDIO_Host_1.c ****    
 251:Generated_Source\PSoC5/MDIO_Host_1.c ****    	/* Write data bits in the fifo f0 */
 252:Generated_Source\PSoC5/MDIO_Host_1.c ****    	CY_SET_REG16(MDIO_Host_1_FIFO_F0_PTR, reg_data);
 339              		.loc 1 252 0
 340 0024 1380     		strh	r3, [r2]	@ movhi
 253:Generated_Source\PSoC5/MDIO_Host_1.c ****     
 254:Generated_Source\PSoC5/MDIO_Host_1.c ****    	/* Start Transmission */
 255:Generated_Source\PSoC5/MDIO_Host_1.c ****    	MDIO_Host_1_CONTROL_REG |= MDIO_Host_1_START;
 341              		.loc 1 255 0
 342 0026 2378     		ldrb	r3, [r4]	@ zero_extendqisi2
 343              	.LVL12:
 344 0028 43F00203 		orr	r3, r3, #2
 345 002c 2370     		strb	r3, [r4]
 346              	.LVL13:
 347              	.L31:
 256:Generated_Source\PSoC5/MDIO_Host_1.c **** 	
 257:Generated_Source\PSoC5/MDIO_Host_1.c **** 	/* Wait till the transmission is completed */
 258:Generated_Source\PSoC5/MDIO_Host_1.c **** 	while ( MDIO_Host_1_StatusRegister != MDIO_Host_1_MDIO_STS_CMPLT );
 348              		.loc 1 258 0 discriminator 1
 349 002e 0A4B     		ldr	r3, .L33+8
 350 0030 1B78     		ldrb	r3, [r3]	@ zero_extendqisi2
 351 0032 DBB2     		uxtb	r3, r3
 352 0034 082B     		cmp	r3, #8
 353 0036 FAD1     		bne	.L31
 259:Generated_Source\PSoC5/MDIO_Host_1.c **** 	
 260:Generated_Source\PSoC5/MDIO_Host_1.c **** 	/* Clear hardware status register */
 261:Generated_Source\PSoC5/MDIO_Host_1.c **** 	status_reg = MDIO_Host_1_STATUS_REG;
ARM GAS  C:\Users\kopusov.FT\AppData\Local\Temp\ccIFSmHb.s 			page 12


 354              		.loc 1 261 0
 355 0038 084B     		ldr	r3, .L33+12
 356 003a 1B78     		ldrb	r3, [r3]	@ zero_extendqisi2
 357              	.LVL14:
 262:Generated_Source\PSoC5/MDIO_Host_1.c **** 	
 263:Generated_Source\PSoC5/MDIO_Host_1.c **** 	/* Clear software status register */
 264:Generated_Source\PSoC5/MDIO_Host_1.c **** 	MDIO_Host_1_StatusRegister = 0x00u;
 358              		.loc 1 264 0
 359 003c 0021     		movs	r1, #0
 360              	.LVL15:
 361 003e 064A     		ldr	r2, .L33+8
 362 0040 1170     		strb	r1, [r2]
 265:Generated_Source\PSoC5/MDIO_Host_1.c ****     
 266:Generated_Source\PSoC5/MDIO_Host_1.c ****     return ((status_reg)? 0 : 1);
 363              		.loc 1 266 0
 364 0042 13F0FF0F 		tst	r3, #255
 267:Generated_Source\PSoC5/MDIO_Host_1.c **** }
 365              		.loc 1 267 0
 366 0046 0CBF     		ite	eq
 367 0048 0120     		moveq	r0, #1
 368 004a 0846     		movne	r0, r1
 369 004c 30BC     		pop	{r4, r5}
 370              		.cfi_restore 5
 371              		.cfi_restore 4
 372              		.cfi_def_cfa_offset 0
 373 004e 7047     		bx	lr
 374              	.L34:
 375              		.align	2
 376              	.L33:
 377 0050 75650040 		.word	1073767797
 378 0054 44650040 		.word	1073767748
 379 0058 00000000 		.word	MDIO_Host_1_StatusRegister
 380 005c 65650040 		.word	1073767781
 381              		.cfi_endproc
 382              	.LFE71:
 383              		.size	MDIO_Host_1_WriteDataC45, .-MDIO_Host_1_WriteDataC45
 384              		.section	.text.MDIO_Host_1_ReadDataC45,"ax",%progbits
 385              		.align	2
 386              		.global	MDIO_Host_1_ReadDataC45
 387              		.thumb
 388              		.thumb_func
 389              		.type	MDIO_Host_1_ReadDataC45, %function
 390              	MDIO_Host_1_ReadDataC45:
 391              	.LFB72:
 268:Generated_Source\PSoC5/MDIO_Host_1.c **** 
 269:Generated_Source\PSoC5/MDIO_Host_1.c **** /*******************************************************************************
 270:Generated_Source\PSoC5/MDIO_Host_1.c **** *
 271:Generated_Source\PSoC5/MDIO_Host_1.c **** * MDIO_Host_1_ReadData_C45()
 272:Generated_Source\PSoC5/MDIO_Host_1.c **** *
 273:Generated_Source\PSoC5/MDIO_Host_1.c **** *******************************************************************************/
 274:Generated_Source\PSoC5/MDIO_Host_1.c **** uint8 MDIO_Host_1_ReadDataC45(uint8 op_mode, uint8 phy_addr, uint8 dev_addr, uint16 *regData) // Re
 275:Generated_Source\PSoC5/MDIO_Host_1.c **** {
 392              		.loc 1 275 0
 393              		.cfi_startproc
 394              		@ args = 0, pretend = 0, frame = 0
 395              		@ frame_needed = 0, uses_anonymous_args = 0
 396              		@ link register save eliminated.
ARM GAS  C:\Users\kopusov.FT\AppData\Local\Temp\ccIFSmHb.s 			page 13


 397              	.LVL16:
 398 0000 30B4     		push	{r4, r5}
 399              		.cfi_def_cfa_offset 8
 400              		.cfi_offset 4, -8
 401              		.cfi_offset 5, -4
 276:Generated_Source\PSoC5/MDIO_Host_1.c ****    	uint16	control_bits;
 277:Generated_Source\PSoC5/MDIO_Host_1.c **** 	uint8 status_reg;
 278:Generated_Source\PSoC5/MDIO_Host_1.c **** 
 279:Generated_Source\PSoC5/MDIO_Host_1.c **** 	/* Clear and Set the control register for writing */
 280:Generated_Source\PSoC5/MDIO_Host_1.c **** 	MDIO_Host_1_CONTROL_REG &= MDIO_Host_1_ENABLE;
 402              		.loc 1 280 0
 403 0002 144C     		ldr	r4, .L38
 404 0004 2578     		ldrb	r5, [r4]	@ zero_extendqisi2
 405 0006 05F00105 		and	r5, r5, #1
 406 000a 2570     		strb	r5, [r4]
 281:Generated_Source\PSoC5/MDIO_Host_1.c **** 	MDIO_Host_1_CONTROL_REG |= MDIO_Host_1_READ;
 407              		.loc 1 281 0
 408 000c 2578     		ldrb	r5, [r4]	@ zero_extendqisi2
 409 000e 45F00405 		orr	r5, r5, #4
 410 0012 2570     		strb	r5, [r4]
 282:Generated_Source\PSoC5/MDIO_Host_1.c **** 	
 283:Generated_Source\PSoC5/MDIO_Host_1.c ****    	/* Set the control bits and write in the fifo f0 */
 284:Generated_Source\PSoC5/MDIO_Host_1.c ****    	control_bits = 0x0003+((uint16)op_mode<<12)+(((uint16)phy_addr)<<7)+(((uint16)dev_addr)<<2);
 411              		.loc 1 284 0
 412 0014 C901     		lsls	r1, r1, #7
 413              	.LVL17:
 414 0016 01EB0030 		add	r0, r1, r0, lsl #12
 415              	.LVL18:
 416 001a 00EB8202 		add	r2, r0, r2, lsl #2
 417              	.LVL19:
 418 001e D11C     		adds	r1, r2, #3
 419 0020 89B2     		uxth	r1, r1
 420              	.LVL20:
 285:Generated_Source\PSoC5/MDIO_Host_1.c ****    	CY_SET_REG16(MDIO_Host_1_FIFO_F0_PTR, control_bits);
 421              		.loc 1 285 0
 422 0022 0D4A     		ldr	r2, .L38+4
 423 0024 1180     		strh	r1, [r2]	@ movhi
 286:Generated_Source\PSoC5/MDIO_Host_1.c ****     
 287:Generated_Source\PSoC5/MDIO_Host_1.c ****    	/* Start Transmission */
 288:Generated_Source\PSoC5/MDIO_Host_1.c ****    	MDIO_Host_1_CONTROL_REG |= MDIO_Host_1_START;
 424              		.loc 1 288 0
 425 0026 2278     		ldrb	r2, [r4]	@ zero_extendqisi2
 426 0028 42F00202 		orr	r2, r2, #2
 427 002c 2270     		strb	r2, [r4]
 428              	.L36:
 289:Generated_Source\PSoC5/MDIO_Host_1.c **** 	
 290:Generated_Source\PSoC5/MDIO_Host_1.c **** 	/* Wait till the transmission is completed */
 291:Generated_Source\PSoC5/MDIO_Host_1.c **** 	while ( MDIO_Host_1_StatusRegister != MDIO_Host_1_MDIO_STS_CMPLT );
 429              		.loc 1 291 0 discriminator 1
 430 002e 0B4A     		ldr	r2, .L38+8
 431 0030 1278     		ldrb	r2, [r2]	@ zero_extendqisi2
 432 0032 D2B2     		uxtb	r2, r2
 433 0034 082A     		cmp	r2, #8
 434 0036 FAD1     		bne	.L36
 292:Generated_Source\PSoC5/MDIO_Host_1.c **** 	
 293:Generated_Source\PSoC5/MDIO_Host_1.c **** 	/* Check if device acked */
 294:Generated_Source\PSoC5/MDIO_Host_1.c **** 	status_reg = MDIO_Host_1_STATUS_REG;
ARM GAS  C:\Users\kopusov.FT\AppData\Local\Temp\ccIFSmHb.s 			page 14


 435              		.loc 1 294 0
 436 0038 094A     		ldr	r2, .L38+12
 437 003a 1278     		ldrb	r2, [r2]	@ zero_extendqisi2
 438              	.LVL21:
 295:Generated_Source\PSoC5/MDIO_Host_1.c **** 	
 296:Generated_Source\PSoC5/MDIO_Host_1.c **** 	MDIO_Host_1_StatusRegister = 0x00u;
 439              		.loc 1 296 0
 440 003c 0020     		movs	r0, #0
 441 003e 0749     		ldr	r1, .L38+8
 442              	.LVL22:
 443 0040 0870     		strb	r0, [r1]
 297:Generated_Source\PSoC5/MDIO_Host_1.c **** 	
 298:Generated_Source\PSoC5/MDIO_Host_1.c **** 	*regData = MDIO_Host_1_data_bits;
 444              		.loc 1 298 0
 445 0042 0849     		ldr	r1, .L38+16
 446 0044 0988     		ldrh	r1, [r1]
 447 0046 1980     		strh	r1, [r3]	@ movhi
 299:Generated_Source\PSoC5/MDIO_Host_1.c **** 	
 300:Generated_Source\PSoC5/MDIO_Host_1.c **** 	return ((status_reg)? 0 : 1);
 448              		.loc 1 300 0
 449 0048 12F0FF0F 		tst	r2, #255
 301:Generated_Source\PSoC5/MDIO_Host_1.c **** }
 450              		.loc 1 301 0
 451 004c 08BF     		it	eq
 452 004e 0120     		moveq	r0, #1
 453 0050 30BC     		pop	{r4, r5}
 454              		.cfi_restore 5
 455              		.cfi_restore 4
 456              		.cfi_def_cfa_offset 0
 457 0052 7047     		bx	lr
 458              	.L39:
 459              		.align	2
 460              	.L38:
 461 0054 75650040 		.word	1073767797
 462 0058 44650040 		.word	1073767748
 463 005c 00000000 		.word	MDIO_Host_1_StatusRegister
 464 0060 65650040 		.word	1073767781
 465 0064 00000000 		.word	MDIO_Host_1_data_bits
 466              		.cfi_endproc
 467              	.LFE72:
 468              		.size	MDIO_Host_1_ReadDataC45, .-MDIO_Host_1_ReadDataC45
 469              		.section	.text.MDIO_Host_1_WriteDataC22,"ax",%progbits
 470              		.align	2
 471              		.global	MDIO_Host_1_WriteDataC22
 472              		.thumb
 473              		.thumb_func
 474              		.type	MDIO_Host_1_WriteDataC22, %function
 475              	MDIO_Host_1_WriteDataC22:
 476              	.LFB73:
 302:Generated_Source\PSoC5/MDIO_Host_1.c **** 
 303:Generated_Source\PSoC5/MDIO_Host_1.c **** /*******************************************************************************
 304:Generated_Source\PSoC5/MDIO_Host_1.c **** *
 305:Generated_Source\PSoC5/MDIO_Host_1.c **** * MDIO_Host_WriteData_C22()
 306:Generated_Source\PSoC5/MDIO_Host_1.c **** *
 307:Generated_Source\PSoC5/MDIO_Host_1.c **** *******************************************************************************/
 308:Generated_Source\PSoC5/MDIO_Host_1.c **** void 	MDIO_Host_1_WriteDataC22(uint8 phy_addr, uint8 dev_addr, uint16 reg_data)
 309:Generated_Source\PSoC5/MDIO_Host_1.c **** {
ARM GAS  C:\Users\kopusov.FT\AppData\Local\Temp\ccIFSmHb.s 			page 15


 477              		.loc 1 309 0
 478              		.cfi_startproc
 479              		@ args = 0, pretend = 0, frame = 0
 480              		@ frame_needed = 0, uses_anonymous_args = 0
 481              		@ link register save eliminated.
 482              	.LVL23:
 483 0000 10B4     		push	{r4}
 484              		.cfi_def_cfa_offset 4
 485              		.cfi_offset 4, -4
 310:Generated_Source\PSoC5/MDIO_Host_1.c ****    	uint16	control_bits;
 311:Generated_Source\PSoC5/MDIO_Host_1.c **** 
 312:Generated_Source\PSoC5/MDIO_Host_1.c **** 	/* Clear and Set the control register for writing */
 313:Generated_Source\PSoC5/MDIO_Host_1.c **** 	MDIO_Host_1_CONTROL_REG &= MDIO_Host_1_ENABLE;
 486              		.loc 1 313 0
 487 0002 0C4B     		ldr	r3, .L42
 488 0004 1C78     		ldrb	r4, [r3]	@ zero_extendqisi2
 489 0006 04F00104 		and	r4, r4, #1
 490 000a 1C70     		strb	r4, [r3]
 314:Generated_Source\PSoC5/MDIO_Host_1.c **** 	MDIO_Host_1_CONTROL_REG |= MDIO_Host_1_WRITE;
 491              		.loc 1 314 0
 492 000c 1C78     		ldrb	r4, [r3]	@ zero_extendqisi2
 493 000e E4B2     		uxtb	r4, r4
 494 0010 1C70     		strb	r4, [r3]
 315:Generated_Source\PSoC5/MDIO_Host_1.c **** 	
 316:Generated_Source\PSoC5/MDIO_Host_1.c ****    	/* Set the control bits and write in the fifo f0 */
 317:Generated_Source\PSoC5/MDIO_Host_1.c ****    	control_bits = 0x5002+(((uint16)phy_addr)<<7)+(((uint16)dev_addr)<<2);
 495              		.loc 1 317 0
 496 0012 8900     		lsls	r1, r1, #2
 497              	.LVL24:
 498 0014 01EBC010 		add	r0, r1, r0, lsl #7
 499              	.LVL25:
 500 0018 00F5A040 		add	r0, r0, #20480
 501 001c 0230     		adds	r0, r0, #2
 502 001e 80B2     		uxth	r0, r0
 503              	.LVL26:
 318:Generated_Source\PSoC5/MDIO_Host_1.c ****    	CY_SET_REG16(MDIO_Host_1_FIFO_F0_PTR, control_bits);
 504              		.loc 1 318 0
 505 0020 0549     		ldr	r1, .L42+4
 506 0022 0880     		strh	r0, [r1]	@ movhi
 319:Generated_Source\PSoC5/MDIO_Host_1.c ****    
 320:Generated_Source\PSoC5/MDIO_Host_1.c ****    	/* Write data bits in the fifo f0 */
 321:Generated_Source\PSoC5/MDIO_Host_1.c ****    	CY_SET_REG16(MDIO_Host_1_FIFO_F0_PTR, reg_data);
 507              		.loc 1 321 0
 508 0024 0A80     		strh	r2, [r1]	@ movhi
 322:Generated_Source\PSoC5/MDIO_Host_1.c ****     
 323:Generated_Source\PSoC5/MDIO_Host_1.c ****    	/* Start Transmission */
 324:Generated_Source\PSoC5/MDIO_Host_1.c ****    	MDIO_Host_1_CONTROL_REG |= MDIO_Host_1_START;
 509              		.loc 1 324 0
 510 0026 1A78     		ldrb	r2, [r3]	@ zero_extendqisi2
 511              	.LVL27:
 512 0028 42F00202 		orr	r2, r2, #2
 513 002c 1A70     		strb	r2, [r3]
 514              	.LVL28:
 325:Generated_Source\PSoC5/MDIO_Host_1.c **** }
 515              		.loc 1 325 0
 516 002e 5DF8044B 		ldr	r4, [sp], #4
 517              		.cfi_restore 4
ARM GAS  C:\Users\kopusov.FT\AppData\Local\Temp\ccIFSmHb.s 			page 16


 518              		.cfi_def_cfa_offset 0
 519 0032 7047     		bx	lr
 520              	.L43:
 521              		.align	2
 522              	.L42:
 523 0034 75650040 		.word	1073767797
 524 0038 44650040 		.word	1073767748
 525              		.cfi_endproc
 526              	.LFE73:
 527              		.size	MDIO_Host_1_WriteDataC22, .-MDIO_Host_1_WriteDataC22
 528              		.section	.text.MDIO_Host_1_ReadDataC22,"ax",%progbits
 529              		.align	2
 530              		.global	MDIO_Host_1_ReadDataC22
 531              		.thumb
 532              		.thumb_func
 533              		.type	MDIO_Host_1_ReadDataC22, %function
 534              	MDIO_Host_1_ReadDataC22:
 535              	.LFB74:
 326:Generated_Source\PSoC5/MDIO_Host_1.c **** 
 327:Generated_Source\PSoC5/MDIO_Host_1.c **** /*******************************************************************************
 328:Generated_Source\PSoC5/MDIO_Host_1.c **** *
 329:Generated_Source\PSoC5/MDIO_Host_1.c **** * MDIO_Host_ReadData_C22()
 330:Generated_Source\PSoC5/MDIO_Host_1.c **** *
 331:Generated_Source\PSoC5/MDIO_Host_1.c **** *******************************************************************************/
 332:Generated_Source\PSoC5/MDIO_Host_1.c **** uint16 	MDIO_Host_1_ReadDataC22(uint8 phy_addr, uint8 dev_addr)
 333:Generated_Source\PSoC5/MDIO_Host_1.c **** {
 536              		.loc 1 333 0
 537              		.cfi_startproc
 538              		@ args = 0, pretend = 0, frame = 0
 539              		@ frame_needed = 0, uses_anonymous_args = 0
 540              		@ link register save eliminated.
 541              	.LVL29:
 334:Generated_Source\PSoC5/MDIO_Host_1.c ****    	uint16	control_bits;
 335:Generated_Source\PSoC5/MDIO_Host_1.c **** 
 336:Generated_Source\PSoC5/MDIO_Host_1.c **** 	/* Clear and Set the control register for writing */
 337:Generated_Source\PSoC5/MDIO_Host_1.c **** 	MDIO_Host_1_CONTROL_REG &= MDIO_Host_1_ENABLE;
 542              		.loc 1 337 0
 543 0000 104B     		ldr	r3, .L46
 544 0002 1A78     		ldrb	r2, [r3]	@ zero_extendqisi2
 545 0004 02F00102 		and	r2, r2, #1
 546 0008 1A70     		strb	r2, [r3]
 338:Generated_Source\PSoC5/MDIO_Host_1.c **** 	MDIO_Host_1_CONTROL_REG |= MDIO_Host_1_READ;
 547              		.loc 1 338 0
 548 000a 1A78     		ldrb	r2, [r3]	@ zero_extendqisi2
 549 000c 42F00402 		orr	r2, r2, #4
 550 0010 1A70     		strb	r2, [r3]
 339:Generated_Source\PSoC5/MDIO_Host_1.c **** 	
 340:Generated_Source\PSoC5/MDIO_Host_1.c ****    	/* Set the control bits and write in the fifo f0 */
 341:Generated_Source\PSoC5/MDIO_Host_1.c ****    	control_bits = 0x6003+(((uint16)phy_addr)<<7)+(((uint16)dev_addr)<<2);
 551              		.loc 1 341 0
 552 0012 8900     		lsls	r1, r1, #2
 553              	.LVL30:
 554 0014 01EBC010 		add	r0, r1, r0, lsl #7
 555              	.LVL31:
 556 0018 00F5C040 		add	r0, r0, #24576
 557 001c 0330     		adds	r0, r0, #3
 558 001e 80B2     		uxth	r0, r0
ARM GAS  C:\Users\kopusov.FT\AppData\Local\Temp\ccIFSmHb.s 			page 17


 559              	.LVL32:
 342:Generated_Source\PSoC5/MDIO_Host_1.c ****    	CY_SET_REG16(MDIO_Host_1_FIFO_F0_PTR, control_bits);
 560              		.loc 1 342 0
 561 0020 094A     		ldr	r2, .L46+4
 562 0022 1080     		strh	r0, [r2]	@ movhi
 343:Generated_Source\PSoC5/MDIO_Host_1.c ****     
 344:Generated_Source\PSoC5/MDIO_Host_1.c ****    	/* Start Transmission */
 345:Generated_Source\PSoC5/MDIO_Host_1.c ****    	MDIO_Host_1_CONTROL_REG |= MDIO_Host_1_START;
 563              		.loc 1 345 0
 564 0024 1A78     		ldrb	r2, [r3]	@ zero_extendqisi2
 565 0026 42F00202 		orr	r2, r2, #2
 566 002a 1A70     		strb	r2, [r3]
 567              	.L45:
 346:Generated_Source\PSoC5/MDIO_Host_1.c **** 	
 347:Generated_Source\PSoC5/MDIO_Host_1.c **** 	while ( MDIO_Host_1_StatusRegister != MDIO_Host_1_MDIO_STS_CMPLT );
 568              		.loc 1 347 0 discriminator 1
 569 002c 074B     		ldr	r3, .L46+8
 570 002e 1B78     		ldrb	r3, [r3]	@ zero_extendqisi2
 571 0030 DBB2     		uxtb	r3, r3
 572 0032 082B     		cmp	r3, #8
 573 0034 FAD1     		bne	.L45
 348:Generated_Source\PSoC5/MDIO_Host_1.c **** 	
 349:Generated_Source\PSoC5/MDIO_Host_1.c **** 	MDIO_Host_1_StatusRegister = 0x00u;
 574              		.loc 1 349 0
 575 0036 0022     		movs	r2, #0
 576 0038 044B     		ldr	r3, .L46+8
 577 003a 1A70     		strb	r2, [r3]
 350:Generated_Source\PSoC5/MDIO_Host_1.c **** 	
 351:Generated_Source\PSoC5/MDIO_Host_1.c **** 	return MDIO_Host_1_data_bits;
 578              		.loc 1 351 0
 579 003c 044B     		ldr	r3, .L46+12
 580 003e 1888     		ldrh	r0, [r3]
 581              	.LVL33:
 352:Generated_Source\PSoC5/MDIO_Host_1.c **** }
 582              		.loc 1 352 0
 583 0040 80B2     		uxth	r0, r0
 584 0042 7047     		bx	lr
 585              	.L47:
 586              		.align	2
 587              	.L46:
 588 0044 75650040 		.word	1073767797
 589 0048 44650040 		.word	1073767748
 590 004c 00000000 		.word	MDIO_Host_1_StatusRegister
 591 0050 00000000 		.word	MDIO_Host_1_data_bits
 592              		.cfi_endproc
 593              	.LFE74:
 594              		.size	MDIO_Host_1_ReadDataC22, .-MDIO_Host_1_ReadDataC22
 595              		.section	.text.MDIO_Host_1_ClearStatus,"ax",%progbits
 596              		.align	2
 597              		.global	MDIO_Host_1_ClearStatus
 598              		.thumb
 599              		.thumb_func
 600              		.type	MDIO_Host_1_ClearStatus, %function
 601              	MDIO_Host_1_ClearStatus:
 602              	.LFB75:
 353:Generated_Source\PSoC5/MDIO_Host_1.c **** 
 354:Generated_Source\PSoC5/MDIO_Host_1.c **** /*******************************************************************************
ARM GAS  C:\Users\kopusov.FT\AppData\Local\Temp\ccIFSmHb.s 			page 18


 355:Generated_Source\PSoC5/MDIO_Host_1.c **** *
 356:Generated_Source\PSoC5/MDIO_Host_1.c **** * MDIO_Host__ClearStatus()
 357:Generated_Source\PSoC5/MDIO_Host_1.c **** *
 358:Generated_Source\PSoC5/MDIO_Host_1.c **** *******************************************************************************/
 359:Generated_Source\PSoC5/MDIO_Host_1.c **** void  MDIO_Host_1_ClearStatus(void)
 360:Generated_Source\PSoC5/MDIO_Host_1.c **** {
 603              		.loc 1 360 0
 604              		.cfi_startproc
 605              		@ args = 0, pretend = 0, frame = 0
 606              		@ frame_needed = 0, uses_anonymous_args = 0
 607              		@ link register save eliminated.
 361:Generated_Source\PSoC5/MDIO_Host_1.c **** 	MDIO_Host_1_StatusRegister = 0x00u;
 608              		.loc 1 361 0
 609 0000 0022     		movs	r2, #0
 610 0002 014B     		ldr	r3, .L49
 611 0004 1A70     		strb	r2, [r3]
 612 0006 7047     		bx	lr
 613              	.L50:
 614              		.align	2
 615              	.L49:
 616 0008 00000000 		.word	MDIO_Host_1_StatusRegister
 617              		.cfi_endproc
 618              	.LFE75:
 619              		.size	MDIO_Host_1_ClearStatus, .-MDIO_Host_1_ClearStatus
 620              		.global	MDIO_Host_1_initVar
 621              		.bss
 622              		.set	.LANCHOR0,. + 0
 623              		.type	MDIO_Host_1_initVar, %object
 624              		.size	MDIO_Host_1_initVar, 1
 625              	MDIO_Host_1_initVar:
 626 0000 00       		.space	1
 627              		.text
 628              	.Letext0:
 629              		.file 2 "c:\\program files (x86)\\cypress\\psoc creator\\4.0\\psoc creator\\import\\gnu\\arm\\4.9.
 630              		.file 3 "c:\\program files (x86)\\cypress\\psoc creator\\4.0\\psoc creator\\import\\gnu\\arm\\4.9.
 631              		.file 4 "Generated_Source\\PSoC5/cytypes.h"
 632              		.file 5 "Generated_Source\\PSoC5/core_cm3.h"
 633              		.file 6 "Generated_Source\\PSoC5/CyLib.h"