ARM GAS  C:\Users\kopusov.FT\AppData\Local\Temp\ccT1QhKH.s 			page 1


   1              		.syntax unified
   2              		.cpu cortex-m3
   3              		.fpu softvfp
   4              		.eabi_attribute 20, 1
   5              		.eabi_attribute 21, 1
   6              		.eabi_attribute 23, 3
   7              		.eabi_attribute 24, 1
   8              		.eabi_attribute 25, 1
   9              		.eabi_attribute 26, 1
  10              		.eabi_attribute 30, 1
  11              		.eabi_attribute 34, 1
  12              		.eabi_attribute 18, 4
  13              		.thumb
  14              		.file	"MDIO_Interface.c"
  15              		.text
  16              	.Ltext0:
  17              		.cfi_sections	.debug_frame
  18              		.section	.text.MDIO_Interface_DmaEnable,"ax",%progbits
  19              		.align	2
  20              		.thumb
  21              		.thumb_func
  22              		.type	MDIO_Interface_DmaEnable, %function
  23              	MDIO_Interface_DmaEnable:
  24              	.LFB15:
  25              		.file 1 "Generated_Source\\PSoC5\\MDIO_Interface.c"
   1:Generated_Source\PSoC5/MDIO_Interface.c **** /*******************************************************************************
   2:Generated_Source\PSoC5/MDIO_Interface.c **** * File Name: MDIO_Interface.c
   3:Generated_Source\PSoC5/MDIO_Interface.c **** * Version 1.20
   4:Generated_Source\PSoC5/MDIO_Interface.c **** *
   5:Generated_Source\PSoC5/MDIO_Interface.c **** * Description:
   6:Generated_Source\PSoC5/MDIO_Interface.c **** *  This file provides the source code to the API for the MDIO Slave component.
   7:Generated_Source\PSoC5/MDIO_Interface.c **** *
   8:Generated_Source\PSoC5/MDIO_Interface.c **** * Note:
   9:Generated_Source\PSoC5/MDIO_Interface.c **** *
  10:Generated_Source\PSoC5/MDIO_Interface.c **** ********************************************************************************
  11:Generated_Source\PSoC5/MDIO_Interface.c **** * Copyright 2013-2014, Cypress Semiconductor Corporation.  All rights reserved.
  12:Generated_Source\PSoC5/MDIO_Interface.c **** * You may use this file only in accordance with the license, terms, conditions,
  13:Generated_Source\PSoC5/MDIO_Interface.c **** * disclaimers, and limitations in the end user license agreement accompanying
  14:Generated_Source\PSoC5/MDIO_Interface.c **** * the software package with which this file was provided.
  15:Generated_Source\PSoC5/MDIO_Interface.c **** *******************************************************************************/
  16:Generated_Source\PSoC5/MDIO_Interface.c **** 
  17:Generated_Source\PSoC5/MDIO_Interface.c **** #include "MDIO_Interface.h"
  18:Generated_Source\PSoC5/MDIO_Interface.c **** 
  19:Generated_Source\PSoC5/MDIO_Interface.c **** #if(MDIO_Interface_ADVANCED_MODE)
  20:Generated_Source\PSoC5/MDIO_Interface.c **** 
  21:Generated_Source\PSoC5/MDIO_Interface.c ****     #include "MDIO_Interface_REG.h"
  22:Generated_Source\PSoC5/MDIO_Interface.c ****     #include "MDIO_Interface_StartAddrDMA_dma.h"
  23:Generated_Source\PSoC5/MDIO_Interface.c ****     #include "MDIO_Interface_EndAddrDMA_dma.h"
  24:Generated_Source\PSoC5/MDIO_Interface.c ****     #include "MDIO_Interface_AddrDMA_dma.h"
  25:Generated_Source\PSoC5/MDIO_Interface.c ****     #include "MDIO_Interface_InfoDMA_dma.h"
  26:Generated_Source\PSoC5/MDIO_Interface.c ****     #include "MDIO_Interface_RdDMA_dma.h"
  27:Generated_Source\PSoC5/MDIO_Interface.c ****     #include "MDIO_Interface_WrDMA_dma.h"
  28:Generated_Source\PSoC5/MDIO_Interface.c ****     #include "MDIO_Interface_CfgDMA1_dma.h"
  29:Generated_Source\PSoC5/MDIO_Interface.c ****     #include "MDIO_Interface_CfgDMA2_dma.h"
  30:Generated_Source\PSoC5/MDIO_Interface.c ****     #include "MDIO_Interface_FwDMA1_dma.h"
  31:Generated_Source\PSoC5/MDIO_Interface.c ****     #include "MDIO_Interface_FwDMA2_dma.h"
  32:Generated_Source\PSoC5/MDIO_Interface.c **** 
ARM GAS  C:\Users\kopusov.FT\AppData\Local\Temp\ccT1QhKH.s 			page 2


  33:Generated_Source\PSoC5/MDIO_Interface.c ****     /* Start addresses of register spaces */
  34:Generated_Source\PSoC5/MDIO_Interface.c ****     static uint16 MDIO_Interface_pageStartAddr[MDIO_Interface_NUMBER_OF_PAGES] =
  35:Generated_Source\PSoC5/MDIO_Interface.c ****     {
  36:Generated_Source\PSoC5/MDIO_Interface.c ****         0x8000u, 0x8400u, 0x8800u, 0xA000u, 0xA200u, 0xA400u
  37:Generated_Source\PSoC5/MDIO_Interface.c ****     };
  38:Generated_Source\PSoC5/MDIO_Interface.c ****     /* End addresses of register spaces */
  39:Generated_Source\PSoC5/MDIO_Interface.c ****     static uint16 MDIO_Interface_pageEndAddr[MDIO_Interface_NUMBER_OF_PAGES] =
  40:Generated_Source\PSoC5/MDIO_Interface.c ****     {
  41:Generated_Source\PSoC5/MDIO_Interface.c ****         0x81FFu, 0x84FFu, 0x88FFu, 0xA07Fu, 0xA2FFu, 0xA47Fu
  42:Generated_Source\PSoC5/MDIO_Interface.c ****     };
  43:Generated_Source\PSoC5/MDIO_Interface.c **** 
  44:Generated_Source\PSoC5/MDIO_Interface.c ****     /* Register page start address DMA */
  45:Generated_Source\PSoC5/MDIO_Interface.c ****     static uint8 MDIO_Interface_pageStartAddrDMA_Chan;
  46:Generated_Source\PSoC5/MDIO_Interface.c ****     static uint8 MDIO_Interface_pageStartAddr_TD[1u];
  47:Generated_Source\PSoC5/MDIO_Interface.c **** 
  48:Generated_Source\PSoC5/MDIO_Interface.c ****     /* Register page end address DMA */
  49:Generated_Source\PSoC5/MDIO_Interface.c ****     static uint8 MDIO_Interface_pageEndAddrDMA_Chan;
  50:Generated_Source\PSoC5/MDIO_Interface.c ****     static uint8 MDIO_Interface_pageEndAddr_TD[1u];
  51:Generated_Source\PSoC5/MDIO_Interface.c **** 
  52:Generated_Source\PSoC5/MDIO_Interface.c ****     /* Register physical memory address DMA */
  53:Generated_Source\PSoC5/MDIO_Interface.c ****     static uint8 MDIO_Interface_regAddrDMA_Chan;
  54:Generated_Source\PSoC5/MDIO_Interface.c ****     static uint8 MDIO_Interface_regAddrDMA_TD[7u];
  55:Generated_Source\PSoC5/MDIO_Interface.c **** 
  56:Generated_Source\PSoC5/MDIO_Interface.c ****     /* Register page info DMA */
  57:Generated_Source\PSoC5/MDIO_Interface.c ****     static uint8 MDIO_Interface_pageInfoDMA_Chan;
  58:Generated_Source\PSoC5/MDIO_Interface.c ****     static uint8 MDIO_Interface_pageInfoDMA_TD[1u];
  59:Generated_Source\PSoC5/MDIO_Interface.c **** 
  60:Generated_Source\PSoC5/MDIO_Interface.c ****     /* Read DMA */
  61:Generated_Source\PSoC5/MDIO_Interface.c ****     static uint8 MDIO_Interface_rdDMA_Chan;
  62:Generated_Source\PSoC5/MDIO_Interface.c ****     static uint8 MDIO_Interface_rdDMA_TD[1u];
  63:Generated_Source\PSoC5/MDIO_Interface.c **** 
  64:Generated_Source\PSoC5/MDIO_Interface.c ****     /* Write DMA */
  65:Generated_Source\PSoC5/MDIO_Interface.c ****     static uint8 MDIO_Interface_wrDMA_Chan;
  66:Generated_Source\PSoC5/MDIO_Interface.c ****     static uint8 MDIO_Interface_wrDMA_TD[1u];
  67:Generated_Source\PSoC5/MDIO_Interface.c **** 
  68:Generated_Source\PSoC5/MDIO_Interface.c ****     /* Register configuration DMA */
  69:Generated_Source\PSoC5/MDIO_Interface.c ****     static uint8 MDIO_Interface_cfgDMA1_Chan;
  70:Generated_Source\PSoC5/MDIO_Interface.c ****     static uint8 MDIO_Interface_cfgDMA1_TD[1u];
  71:Generated_Source\PSoC5/MDIO_Interface.c ****     static uint8 MDIO_Interface_cfgDMA2_Chan;
  72:Generated_Source\PSoC5/MDIO_Interface.c ****     static uint8 MDIO_Interface_cfgDMA2_TD[2u];
  73:Generated_Source\PSoC5/MDIO_Interface.c **** 
  74:Generated_Source\PSoC5/MDIO_Interface.c ****     /* DMA used for data transfer from APIs */
  75:Generated_Source\PSoC5/MDIO_Interface.c ****     static uint8 MDIO_Interface_fwDMA1_Chan;
  76:Generated_Source\PSoC5/MDIO_Interface.c ****     static uint8 MDIO_Interface_fwDMA1_TD[1u];
  77:Generated_Source\PSoC5/MDIO_Interface.c ****     static uint8 MDIO_Interface_fwDMA2_Chan;
  78:Generated_Source\PSoC5/MDIO_Interface.c ****     static uint8 MDIO_Interface_fwDMA2_TD[1u];
  79:Generated_Source\PSoC5/MDIO_Interface.c **** 
  80:Generated_Source\PSoC5/MDIO_Interface.c ****     /* List of DMA channels used by component */
  81:Generated_Source\PSoC5/MDIO_Interface.c ****     static uint8 MDIO_Interface_dmaChannelList[MDIO_Interface_NUMBER_OF_CHANNELS];
  82:Generated_Source\PSoC5/MDIO_Interface.c **** 
  83:Generated_Source\PSoC5/MDIO_Interface.c ****     /* Address list of all register space data and configuration arrays */
  84:Generated_Source\PSoC5/MDIO_Interface.c ****     static uint32 MDIO_Interface_pageAddrList[MDIO_Interface_NUMBER_OF_PAGES];
  85:Generated_Source\PSoC5/MDIO_Interface.c ****     static uint32 MDIO_Interface_pageInfoList[MDIO_Interface_PAGE_INFO_SIZE];
  86:Generated_Source\PSoC5/MDIO_Interface.c **** 
  87:Generated_Source\PSoC5/MDIO_Interface.c ****     /* Function prototype to configure/release DMA */
  88:Generated_Source\PSoC5/MDIO_Interface.c ****     static void  MDIO_Interface_DmaInit(void) ;
  89:Generated_Source\PSoC5/MDIO_Interface.c ****     static void  MDIO_Interface_DmaEnable(void) ;
ARM GAS  C:\Users\kopusov.FT\AppData\Local\Temp\ccT1QhKH.s 			page 3


  90:Generated_Source\PSoC5/MDIO_Interface.c ****     static void  MDIO_Interface_DmaDisable(void) ;
  91:Generated_Source\PSoC5/MDIO_Interface.c ****     static uint8 MDIO_Interface_DmaIsComplete(uint8 chMask) ;
  92:Generated_Source\PSoC5/MDIO_Interface.c **** 
  93:Generated_Source\PSoC5/MDIO_Interface.c **** #endif /* MDIO_Interface_ADVANCED_MODE */
  94:Generated_Source\PSoC5/MDIO_Interface.c **** 
  95:Generated_Source\PSoC5/MDIO_Interface.c **** uint8 MDIO_Interface_initVar = 0u;
  96:Generated_Source\PSoC5/MDIO_Interface.c **** static uint8 MDIO_Interface_phyAddress;
  97:Generated_Source\PSoC5/MDIO_Interface.c **** static uint8 MDIO_Interface_devAddress;
  98:Generated_Source\PSoC5/MDIO_Interface.c **** 
  99:Generated_Source\PSoC5/MDIO_Interface.c **** 
 100:Generated_Source\PSoC5/MDIO_Interface.c **** /*******************************************************************************
 101:Generated_Source\PSoC5/MDIO_Interface.c **** * Function Name: MDIO_Interface_Enable
 102:Generated_Source\PSoC5/MDIO_Interface.c **** ********************************************************************************
 103:Generated_Source\PSoC5/MDIO_Interface.c **** *
 104:Generated_Source\PSoC5/MDIO_Interface.c **** * Summary:
 105:Generated_Source\PSoC5/MDIO_Interface.c **** *  Enables the MDIO Slave hardware.
 106:Generated_Source\PSoC5/MDIO_Interface.c **** *
 107:Generated_Source\PSoC5/MDIO_Interface.c **** * Parameters:
 108:Generated_Source\PSoC5/MDIO_Interface.c **** *  None.
 109:Generated_Source\PSoC5/MDIO_Interface.c **** *
 110:Generated_Source\PSoC5/MDIO_Interface.c **** * Return:
 111:Generated_Source\PSoC5/MDIO_Interface.c **** *  None.
 112:Generated_Source\PSoC5/MDIO_Interface.c **** *
 113:Generated_Source\PSoC5/MDIO_Interface.c **** * Reentrant:
 114:Generated_Source\PSoC5/MDIO_Interface.c **** *  No.
 115:Generated_Source\PSoC5/MDIO_Interface.c **** *
 116:Generated_Source\PSoC5/MDIO_Interface.c **** *******************************************************************************/
 117:Generated_Source\PSoC5/MDIO_Interface.c **** void MDIO_Interface_Enable(void) 
 118:Generated_Source\PSoC5/MDIO_Interface.c **** {
 119:Generated_Source\PSoC5/MDIO_Interface.c ****     uint8 enableInterrupts;
 120:Generated_Source\PSoC5/MDIO_Interface.c **** 
 121:Generated_Source\PSoC5/MDIO_Interface.c ****     enableInterrupts = CyEnterCriticalSection();
 122:Generated_Source\PSoC5/MDIO_Interface.c **** 
 123:Generated_Source\PSoC5/MDIO_Interface.c ****     /* Bit counter enabling */
 124:Generated_Source\PSoC5/MDIO_Interface.c ****     MDIO_Interface_BCNT_AUX_CTL_REG   |= MDIO_Interface_BCNT_EN;
 125:Generated_Source\PSoC5/MDIO_Interface.c ****     CyExitCriticalSection(enableInterrupts);
 126:Generated_Source\PSoC5/MDIO_Interface.c **** 
 127:Generated_Source\PSoC5/MDIO_Interface.c ****     #if(MDIO_Interface_ADVANCED_MODE)
 128:Generated_Source\PSoC5/MDIO_Interface.c ****         MDIO_Interface_DmaEnable();
 129:Generated_Source\PSoC5/MDIO_Interface.c ****     #endif /* MDIO_Interface_ADVANCED_MODE */
 130:Generated_Source\PSoC5/MDIO_Interface.c **** 
 131:Generated_Source\PSoC5/MDIO_Interface.c ****     /* Enable interrupts */
 132:Generated_Source\PSoC5/MDIO_Interface.c ****     MDIO_Interface_EnableInt();
 133:Generated_Source\PSoC5/MDIO_Interface.c **** 
 134:Generated_Source\PSoC5/MDIO_Interface.c ****     /* Enable component hardware */
 135:Generated_Source\PSoC5/MDIO_Interface.c ****     MDIO_Interface_CONTROL_REG |= MDIO_Interface_EN;
 136:Generated_Source\PSoC5/MDIO_Interface.c **** }
 137:Generated_Source\PSoC5/MDIO_Interface.c **** 
 138:Generated_Source\PSoC5/MDIO_Interface.c **** 
 139:Generated_Source\PSoC5/MDIO_Interface.c **** /*******************************************************************************
 140:Generated_Source\PSoC5/MDIO_Interface.c **** * Function Name: MDIO_Interface_Init
 141:Generated_Source\PSoC5/MDIO_Interface.c **** ********************************************************************************
 142:Generated_Source\PSoC5/MDIO_Interface.c **** *
 143:Generated_Source\PSoC5/MDIO_Interface.c **** * Summary:
 144:Generated_Source\PSoC5/MDIO_Interface.c **** *  Initializes the component, sets the physical and device address.
 145:Generated_Source\PSoC5/MDIO_Interface.c **** *
 146:Generated_Source\PSoC5/MDIO_Interface.c **** * Parameters:
ARM GAS  C:\Users\kopusov.FT\AppData\Local\Temp\ccT1QhKH.s 			page 4


 147:Generated_Source\PSoC5/MDIO_Interface.c **** *  None.
 148:Generated_Source\PSoC5/MDIO_Interface.c **** *
 149:Generated_Source\PSoC5/MDIO_Interface.c **** * Return:
 150:Generated_Source\PSoC5/MDIO_Interface.c **** *  None.
 151:Generated_Source\PSoC5/MDIO_Interface.c **** *
 152:Generated_Source\PSoC5/MDIO_Interface.c **** * Global Variables:
 153:Generated_Source\PSoC5/MDIO_Interface.c **** *  None.
 154:Generated_Source\PSoC5/MDIO_Interface.c **** *
 155:Generated_Source\PSoC5/MDIO_Interface.c **** * Reentrant:
 156:Generated_Source\PSoC5/MDIO_Interface.c **** *  No.
 157:Generated_Source\PSoC5/MDIO_Interface.c **** *
 158:Generated_Source\PSoC5/MDIO_Interface.c **** *******************************************************************************/
 159:Generated_Source\PSoC5/MDIO_Interface.c **** void MDIO_Interface_Init(void) 
 160:Generated_Source\PSoC5/MDIO_Interface.c **** {
 161:Generated_Source\PSoC5/MDIO_Interface.c ****     #if(MDIO_Interface_ADVANCED_MODE)
 162:Generated_Source\PSoC5/MDIO_Interface.c ****         static uint8 MDIO_Interface_dmaInitDone = 0u;
 163:Generated_Source\PSoC5/MDIO_Interface.c ****     #endif /* MDIO_Interface_ADVANCED_MODE */
 164:Generated_Source\PSoC5/MDIO_Interface.c ****     uint8 enableInterrupts;
 165:Generated_Source\PSoC5/MDIO_Interface.c **** 
 166:Generated_Source\PSoC5/MDIO_Interface.c ****     /* Set device address */
 167:Generated_Source\PSoC5/MDIO_Interface.c ****     MDIO_Interface_SetDevAddress(MDIO_Interface_INIT_DEVADDR);
 168:Generated_Source\PSoC5/MDIO_Interface.c ****     /* Set physical address */
 169:Generated_Source\PSoC5/MDIO_Interface.c ****     MDIO_Interface_UpdatePhyAddress();
 170:Generated_Source\PSoC5/MDIO_Interface.c **** 
 171:Generated_Source\PSoC5/MDIO_Interface.c ****     enableInterrupts = CyEnterCriticalSection();
 172:Generated_Source\PSoC5/MDIO_Interface.c ****     /* Set Read FIFO in Single Buffer Mode */
 173:Generated_Source\PSoC5/MDIO_Interface.c ****     MDIO_Interface_FP_AUX_CTL0_REG |= MDIO_Interface_F0_CLEAR;
 174:Generated_Source\PSoC5/MDIO_Interface.c ****     MDIO_Interface_FP_AUX_CTL1_REG |= MDIO_Interface_F0_CLEAR;
 175:Generated_Source\PSoC5/MDIO_Interface.c ****     CyExitCriticalSection(enableInterrupts);
 176:Generated_Source\PSoC5/MDIO_Interface.c **** 
 177:Generated_Source\PSoC5/MDIO_Interface.c ****     /* Set bit counter period */
 178:Generated_Source\PSoC5/MDIO_Interface.c ****     MDIO_Interface_BCNT_PERIOD_REG = MDIO_Interface_BCNT_PER;
 179:Generated_Source\PSoC5/MDIO_Interface.c **** 
 180:Generated_Source\PSoC5/MDIO_Interface.c ****     #if(MDIO_Interface_ADVANCED_MODE)
 181:Generated_Source\PSoC5/MDIO_Interface.c **** 
 182:Generated_Source\PSoC5/MDIO_Interface.c ****         /* Set size of register page info */
 183:Generated_Source\PSoC5/MDIO_Interface.c ****         CY_SET_REG16(MDIO_Interface_INFO_INC_PTR, MDIO_Interface_PAGE_INFO_INC);
 184:Generated_Source\PSoC5/MDIO_Interface.c ****         /* Set lower 16-bit address of page info array */
 185:Generated_Source\PSoC5/MDIO_Interface.c ****         CY_SET_REG16(MDIO_Interface_INFO_BASE_PTR, LO16((uint32)MDIO_Interface_pageInfoList));
 186:Generated_Source\PSoC5/MDIO_Interface.c ****         /* Set memory type of each register page */
 187:Generated_Source\PSoC5/MDIO_Interface.c ****         MDIO_Interface_MEM_TYPE_REG   = MDIO_Interface_PAGE_MEM_TYPE;
 188:Generated_Source\PSoC5/MDIO_Interface.c ****         /* Set data width of each register page */
 189:Generated_Source\PSoC5/MDIO_Interface.c ****         MDIO_Interface_PAGE_WIDTH_REG = MDIO_Interface_PAGE_DATA_WIDTH;
 190:Generated_Source\PSoC5/MDIO_Interface.c ****         /* Initialize Address analyzer DMAs */
 191:Generated_Source\PSoC5/MDIO_Interface.c ****         if(0u == MDIO_Interface_dmaInitDone)
 192:Generated_Source\PSoC5/MDIO_Interface.c ****         {
 193:Generated_Source\PSoC5/MDIO_Interface.c ****             MDIO_Interface_DmaInit();
 194:Generated_Source\PSoC5/MDIO_Interface.c ****             MDIO_Interface_dmaInitDone = 1u;
 195:Generated_Source\PSoC5/MDIO_Interface.c ****         }
 196:Generated_Source\PSoC5/MDIO_Interface.c **** 
 197:Generated_Source\PSoC5/MDIO_Interface.c ****     #endif /* MDIO_Interface_ADVANCED_MODE */
 198:Generated_Source\PSoC5/MDIO_Interface.c **** }
 199:Generated_Source\PSoC5/MDIO_Interface.c **** 
 200:Generated_Source\PSoC5/MDIO_Interface.c **** 
 201:Generated_Source\PSoC5/MDIO_Interface.c **** /*******************************************************************************
 202:Generated_Source\PSoC5/MDIO_Interface.c **** * Function Name: MDIO_Interface_Start
 203:Generated_Source\PSoC5/MDIO_Interface.c **** ********************************************************************************
ARM GAS  C:\Users\kopusov.FT\AppData\Local\Temp\ccT1QhKH.s 			page 5


 204:Generated_Source\PSoC5/MDIO_Interface.c **** *
 205:Generated_Source\PSoC5/MDIO_Interface.c **** * Summary:
 206:Generated_Source\PSoC5/MDIO_Interface.c **** *  Enables the component. Calls the Init() API if the component has not been
 207:Generated_Source\PSoC5/MDIO_Interface.c **** *  initialized before. Calls the Enable() API.
 208:Generated_Source\PSoC5/MDIO_Interface.c **** *
 209:Generated_Source\PSoC5/MDIO_Interface.c **** * Parameters:
 210:Generated_Source\PSoC5/MDIO_Interface.c **** *  None.
 211:Generated_Source\PSoC5/MDIO_Interface.c **** *
 212:Generated_Source\PSoC5/MDIO_Interface.c **** * Return:
 213:Generated_Source\PSoC5/MDIO_Interface.c **** *  None.
 214:Generated_Source\PSoC5/MDIO_Interface.c **** *
 215:Generated_Source\PSoC5/MDIO_Interface.c **** * Global Variables:
 216:Generated_Source\PSoC5/MDIO_Interface.c **** *  MDIO_Interface_initVar - used to check initial configuration, modified on
 217:Generated_Source\PSoC5/MDIO_Interface.c **** *  first function call.
 218:Generated_Source\PSoC5/MDIO_Interface.c **** *
 219:Generated_Source\PSoC5/MDIO_Interface.c **** * Reentrant:
 220:Generated_Source\PSoC5/MDIO_Interface.c **** *  No.
 221:Generated_Source\PSoC5/MDIO_Interface.c **** *
 222:Generated_Source\PSoC5/MDIO_Interface.c **** *******************************************************************************/
 223:Generated_Source\PSoC5/MDIO_Interface.c **** void MDIO_Interface_Start(void) 
 224:Generated_Source\PSoC5/MDIO_Interface.c **** {
 225:Generated_Source\PSoC5/MDIO_Interface.c ****     if(0u == MDIO_Interface_initVar)
 226:Generated_Source\PSoC5/MDIO_Interface.c ****     {
 227:Generated_Source\PSoC5/MDIO_Interface.c ****         MDIO_Interface_Init();
 228:Generated_Source\PSoC5/MDIO_Interface.c ****         MDIO_Interface_initVar = 1u;
 229:Generated_Source\PSoC5/MDIO_Interface.c ****     }
 230:Generated_Source\PSoC5/MDIO_Interface.c **** 
 231:Generated_Source\PSoC5/MDIO_Interface.c ****     MDIO_Interface_Enable();
 232:Generated_Source\PSoC5/MDIO_Interface.c **** }
 233:Generated_Source\PSoC5/MDIO_Interface.c **** 
 234:Generated_Source\PSoC5/MDIO_Interface.c **** 
 235:Generated_Source\PSoC5/MDIO_Interface.c **** /*******************************************************************************
 236:Generated_Source\PSoC5/MDIO_Interface.c **** * Function Name: MDIO_Interface_Stop
 237:Generated_Source\PSoC5/MDIO_Interface.c **** ********************************************************************************
 238:Generated_Source\PSoC5/MDIO_Interface.c **** *
 239:Generated_Source\PSoC5/MDIO_Interface.c **** * Summary:
 240:Generated_Source\PSoC5/MDIO_Interface.c **** *  Disables the MDIO interface.
 241:Generated_Source\PSoC5/MDIO_Interface.c **** *
 242:Generated_Source\PSoC5/MDIO_Interface.c **** * Parameters:
 243:Generated_Source\PSoC5/MDIO_Interface.c **** *  None.
 244:Generated_Source\PSoC5/MDIO_Interface.c **** *
 245:Generated_Source\PSoC5/MDIO_Interface.c **** * Return:
 246:Generated_Source\PSoC5/MDIO_Interface.c **** *  None.
 247:Generated_Source\PSoC5/MDIO_Interface.c **** *
 248:Generated_Source\PSoC5/MDIO_Interface.c **** * Reentrant:
 249:Generated_Source\PSoC5/MDIO_Interface.c **** *  No.
 250:Generated_Source\PSoC5/MDIO_Interface.c **** *
 251:Generated_Source\PSoC5/MDIO_Interface.c **** *******************************************************************************/
 252:Generated_Source\PSoC5/MDIO_Interface.c **** void MDIO_Interface_Stop(void) 
 253:Generated_Source\PSoC5/MDIO_Interface.c **** {
 254:Generated_Source\PSoC5/MDIO_Interface.c ****     uint8 enableInterrupts;
 255:Generated_Source\PSoC5/MDIO_Interface.c **** 
 256:Generated_Source\PSoC5/MDIO_Interface.c ****     MDIO_Interface_CONTROL_REG &= (uint8) ~MDIO_Interface_EN;
 257:Generated_Source\PSoC5/MDIO_Interface.c **** 
 258:Generated_Source\PSoC5/MDIO_Interface.c ****     /* Disable interrupt terminal */
 259:Generated_Source\PSoC5/MDIO_Interface.c ****     MDIO_Interface_DisableInt();
 260:Generated_Source\PSoC5/MDIO_Interface.c **** 
ARM GAS  C:\Users\kopusov.FT\AppData\Local\Temp\ccT1QhKH.s 			page 6


 261:Generated_Source\PSoC5/MDIO_Interface.c ****     /* Disable Address analyzer DMAs */
 262:Generated_Source\PSoC5/MDIO_Interface.c ****     #if(MDIO_Interface_ADVANCED_MODE)
 263:Generated_Source\PSoC5/MDIO_Interface.c ****         MDIO_Interface_DmaDisable();
 264:Generated_Source\PSoC5/MDIO_Interface.c ****     #endif /* MDIO_Interface_ADVANCED_MODE */
 265:Generated_Source\PSoC5/MDIO_Interface.c **** 
 266:Generated_Source\PSoC5/MDIO_Interface.c ****     enableInterrupts = CyEnterCriticalSection();
 267:Generated_Source\PSoC5/MDIO_Interface.c ****     /* Disable Bit counter */
 268:Generated_Source\PSoC5/MDIO_Interface.c ****     MDIO_Interface_BCNT_AUX_CTL_REG  &= (uint8) ~MDIO_Interface_BCNT_EN;
 269:Generated_Source\PSoC5/MDIO_Interface.c **** 
 270:Generated_Source\PSoC5/MDIO_Interface.c ****     #if(MDIO_Interface_ADVANCED_MODE)
 271:Generated_Source\PSoC5/MDIO_Interface.c ****         /* Clear start and end address FIFO buffers */
 272:Generated_Source\PSoC5/MDIO_Interface.c ****         MDIO_Interface_AC_AUX_CTL0_REG |= MDIO_Interface_FX_CLEAR;
 273:Generated_Source\PSoC5/MDIO_Interface.c ****         MDIO_Interface_AC_AUX_CTL0_REG &= (uint8) ~MDIO_Interface_FX_CLEAR;
 274:Generated_Source\PSoC5/MDIO_Interface.c ****         MDIO_Interface_AC_AUX_CTL1_REG |= MDIO_Interface_FX_CLEAR;
 275:Generated_Source\PSoC5/MDIO_Interface.c ****         MDIO_Interface_AC_AUX_CTL1_REG &= (uint8) ~MDIO_Interface_FX_CLEAR;
 276:Generated_Source\PSoC5/MDIO_Interface.c ****     #endif /* MDIO_Interface_ADVANCED_MODE */
 277:Generated_Source\PSoC5/MDIO_Interface.c **** 
 278:Generated_Source\PSoC5/MDIO_Interface.c ****     /* Clear Write FIFO buffer */
 279:Generated_Source\PSoC5/MDIO_Interface.c ****     MDIO_Interface_FP_AUX_CTL0_REG |= MDIO_Interface_F1_CLEAR;
 280:Generated_Source\PSoC5/MDIO_Interface.c ****     MDIO_Interface_FP_AUX_CTL0_REG &= (uint8) ~MDIO_Interface_F1_CLEAR;
 281:Generated_Source\PSoC5/MDIO_Interface.c ****     MDIO_Interface_FP_AUX_CTL1_REG |= MDIO_Interface_F1_CLEAR;
 282:Generated_Source\PSoC5/MDIO_Interface.c ****     MDIO_Interface_FP_AUX_CTL1_REG &= (uint8) ~MDIO_Interface_F1_CLEAR;
 283:Generated_Source\PSoC5/MDIO_Interface.c ****     CyExitCriticalSection(enableInterrupts);
 284:Generated_Source\PSoC5/MDIO_Interface.c **** }
 285:Generated_Source\PSoC5/MDIO_Interface.c **** 
 286:Generated_Source\PSoC5/MDIO_Interface.c **** 
 287:Generated_Source\PSoC5/MDIO_Interface.c **** /*******************************************************************************
 288:Generated_Source\PSoC5/MDIO_Interface.c **** * Function Name: MDIO_Interface_EnableInt
 289:Generated_Source\PSoC5/MDIO_Interface.c **** ********************************************************************************
 290:Generated_Source\PSoC5/MDIO_Interface.c **** *
 291:Generated_Source\PSoC5/MDIO_Interface.c **** * Summary:
 292:Generated_Source\PSoC5/MDIO_Interface.c **** *  Enables the terminal output interrupt.
 293:Generated_Source\PSoC5/MDIO_Interface.c **** *
 294:Generated_Source\PSoC5/MDIO_Interface.c **** * Parameters:
 295:Generated_Source\PSoC5/MDIO_Interface.c **** *  None.
 296:Generated_Source\PSoC5/MDIO_Interface.c **** *
 297:Generated_Source\PSoC5/MDIO_Interface.c **** * Return:
 298:Generated_Source\PSoC5/MDIO_Interface.c **** *  None.
 299:Generated_Source\PSoC5/MDIO_Interface.c **** *
 300:Generated_Source\PSoC5/MDIO_Interface.c **** *******************************************************************************/
 301:Generated_Source\PSoC5/MDIO_Interface.c **** void MDIO_Interface_EnableInt(void) 
 302:Generated_Source\PSoC5/MDIO_Interface.c **** {
 303:Generated_Source\PSoC5/MDIO_Interface.c ****     MDIO_Interface_CONTROL_REG |= MDIO_Interface_INT_EN;
 304:Generated_Source\PSoC5/MDIO_Interface.c **** }
 305:Generated_Source\PSoC5/MDIO_Interface.c **** 
 306:Generated_Source\PSoC5/MDIO_Interface.c **** 
 307:Generated_Source\PSoC5/MDIO_Interface.c **** /*******************************************************************************
 308:Generated_Source\PSoC5/MDIO_Interface.c **** * Function Name: MDIO_Interface_DisableInt
 309:Generated_Source\PSoC5/MDIO_Interface.c **** ********************************************************************************
 310:Generated_Source\PSoC5/MDIO_Interface.c **** *
 311:Generated_Source\PSoC5/MDIO_Interface.c **** * Summary:
 312:Generated_Source\PSoC5/MDIO_Interface.c **** *  Enables the terminal output interrupt.
 313:Generated_Source\PSoC5/MDIO_Interface.c **** *
 314:Generated_Source\PSoC5/MDIO_Interface.c **** * Parameters:
 315:Generated_Source\PSoC5/MDIO_Interface.c **** *  None.
 316:Generated_Source\PSoC5/MDIO_Interface.c **** *
 317:Generated_Source\PSoC5/MDIO_Interface.c **** * Return:
ARM GAS  C:\Users\kopusov.FT\AppData\Local\Temp\ccT1QhKH.s 			page 7


 318:Generated_Source\PSoC5/MDIO_Interface.c **** *  None.
 319:Generated_Source\PSoC5/MDIO_Interface.c **** *
 320:Generated_Source\PSoC5/MDIO_Interface.c **** *******************************************************************************/
 321:Generated_Source\PSoC5/MDIO_Interface.c **** void MDIO_Interface_DisableInt(void) 
 322:Generated_Source\PSoC5/MDIO_Interface.c **** {
 323:Generated_Source\PSoC5/MDIO_Interface.c ****     MDIO_Interface_CONTROL_REG &= (uint8) ~MDIO_Interface_INT_EN;
 324:Generated_Source\PSoC5/MDIO_Interface.c **** }
 325:Generated_Source\PSoC5/MDIO_Interface.c **** 
 326:Generated_Source\PSoC5/MDIO_Interface.c **** 
 327:Generated_Source\PSoC5/MDIO_Interface.c **** /*******************************************************************************
 328:Generated_Source\PSoC5/MDIO_Interface.c **** * Function Name: MDIO_Interface_SetDevAddress
 329:Generated_Source\PSoC5/MDIO_Interface.c **** ********************************************************************************
 330:Generated_Source\PSoC5/MDIO_Interface.c **** * Summary:
 331:Generated_Source\PSoC5/MDIO_Interface.c **** *  Sets the 5-bit device address for the MDIO slave.
 332:Generated_Source\PSoC5/MDIO_Interface.c **** *
 333:Generated_Source\PSoC5/MDIO_Interface.c **** * Parameters:
 334:Generated_Source\PSoC5/MDIO_Interface.c **** *  Byte containing the constant for the MDIO device address.
 335:Generated_Source\PSoC5/MDIO_Interface.c **** *   MDIO_Interface_PMA_PMD
 336:Generated_Source\PSoC5/MDIO_Interface.c **** *   MDIO_Interface_WIS
 337:Generated_Source\PSoC5/MDIO_Interface.c **** *   MDIO_Interface_PCS
 338:Generated_Source\PSoC5/MDIO_Interface.c **** *   MDIO_Interface_PHY_XS
 339:Generated_Source\PSoC5/MDIO_Interface.c **** *   MDIO_Interface_DTE_XS
 340:Generated_Source\PSoC5/MDIO_Interface.c **** *
 341:Generated_Source\PSoC5/MDIO_Interface.c **** * Return:
 342:Generated_Source\PSoC5/MDIO_Interface.c **** *  None.
 343:Generated_Source\PSoC5/MDIO_Interface.c **** *
 344:Generated_Source\PSoC5/MDIO_Interface.c **** ********************************************************************************/
 345:Generated_Source\PSoC5/MDIO_Interface.c **** void MDIO_Interface_SetDevAddress(uint8 devAddr) 
 346:Generated_Source\PSoC5/MDIO_Interface.c **** {
 347:Generated_Source\PSoC5/MDIO_Interface.c ****     /* Update the address pattern with the device address */
 348:Generated_Source\PSoC5/MDIO_Interface.c ****     CY_SET_REG16(MDIO_Interface_ADDR_PTRN_PTR, MDIO_Interface_ADDR_PATTERN |
 349:Generated_Source\PSoC5/MDIO_Interface.c ****                  (uint16)((uint16)MDIO_Interface_phyAddress << MDIO_Interface_PHYADDR_POS) | devAdd
 350:Generated_Source\PSoC5/MDIO_Interface.c ****     MDIO_Interface_devAddress = devAddr;
 351:Generated_Source\PSoC5/MDIO_Interface.c **** }
 352:Generated_Source\PSoC5/MDIO_Interface.c **** 
 353:Generated_Source\PSoC5/MDIO_Interface.c **** 
 354:Generated_Source\PSoC5/MDIO_Interface.c **** /*******************************************************************************
 355:Generated_Source\PSoC5/MDIO_Interface.c **** * Function Name: MDIO_Interface_SetPhyAddress
 356:Generated_Source\PSoC5/MDIO_Interface.c **** ********************************************************************************
 357:Generated_Source\PSoC5/MDIO_Interface.c **** * Summary:
 358:Generated_Source\PSoC5/MDIO_Interface.c **** *  Sets the 5-bit or 3-bit physical address for the MDIO slave device. When the
 359:Generated_Source\PSoC5/MDIO_Interface.c **** *  address is 3-bit, the 2 MSB bits of the physical address from an MDIO frame
 360:Generated_Source\PSoC5/MDIO_Interface.c **** *  are ignored.
 361:Generated_Source\PSoC5/MDIO_Interface.c **** *
 362:Generated_Source\PSoC5/MDIO_Interface.c **** * Parameters:
 363:Generated_Source\PSoC5/MDIO_Interface.c **** *  The physical address for the MDIO Slave.
 364:Generated_Source\PSoC5/MDIO_Interface.c **** *
 365:Generated_Source\PSoC5/MDIO_Interface.c **** * Return:
 366:Generated_Source\PSoC5/MDIO_Interface.c **** *  None.
 367:Generated_Source\PSoC5/MDIO_Interface.c **** *
 368:Generated_Source\PSoC5/MDIO_Interface.c **** ********************************************************************************/
 369:Generated_Source\PSoC5/MDIO_Interface.c **** void MDIO_Interface_SetPhyAddress(uint8 phyAddr) 
 370:Generated_Source\PSoC5/MDIO_Interface.c **** {
 371:Generated_Source\PSoC5/MDIO_Interface.c ****     phyAddr &= MDIO_Interface_PHYADDR_MASK;
 372:Generated_Source\PSoC5/MDIO_Interface.c **** 
 373:Generated_Source\PSoC5/MDIO_Interface.c ****     /* Update the address pattern with the physical address */
 374:Generated_Source\PSoC5/MDIO_Interface.c ****     CY_SET_REG16(MDIO_Interface_ADDR_PTRN_PTR, MDIO_Interface_ADDR_PATTERN |
ARM GAS  C:\Users\kopusov.FT\AppData\Local\Temp\ccT1QhKH.s 			page 8


 375:Generated_Source\PSoC5/MDIO_Interface.c ****                  (uint16)((uint16) phyAddr << MDIO_Interface_PHYADDR_POS) | MDIO_Interface_devAddre
 376:Generated_Source\PSoC5/MDIO_Interface.c **** 
 377:Generated_Source\PSoC5/MDIO_Interface.c ****     MDIO_Interface_phyAddress = phyAddr;
 378:Generated_Source\PSoC5/MDIO_Interface.c **** }
 379:Generated_Source\PSoC5/MDIO_Interface.c **** 
 380:Generated_Source\PSoC5/MDIO_Interface.c **** 
 381:Generated_Source\PSoC5/MDIO_Interface.c **** /*******************************************************************************
 382:Generated_Source\PSoC5/MDIO_Interface.c **** * Function Name: MDIO_Interface_UpdatePhyAddress
 383:Generated_Source\PSoC5/MDIO_Interface.c **** ********************************************************************************
 384:Generated_Source\PSoC5/MDIO_Interface.c **** * Summary:
 385:Generated_Source\PSoC5/MDIO_Interface.c **** *  Updates the physical address based on the current phy_addr[4:0] input.
 386:Generated_Source\PSoC5/MDIO_Interface.c **** *  If the physical address mode is configured to firmware, the physical address
 387:Generated_Source\PSoC5/MDIO_Interface.c **** *  is set equal to the default value from the customizer.
 388:Generated_Source\PSoC5/MDIO_Interface.c **** *
 389:Generated_Source\PSoC5/MDIO_Interface.c **** * Parameters:
 390:Generated_Source\PSoC5/MDIO_Interface.c **** *  None.
 391:Generated_Source\PSoC5/MDIO_Interface.c **** *
 392:Generated_Source\PSoC5/MDIO_Interface.c **** * Return:
 393:Generated_Source\PSoC5/MDIO_Interface.c **** *  None.
 394:Generated_Source\PSoC5/MDIO_Interface.c **** *
 395:Generated_Source\PSoC5/MDIO_Interface.c **** * Side Effects:
 396:Generated_Source\PSoC5/MDIO_Interface.c **** *  None.
 397:Generated_Source\PSoC5/MDIO_Interface.c **** *
 398:Generated_Source\PSoC5/MDIO_Interface.c **** ********************************************************************************/
 399:Generated_Source\PSoC5/MDIO_Interface.c **** void MDIO_Interface_UpdatePhyAddress(void) 
 400:Generated_Source\PSoC5/MDIO_Interface.c **** {
 401:Generated_Source\PSoC5/MDIO_Interface.c ****     #if(MDIO_Interface_PHYADDR_HARDWARE)
 402:Generated_Source\PSoC5/MDIO_Interface.c ****         MDIO_Interface_SetPhyAddress(MDIO_Interface_PHYADDR_REG);
 403:Generated_Source\PSoC5/MDIO_Interface.c ****     #else
 404:Generated_Source\PSoC5/MDIO_Interface.c ****         MDIO_Interface_SetPhyAddress(MDIO_Interface_INIT_PHYADDR);
 405:Generated_Source\PSoC5/MDIO_Interface.c ****     #endif /* MDIO_Interface_PHYADDR_HARDWARE */
 406:Generated_Source\PSoC5/MDIO_Interface.c **** }
 407:Generated_Source\PSoC5/MDIO_Interface.c **** 
 408:Generated_Source\PSoC5/MDIO_Interface.c **** #if (MDIO_Interface_BASIC_MODE)
 409:Generated_Source\PSoC5/MDIO_Interface.c **** 
 410:Generated_Source\PSoC5/MDIO_Interface.c **** 
 411:Generated_Source\PSoC5/MDIO_Interface.c ****     /***************************************************************************
 412:Generated_Source\PSoC5/MDIO_Interface.c ****     * Function Name: MDIO_Interface_PutData
 413:Generated_Source\PSoC5/MDIO_Interface.c ****     ****************************************************************************
 414:Generated_Source\PSoC5/MDIO_Interface.c ****     * Summary:
 415:Generated_Source\PSoC5/MDIO_Interface.c ****     *  Writes the given data in the internal FIFO, which will be transmitted to
 416:Generated_Source\PSoC5/MDIO_Interface.c ****     *  the host in the next frame.
 417:Generated_Source\PSoC5/MDIO_Interface.c ****     *
 418:Generated_Source\PSoC5/MDIO_Interface.c ****     * Parameters:
 419:Generated_Source\PSoC5/MDIO_Interface.c ****     *  Data to be transmitted.
 420:Generated_Source\PSoC5/MDIO_Interface.c ****     *
 421:Generated_Source\PSoC5/MDIO_Interface.c ****     * Return:
 422:Generated_Source\PSoC5/MDIO_Interface.c ****     *  None.
 423:Generated_Source\PSoC5/MDIO_Interface.c ****     *
 424:Generated_Source\PSoC5/MDIO_Interface.c ****     * Side Effects:
 425:Generated_Source\PSoC5/MDIO_Interface.c ****     *  None.
 426:Generated_Source\PSoC5/MDIO_Interface.c ****     *
 427:Generated_Source\PSoC5/MDIO_Interface.c ****     ****************************************************************************/
 428:Generated_Source\PSoC5/MDIO_Interface.c ****     void MDIO_Interface_PutData(uint16 regData) 
 429:Generated_Source\PSoC5/MDIO_Interface.c ****     {
 430:Generated_Source\PSoC5/MDIO_Interface.c ****         CY_SET_REG16(MDIO_Interface_FP_FIFO0_PTR, regData);
 431:Generated_Source\PSoC5/MDIO_Interface.c ****     }
ARM GAS  C:\Users\kopusov.FT\AppData\Local\Temp\ccT1QhKH.s 			page 9


 432:Generated_Source\PSoC5/MDIO_Interface.c **** 
 433:Generated_Source\PSoC5/MDIO_Interface.c **** 
 434:Generated_Source\PSoC5/MDIO_Interface.c ****     /***************************************************************************
 435:Generated_Source\PSoC5/MDIO_Interface.c ****     * Function Name: MDIO_Interface_ProcessFrame
 436:Generated_Source\PSoC5/MDIO_Interface.c ****     ****************************************************************************
 437:Generated_Source\PSoC5/MDIO_Interface.c ****     * Summary:
 438:Generated_Source\PSoC5/MDIO_Interface.c ****     *  Process and parse the the last frame received from the host.
 439:Generated_Source\PSoC5/MDIO_Interface.c ****     *
 440:Generated_Source\PSoC5/MDIO_Interface.c ****     * Parameters:
 441:Generated_Source\PSoC5/MDIO_Interface.c ****     *  opCode: operational code.
 442:Generated_Source\PSoC5/MDIO_Interface.c ****     *  regData: register data received.
 443:Generated_Source\PSoC5/MDIO_Interface.c ****     *
 444:Generated_Source\PSoC5/MDIO_Interface.c ****     * Return:
 445:Generated_Source\PSoC5/MDIO_Interface.c ****     *  None.
 446:Generated_Source\PSoC5/MDIO_Interface.c ****     *
 447:Generated_Source\PSoC5/MDIO_Interface.c ****     ****************************************************************************/
 448:Generated_Source\PSoC5/MDIO_Interface.c ****     void MDIO_Interface_ProcessFrame(uint8 * opCode, uint16 * regData)
 449:Generated_Source\PSoC5/MDIO_Interface.c ****                                                                      
 450:Generated_Source\PSoC5/MDIO_Interface.c ****     {
 451:Generated_Source\PSoC5/MDIO_Interface.c ****         uint16 controlBits;
 452:Generated_Source\PSoC5/MDIO_Interface.c **** 
 453:Generated_Source\PSoC5/MDIO_Interface.c ****         /* Get control bits */
 454:Generated_Source\PSoC5/MDIO_Interface.c ****         controlBits = CY_GET_REG16(MDIO_Interface_FP_FIFO1_PTR);
 455:Generated_Source\PSoC5/MDIO_Interface.c **** 
 456:Generated_Source\PSoC5/MDIO_Interface.c ****         /* Get data */
 457:Generated_Source\PSoC5/MDIO_Interface.c ****         *regData = CY_GET_REG16(MDIO_Interface_FP_FIFO1_PTR);
 458:Generated_Source\PSoC5/MDIO_Interface.c **** 
 459:Generated_Source\PSoC5/MDIO_Interface.c ****         /* Parse Control bits to obtain operation code */
 460:Generated_Source\PSoC5/MDIO_Interface.c ****         *opCode = (((uint8)(controlBits >> MDIO_Interface_OPCODE_POS)) & MDIO_Interface_OPCODE_MASK
 461:Generated_Source\PSoC5/MDIO_Interface.c ****     }
 462:Generated_Source\PSoC5/MDIO_Interface.c **** 
 463:Generated_Source\PSoC5/MDIO_Interface.c **** #endif /* MDIO_Interface_BASIC_MODE */
 464:Generated_Source\PSoC5/MDIO_Interface.c **** 
 465:Generated_Source\PSoC5/MDIO_Interface.c **** #if(MDIO_Interface_ADVANCED_MODE)
 466:Generated_Source\PSoC5/MDIO_Interface.c **** 
 467:Generated_Source\PSoC5/MDIO_Interface.c ****     /***************************************************************************
 468:Generated_Source\PSoC5/MDIO_Interface.c ****     * Function Name: MDIO_Interface_GetAddress
 469:Generated_Source\PSoC5/MDIO_Interface.c ****     ****************************************************************************
 470:Generated_Source\PSoC5/MDIO_Interface.c ****     * Summary:
 471:Generated_Source\PSoC5/MDIO_Interface.c ****     *  Returns the last address written by the MDIO host.
 472:Generated_Source\PSoC5/MDIO_Interface.c ****     *
 473:Generated_Source\PSoC5/MDIO_Interface.c ****     * Parameters:
 474:Generated_Source\PSoC5/MDIO_Interface.c ****     *  None.
 475:Generated_Source\PSoC5/MDIO_Interface.c ****     *
 476:Generated_Source\PSoC5/MDIO_Interface.c ****     * Return:
 477:Generated_Source\PSoC5/MDIO_Interface.c ****     *  16-bit address.
 478:Generated_Source\PSoC5/MDIO_Interface.c ****     *
 479:Generated_Source\PSoC5/MDIO_Interface.c ****     ***************************************************************************/
 480:Generated_Source\PSoC5/MDIO_Interface.c ****     uint16 MDIO_Interface_GetAddress(void)    
 481:Generated_Source\PSoC5/MDIO_Interface.c ****     {
 482:Generated_Source\PSoC5/MDIO_Interface.c ****         return(CY_GET_REG16(MDIO_Interface_LAST_ADDR_PTR));
 483:Generated_Source\PSoC5/MDIO_Interface.c ****     }
 484:Generated_Source\PSoC5/MDIO_Interface.c **** 
 485:Generated_Source\PSoC5/MDIO_Interface.c **** 
 486:Generated_Source\PSoC5/MDIO_Interface.c ****     /***************************************************************************
 487:Generated_Source\PSoC5/MDIO_Interface.c ****     * Function Name: MDIO_Interface_GetData
 488:Generated_Source\PSoC5/MDIO_Interface.c ****     ****************************************************************************
ARM GAS  C:\Users\kopusov.FT\AppData\Local\Temp\ccT1QhKH.s 			page 10


 489:Generated_Source\PSoC5/MDIO_Interface.c ****     * Summary:
 490:Generated_Source\PSoC5/MDIO_Interface.c ****     *  Returns numWords values starting from the given address. If any address
 491:Generated_Source\PSoC5/MDIO_Interface.c ****     *  does not belong to the allocated register space, it returns an error.
 492:Generated_Source\PSoC5/MDIO_Interface.c ****     *
 493:Generated_Source\PSoC5/MDIO_Interface.c ****     * Parameters:
 494:Generated_Source\PSoC5/MDIO_Interface.c ****     *  address : address to be accessed.
 495:Generated_Source\PSoC5/MDIO_Interface.c ****     *  regData : array with the read data.
 496:Generated_Source\PSoC5/MDIO_Interface.c ****     *  numWords: number of words to be read.
 497:Generated_Source\PSoC5/MDIO_Interface.c ****     *
 498:Generated_Source\PSoC5/MDIO_Interface.c ****     * Return:
 499:Generated_Source\PSoC5/MDIO_Interface.c ****     *  CYRET_SUCCESS  : Operation is successful.
 500:Generated_Source\PSoC5/MDIO_Interface.c ****     *  CYRET_BAD_PARAM: One or more invalid parameters.
 501:Generated_Source\PSoC5/MDIO_Interface.c ****     *  CYRET_TIMEOUT  : Operation timed out.
 502:Generated_Source\PSoC5/MDIO_Interface.c ****     *
 503:Generated_Source\PSoC5/MDIO_Interface.c ****     * Side Effects:
 504:Generated_Source\PSoC5/MDIO_Interface.c ****     *  The word count of zero will be interpreted as a request for indefinite
 505:Generated_Source\PSoC5/MDIO_Interface.c ****     *  transfer.
 506:Generated_Source\PSoC5/MDIO_Interface.c ****     *
 507:Generated_Source\PSoC5/MDIO_Interface.c ****     ****************************************************************************/
 508:Generated_Source\PSoC5/MDIO_Interface.c ****     uint8 MDIO_Interface_GetData(uint16 address, const uint16 * regData, uint16 numWords)
 509:Generated_Source\PSoC5/MDIO_Interface.c ****                                                             
 510:Generated_Source\PSoC5/MDIO_Interface.c ****     {
 511:Generated_Source\PSoC5/MDIO_Interface.c ****         uint8  result = CYRET_BAD_PARAM;
 512:Generated_Source\PSoC5/MDIO_Interface.c ****         uint8  i;
 513:Generated_Source\PSoC5/MDIO_Interface.c ****         uint16 idx;
 514:Generated_Source\PSoC5/MDIO_Interface.c ****         uint32 memAddr;
 515:Generated_Source\PSoC5/MDIO_Interface.c **** 
 516:Generated_Source\PSoC5/MDIO_Interface.c ****         for(i = 0u; (i < MDIO_Interface_NUMBER_OF_PAGES) && (result != CYRET_SUCCESS); i++)
 517:Generated_Source\PSoC5/MDIO_Interface.c ****         {
 518:Generated_Source\PSoC5/MDIO_Interface.c ****             /* Check if address belongs to one of register spaces */
 519:Generated_Source\PSoC5/MDIO_Interface.c ****             if((address >= MDIO_Interface_pageStartAddr[i]) && (address <= MDIO_Interface_pageEndAd
 520:Generated_Source\PSoC5/MDIO_Interface.c ****             {
 521:Generated_Source\PSoC5/MDIO_Interface.c ****                 /* Check whether there is enough data to be read */
 522:Generated_Source\PSoC5/MDIO_Interface.c ****                 #if(!MDIO_Interface_ALL_PAGES_16BIT)
 523:Generated_Source\PSoC5/MDIO_Interface.c ****                     #if(!MDIO_Interface_ALL_PAGES_8BIT)
 524:Generated_Source\PSoC5/MDIO_Interface.c ****                     if(MDIO_Interface_REG_SPACE_IS_8BIT(i))
 525:Generated_Source\PSoC5/MDIO_Interface.c ****                     #endif /* !MDIO_Interface_ALL_PAGES_8BIT */
 526:Generated_Source\PSoC5/MDIO_Interface.c ****                     {
 527:Generated_Source\PSoC5/MDIO_Interface.c ****                         numWords += numWords;
 528:Generated_Source\PSoC5/MDIO_Interface.c ****                     }
 529:Generated_Source\PSoC5/MDIO_Interface.c ****                 #endif /* !MDIO_Interface_ALL_PAGES_16BIT */
 530:Generated_Source\PSoC5/MDIO_Interface.c **** 
 531:Generated_Source\PSoC5/MDIO_Interface.c ****                 if(numWords <= ((MDIO_Interface_pageEndAddr[i] - address) + 1u))
 532:Generated_Source\PSoC5/MDIO_Interface.c ****                 {
 533:Generated_Source\PSoC5/MDIO_Interface.c ****                     idx = address - MDIO_Interface_pageStartAddr[i];
 534:Generated_Source\PSoC5/MDIO_Interface.c **** 
 535:Generated_Source\PSoC5/MDIO_Interface.c ****                     #if(!MDIO_Interface_ALL_PAGES_8BIT)
 536:Generated_Source\PSoC5/MDIO_Interface.c ****                         #if(!MDIO_Interface_ALL_PAGES_16BIT)
 537:Generated_Source\PSoC5/MDIO_Interface.c ****                         if(MDIO_Interface_REG_SPACE_IS_16BIT(i))
 538:Generated_Source\PSoC5/MDIO_Interface.c ****                         #endif /* !MDIO_Interface_ALL_PAGES_16BIT */
 539:Generated_Source\PSoC5/MDIO_Interface.c ****                         {
 540:Generated_Source\PSoC5/MDIO_Interface.c ****                             /* If 16-bit space is accessed */
 541:Generated_Source\PSoC5/MDIO_Interface.c ****                             idx += idx;
 542:Generated_Source\PSoC5/MDIO_Interface.c ****                             numWords += numWords; /* TD_SIZE is expected in bytes */
 543:Generated_Source\PSoC5/MDIO_Interface.c ****                         }
 544:Generated_Source\PSoC5/MDIO_Interface.c ****                     #endif /* !MDIO_Interface_ALL_PAGES_8BIT */
 545:Generated_Source\PSoC5/MDIO_Interface.c **** 
ARM GAS  C:\Users\kopusov.FT\AppData\Local\Temp\ccT1QhKH.s 			page 11


 546:Generated_Source\PSoC5/MDIO_Interface.c ****                     memAddr = MDIO_Interface_pageAddrList[i] + idx;
 547:Generated_Source\PSoC5/MDIO_Interface.c **** 
 548:Generated_Source\PSoC5/MDIO_Interface.c ****                     /* Configure DMA transfer. Return values are ignored because
 549:Generated_Source\PSoC5/MDIO_Interface.c ****                     * channel number and TD handle are allocated once during the
 550:Generated_Source\PSoC5/MDIO_Interface.c ****                     * component initialization procedure and do not change in run time.
 551:Generated_Source\PSoC5/MDIO_Interface.c ****                     */
 552:Generated_Source\PSoC5/MDIO_Interface.c ****                     MDIO_Interface_fwDMA1_Chan = MDIO_Interface_FwDMA1_DmaInitialize(
 553:Generated_Source\PSoC5/MDIO_Interface.c ****                         MDIO_Interface_FW_DMA_BYTES_PER_BURST, MDIO_Interface_FW_DMA_REQUEST_PER_BU
 554:Generated_Source\PSoC5/MDIO_Interface.c ****                         HI16(memAddr), HI16(CYDEV_SRAM_BASE));
 555:Generated_Source\PSoC5/MDIO_Interface.c ****                     (void) CyDmaTdSetConfiguration(MDIO_Interface_fwDMA1_TD[0u], numWords,
 556:Generated_Source\PSoC5/MDIO_Interface.c ****                         DMA_INVALID_TD, MDIO_Interface_FW_DMA1_CFG);
 557:Generated_Source\PSoC5/MDIO_Interface.c ****                     (void) CyDmaTdSetAddress(MDIO_Interface_fwDMA1_TD[0u], LO16(memAddr), LO16((uin
 558:Generated_Source\PSoC5/MDIO_Interface.c **** 
 559:Generated_Source\PSoC5/MDIO_Interface.c ****                     /* Clear DMA status in case if previous transfer failed */
 560:Generated_Source\PSoC5/MDIO_Interface.c ****                     MDIO_Interface_CLEAR_FW_DMA_STATUS;
 561:Generated_Source\PSoC5/MDIO_Interface.c **** 
 562:Generated_Source\PSoC5/MDIO_Interface.c ****                     /* Trigger DMA and wait for completion */
 563:Generated_Source\PSoC5/MDIO_Interface.c ****                     (void) CyDmaChSetRequest(MDIO_Interface_fwDMA1_Chan, CPU_REQ);
 564:Generated_Source\PSoC5/MDIO_Interface.c ****                     result = MDIO_Interface_DmaIsComplete(MDIO_Interface_FW_DMA1_MASK);
 565:Generated_Source\PSoC5/MDIO_Interface.c ****                 }
 566:Generated_Source\PSoC5/MDIO_Interface.c ****             }
 567:Generated_Source\PSoC5/MDIO_Interface.c ****         }
 568:Generated_Source\PSoC5/MDIO_Interface.c ****         return(result);
 569:Generated_Source\PSoC5/MDIO_Interface.c ****     }
 570:Generated_Source\PSoC5/MDIO_Interface.c **** 
 571:Generated_Source\PSoC5/MDIO_Interface.c ****     #if(!MDIO_Interface_ALL_PAGES_IN_FLASH)
 572:Generated_Source\PSoC5/MDIO_Interface.c **** 
 573:Generated_Source\PSoC5/MDIO_Interface.c ****         /***************************************************************************
 574:Generated_Source\PSoC5/MDIO_Interface.c ****         * Function Name: MDIO_Interface_SetData
 575:Generated_Source\PSoC5/MDIO_Interface.c ****         ****************************************************************************
 576:Generated_Source\PSoC5/MDIO_Interface.c ****         * Summary:
 577:Generated_Source\PSoC5/MDIO_Interface.c ****         *  Writes numWords values starting from the given address. If any address
 578:Generated_Source\PSoC5/MDIO_Interface.c ****         *  does not belong to the allocated register space, it returns an error.
 579:Generated_Source\PSoC5/MDIO_Interface.c ****         *
 580:Generated_Source\PSoC5/MDIO_Interface.c ****         * Parameters:
 581:Generated_Source\PSoC5/MDIO_Interface.c ****         *  address : address to be accessed.
 582:Generated_Source\PSoC5/MDIO_Interface.c ****         *  regData : array with the written data.
 583:Generated_Source\PSoC5/MDIO_Interface.c ****         *  numWords: number of words to be written.
 584:Generated_Source\PSoC5/MDIO_Interface.c ****         *
 585:Generated_Source\PSoC5/MDIO_Interface.c ****         * Return:
 586:Generated_Source\PSoC5/MDIO_Interface.c ****         *  CYRET_SUCCESS  : Operation is successful.
 587:Generated_Source\PSoC5/MDIO_Interface.c ****         *  CYRET_BAD_PARAM: One or more invalid parameters.
 588:Generated_Source\PSoC5/MDIO_Interface.c ****         *  CYRET_TIMEOUT  : Operation timed out.
 589:Generated_Source\PSoC5/MDIO_Interface.c ****         *
 590:Generated_Source\PSoC5/MDIO_Interface.c ****         * Side Effects:
 591:Generated_Source\PSoC5/MDIO_Interface.c ****         *  The word count of zero will be interpreted as a request for indefinite
 592:Generated_Source\PSoC5/MDIO_Interface.c ****         *  transfer.
 593:Generated_Source\PSoC5/MDIO_Interface.c ****         *
 594:Generated_Source\PSoC5/MDIO_Interface.c ****         ***************************************************************************/
 595:Generated_Source\PSoC5/MDIO_Interface.c ****         uint8 MDIO_Interface_SetData(uint16 address, const uint16 * regData, uint16 numWords)
 596:Generated_Source\PSoC5/MDIO_Interface.c ****                                                                 
 597:Generated_Source\PSoC5/MDIO_Interface.c ****         {
 598:Generated_Source\PSoC5/MDIO_Interface.c ****             uint8 result = CYRET_BAD_PARAM;
 599:Generated_Source\PSoC5/MDIO_Interface.c ****             uint8 i;
 600:Generated_Source\PSoC5/MDIO_Interface.c ****             uint16 idx;
 601:Generated_Source\PSoC5/MDIO_Interface.c ****             uint32 memAddr;
 602:Generated_Source\PSoC5/MDIO_Interface.c **** 
ARM GAS  C:\Users\kopusov.FT\AppData\Local\Temp\ccT1QhKH.s 			page 12


 603:Generated_Source\PSoC5/MDIO_Interface.c ****             for(i = 0u; (i < MDIO_Interface_NUMBER_OF_PAGES) && (result != CYRET_SUCCESS); i++)
 604:Generated_Source\PSoC5/MDIO_Interface.c ****             {
 605:Generated_Source\PSoC5/MDIO_Interface.c ****                 /* Check if address belongs to one of register spaces */
 606:Generated_Source\PSoC5/MDIO_Interface.c ****                 if((address >= MDIO_Interface_pageStartAddr[i]) && (address <= MDIO_Interface_pageE
 607:Generated_Source\PSoC5/MDIO_Interface.c ****                 {
 608:Generated_Source\PSoC5/MDIO_Interface.c ****                     #if(!MDIO_Interface_ALL_PAGES_IN_SRAM)
 609:Generated_Source\PSoC5/MDIO_Interface.c ****                     /* Check whether current space is writeable */
 610:Generated_Source\PSoC5/MDIO_Interface.c ****                     if(MDIO_Interface_REG_SPACE_IS_SRAM(i))
 611:Generated_Source\PSoC5/MDIO_Interface.c ****                     #endif /* !MDIO_Interface_ALL_PAGES_IN_SRAM */
 612:Generated_Source\PSoC5/MDIO_Interface.c ****                     {
 613:Generated_Source\PSoC5/MDIO_Interface.c ****                         /* Check whether there is enough space to be written */
 614:Generated_Source\PSoC5/MDIO_Interface.c ****                         #if(!MDIO_Interface_ALL_PAGES_16BIT)
 615:Generated_Source\PSoC5/MDIO_Interface.c ****                             #if(!MDIO_Interface_ALL_PAGES_8BIT)
 616:Generated_Source\PSoC5/MDIO_Interface.c ****                             if(MDIO_Interface_REG_SPACE_IS_8BIT(i))
 617:Generated_Source\PSoC5/MDIO_Interface.c ****                             #endif /* !MDIO_Interface_ALL_PAGES_8BIT */
 618:Generated_Source\PSoC5/MDIO_Interface.c ****                             {
 619:Generated_Source\PSoC5/MDIO_Interface.c ****                                 numWords += numWords;
 620:Generated_Source\PSoC5/MDIO_Interface.c ****                             }
 621:Generated_Source\PSoC5/MDIO_Interface.c ****                         #endif /* !MDIO_Interface_ALL_PAGES_16BIT */
 622:Generated_Source\PSoC5/MDIO_Interface.c **** 
 623:Generated_Source\PSoC5/MDIO_Interface.c ****                         if(numWords <= ((MDIO_Interface_pageEndAddr[i] - address) + 1u))
 624:Generated_Source\PSoC5/MDIO_Interface.c ****                         {
 625:Generated_Source\PSoC5/MDIO_Interface.c ****                             idx = address - MDIO_Interface_pageStartAddr[i];
 626:Generated_Source\PSoC5/MDIO_Interface.c **** 
 627:Generated_Source\PSoC5/MDIO_Interface.c ****                             #if(!MDIO_Interface_ALL_PAGES_8BIT)
 628:Generated_Source\PSoC5/MDIO_Interface.c ****                                 #if(!MDIO_Interface_ALL_PAGES_16BIT)
 629:Generated_Source\PSoC5/MDIO_Interface.c ****                                 if(MDIO_Interface_REG_SPACE_IS_16BIT(i))
 630:Generated_Source\PSoC5/MDIO_Interface.c ****                                 #endif /* !MDIO_Interface_ALL_PAGES_16BIT */
 631:Generated_Source\PSoC5/MDIO_Interface.c ****                                 {
 632:Generated_Source\PSoC5/MDIO_Interface.c ****                                     /* If a 16-bit space is accessed */
 633:Generated_Source\PSoC5/MDIO_Interface.c ****                                     idx += idx;
 634:Generated_Source\PSoC5/MDIO_Interface.c ****                                     numWords += numWords; /* TD_SIZE is expected in bytes */
 635:Generated_Source\PSoC5/MDIO_Interface.c ****                                 }
 636:Generated_Source\PSoC5/MDIO_Interface.c ****                             #endif /* !MDIO_Interface_ALL_PAGES_8BIT */
 637:Generated_Source\PSoC5/MDIO_Interface.c **** 
 638:Generated_Source\PSoC5/MDIO_Interface.c ****                             memAddr = MDIO_Interface_pageAddrList[i] + idx;
 639:Generated_Source\PSoC5/MDIO_Interface.c **** 
 640:Generated_Source\PSoC5/MDIO_Interface.c ****                             /* Configure DMA transfer. Return values are ignored because
 641:Generated_Source\PSoC5/MDIO_Interface.c ****                             * channel number and TD handle are allocated once during the
 642:Generated_Source\PSoC5/MDIO_Interface.c ****                             * component initialization procedure and do not change in run time.
 643:Generated_Source\PSoC5/MDIO_Interface.c ****                             */
 644:Generated_Source\PSoC5/MDIO_Interface.c ****                             MDIO_Interface_fwDMA1_Chan = MDIO_Interface_FwDMA1_DmaInitialize(
 645:Generated_Source\PSoC5/MDIO_Interface.c ****                                 MDIO_Interface_FW_DMA_BYTES_PER_BURST, MDIO_Interface_FW_DMA_REQUES
 646:Generated_Source\PSoC5/MDIO_Interface.c ****                                 HI16(CYDEV_SRAM_BASE), HI16(memAddr));
 647:Generated_Source\PSoC5/MDIO_Interface.c **** 
 648:Generated_Source\PSoC5/MDIO_Interface.c ****                             (void) CyDmaTdSetConfiguration(MDIO_Interface_fwDMA1_TD[0u], numWords,
 649:Generated_Source\PSoC5/MDIO_Interface.c ****                                 DMA_INVALID_TD, MDIO_Interface_FW_DMA1_CFG);
 650:Generated_Source\PSoC5/MDIO_Interface.c ****                             (void) CyDmaTdSetAddress(MDIO_Interface_fwDMA1_TD[0u], LO16((uint32)reg
 651:Generated_Source\PSoC5/MDIO_Interface.c ****                                                                                      LO16(memAddr))
 652:Generated_Source\PSoC5/MDIO_Interface.c **** 
 653:Generated_Source\PSoC5/MDIO_Interface.c ****                             /* Clear DMA status in case if previous transfer failed */
 654:Generated_Source\PSoC5/MDIO_Interface.c ****                             MDIO_Interface_CLEAR_FW_DMA_STATUS;
 655:Generated_Source\PSoC5/MDIO_Interface.c **** 
 656:Generated_Source\PSoC5/MDIO_Interface.c ****                             /* Trigger DMA and wait for completion */
 657:Generated_Source\PSoC5/MDIO_Interface.c ****                             (void) CyDmaChSetRequest(MDIO_Interface_fwDMA1_Chan, CPU_REQ);
 658:Generated_Source\PSoC5/MDIO_Interface.c ****                             result = MDIO_Interface_DmaIsComplete(MDIO_Interface_FW_DMA1_MASK);
 659:Generated_Source\PSoC5/MDIO_Interface.c ****                         }
ARM GAS  C:\Users\kopusov.FT\AppData\Local\Temp\ccT1QhKH.s 			page 13


 660:Generated_Source\PSoC5/MDIO_Interface.c ****                     }
 661:Generated_Source\PSoC5/MDIO_Interface.c ****                 }
 662:Generated_Source\PSoC5/MDIO_Interface.c ****             }
 663:Generated_Source\PSoC5/MDIO_Interface.c ****             return(result);
 664:Generated_Source\PSoC5/MDIO_Interface.c ****         }
 665:Generated_Source\PSoC5/MDIO_Interface.c **** 
 666:Generated_Source\PSoC5/MDIO_Interface.c **** 
 667:Generated_Source\PSoC5/MDIO_Interface.c ****         /***************************************************************************
 668:Generated_Source\PSoC5/MDIO_Interface.c ****         * Function Name: MDIO_Interface_SetBits
 669:Generated_Source\PSoC5/MDIO_Interface.c ****         ****************************************************************************
 670:Generated_Source\PSoC5/MDIO_Interface.c ****         * Summary:
 671:Generated_Source\PSoC5/MDIO_Interface.c ****         *  Set at the given address only the given bits. The operation should be an
 672:Generated_Source\PSoC5/MDIO_Interface.c ****         *  OR write.
 673:Generated_Source\PSoC5/MDIO_Interface.c ****         *
 674:Generated_Source\PSoC5/MDIO_Interface.c ****         * Parameters:
 675:Generated_Source\PSoC5/MDIO_Interface.c ****         *  address: address to be accessed.
 676:Generated_Source\PSoC5/MDIO_Interface.c ****         *  regBits: bits to be set.
 677:Generated_Source\PSoC5/MDIO_Interface.c ****         *
 678:Generated_Source\PSoC5/MDIO_Interface.c ****         * Return:
 679:Generated_Source\PSoC5/MDIO_Interface.c ****         *  CYRET_SUCCESS  : Operation is successful.
 680:Generated_Source\PSoC5/MDIO_Interface.c ****         *  CYRET_BAD_PARAM: One or more invalid parameters.
 681:Generated_Source\PSoC5/MDIO_Interface.c ****         *  CYRET_TIMEOUT  : Operation timed out.
 682:Generated_Source\PSoC5/MDIO_Interface.c ****         *
 683:Generated_Source\PSoC5/MDIO_Interface.c ****         ***************************************************************************/
 684:Generated_Source\PSoC5/MDIO_Interface.c ****         uint8 MDIO_Interface_SetBits(uint16 address, uint16 regBits) 
 685:Generated_Source\PSoC5/MDIO_Interface.c ****         {
 686:Generated_Source\PSoC5/MDIO_Interface.c ****             uint8  result = CYRET_BAD_PARAM;
 687:Generated_Source\PSoC5/MDIO_Interface.c ****             uint8  i;
 688:Generated_Source\PSoC5/MDIO_Interface.c ****             uint16 idx;
 689:Generated_Source\PSoC5/MDIO_Interface.c ****             uint32 memAddr;
 690:Generated_Source\PSoC5/MDIO_Interface.c ****             /* Assuming 16-bit register space by default */
 691:Generated_Source\PSoC5/MDIO_Interface.c ****             uint8  numWords = MDIO_Interface_NUM_OF_16BIT_REGS;
 692:Generated_Source\PSoC5/MDIO_Interface.c **** 
 693:Generated_Source\PSoC5/MDIO_Interface.c ****             for(i = 0u; (i < MDIO_Interface_NUMBER_OF_PAGES) && (result != CYRET_SUCCESS); i++)
 694:Generated_Source\PSoC5/MDIO_Interface.c ****             {
 695:Generated_Source\PSoC5/MDIO_Interface.c ****                 /* Check if address belongs to one of register spaces */
 696:Generated_Source\PSoC5/MDIO_Interface.c ****                 if((address >= MDIO_Interface_pageStartAddr[i]) && (address <= MDIO_Interface_pageE
 697:Generated_Source\PSoC5/MDIO_Interface.c ****                 {
 698:Generated_Source\PSoC5/MDIO_Interface.c ****                     #if(!MDIO_Interface_ALL_PAGES_IN_SRAM)
 699:Generated_Source\PSoC5/MDIO_Interface.c ****                     /* Check whether current space is writeable */
 700:Generated_Source\PSoC5/MDIO_Interface.c ****                     if(MDIO_Interface_REG_SPACE_IS_SRAM(i))
 701:Generated_Source\PSoC5/MDIO_Interface.c ****                     #endif /* !MDIO_Interface_ALL_PAGES_IN_SRAM */
 702:Generated_Source\PSoC5/MDIO_Interface.c ****                     {
 703:Generated_Source\PSoC5/MDIO_Interface.c ****                         /* Check whether there is enough space to be written */
 704:Generated_Source\PSoC5/MDIO_Interface.c ****                         #if(!MDIO_Interface_ALL_PAGES_16BIT)
 705:Generated_Source\PSoC5/MDIO_Interface.c ****                             #if(!MDIO_Interface_ALL_PAGES_8BIT)
 706:Generated_Source\PSoC5/MDIO_Interface.c ****                             if(MDIO_Interface_REG_SPACE_IS_8BIT(i))
 707:Generated_Source\PSoC5/MDIO_Interface.c ****                             #endif /* !MDIO_Interface_ALL_PAGES_8BIT */
 708:Generated_Source\PSoC5/MDIO_Interface.c ****                             {
 709:Generated_Source\PSoC5/MDIO_Interface.c ****                                 numWords = MDIO_Interface_NUM_OF_8BIT_REGS;
 710:Generated_Source\PSoC5/MDIO_Interface.c ****                             }
 711:Generated_Source\PSoC5/MDIO_Interface.c ****                         #endif /* !MDIO_Interface_ALL_PAGES_16BIT */
 712:Generated_Source\PSoC5/MDIO_Interface.c **** 
 713:Generated_Source\PSoC5/MDIO_Interface.c ****                         if(numWords <= ((MDIO_Interface_pageEndAddr[i] - address) + 1u))
 714:Generated_Source\PSoC5/MDIO_Interface.c ****                         {
 715:Generated_Source\PSoC5/MDIO_Interface.c ****                             idx = address - MDIO_Interface_pageStartAddr[i];
 716:Generated_Source\PSoC5/MDIO_Interface.c **** 
ARM GAS  C:\Users\kopusov.FT\AppData\Local\Temp\ccT1QhKH.s 			page 14


 717:Generated_Source\PSoC5/MDIO_Interface.c ****                             #if(!MDIO_Interface_ALL_PAGES_8BIT)
 718:Generated_Source\PSoC5/MDIO_Interface.c ****                                 #if(!MDIO_Interface_ALL_PAGES_16BIT)
 719:Generated_Source\PSoC5/MDIO_Interface.c ****                                 if(MDIO_Interface_REG_SPACE_IS_16BIT(i))
 720:Generated_Source\PSoC5/MDIO_Interface.c ****                                 #endif /* !MDIO_Interface_ALL_PAGES_16BIT */
 721:Generated_Source\PSoC5/MDIO_Interface.c ****                                 {
 722:Generated_Source\PSoC5/MDIO_Interface.c ****                                     /* If 16-bit space is accessed */
 723:Generated_Source\PSoC5/MDIO_Interface.c ****                                     idx += idx;
 724:Generated_Source\PSoC5/MDIO_Interface.c ****                                 }
 725:Generated_Source\PSoC5/MDIO_Interface.c ****                             #endif /* !MDIO_Interface_ALL_PAGES_8BIT */
 726:Generated_Source\PSoC5/MDIO_Interface.c **** 
 727:Generated_Source\PSoC5/MDIO_Interface.c ****                             memAddr = MDIO_Interface_pageAddrList[i] + idx;
 728:Generated_Source\PSoC5/MDIO_Interface.c **** 
 729:Generated_Source\PSoC5/MDIO_Interface.c ****                             /* Write bits to set to A1 reg of FwAlu datapath */
 730:Generated_Source\PSoC5/MDIO_Interface.c ****                             CY_SET_REG16(MDIO_Interface_REG_BITS_PTR, regBits);
 731:Generated_Source\PSoC5/MDIO_Interface.c **** 
 732:Generated_Source\PSoC5/MDIO_Interface.c ****                             /* Configure DMA transfer as follows:
 733:Generated_Source\PSoC5/MDIO_Interface.c ****                             * Two DMA channels, each channel uses one TD.
 734:Generated_Source\PSoC5/MDIO_Interface.c ****                             *  Ch1: from register memory to FwAlu;
 735:Generated_Source\PSoC5/MDIO_Interface.c ****                             *  Ch2: from FwAlu to register memory. Channel initialized
 736:Generated_Source\PSoC5/MDIO_Interface.c ****                             *       in DmaInit() API.
 737:Generated_Source\PSoC5/MDIO_Interface.c ****                             *
 738:Generated_Source\PSoC5/MDIO_Interface.c ****                             * Return values are ignored because channel number and
 739:Generated_Source\PSoC5/MDIO_Interface.c ****                             * TD handles are allocated once during the component
 740:Generated_Source\PSoC5/MDIO_Interface.c ****                             * initialization procedure and do not change in run time.
 741:Generated_Source\PSoC5/MDIO_Interface.c ****                             */
 742:Generated_Source\PSoC5/MDIO_Interface.c ****                             MDIO_Interface_fwDMA1_Chan = MDIO_Interface_FwDMA1_DmaInitialize(
 743:Generated_Source\PSoC5/MDIO_Interface.c ****                                 MDIO_Interface_FW_DMA_BYTES_PER_BURST, MDIO_Interface_FW_DMA_REQUES
 744:Generated_Source\PSoC5/MDIO_Interface.c ****                                 HI16(CYDEV_SRAM_BASE), HI16(CYDEV_PERIPH_BASE));
 745:Generated_Source\PSoC5/MDIO_Interface.c **** 
 746:Generated_Source\PSoC5/MDIO_Interface.c ****                             /* From register memory to FwAlu datapath */
 747:Generated_Source\PSoC5/MDIO_Interface.c ****                             (void) CyDmaTdSetAddress(MDIO_Interface_fwDMA1_TD[0u], LO16(memAddr),
 748:Generated_Source\PSoC5/MDIO_Interface.c ****                                 LO16((uint32)MDIO_Interface_REG_VAL_PTR));
 749:Generated_Source\PSoC5/MDIO_Interface.c **** 
 750:Generated_Source\PSoC5/MDIO_Interface.c ****                             /* Result of OR operation from FwAlu to register memory */
 751:Generated_Source\PSoC5/MDIO_Interface.c ****                             (void) CyDmaTdSetAddress(MDIO_Interface_fwDMA2_TD[0u],
 752:Generated_Source\PSoC5/MDIO_Interface.c ****                                 LO16((uint32)MDIO_Interface_REG_VAL_PTR), LO16(memAddr));
 753:Generated_Source\PSoC5/MDIO_Interface.c **** 
 754:Generated_Source\PSoC5/MDIO_Interface.c ****                             /* Configure fwDMA1_TD[0u]. fwDMA2_TD[0u] configured in DmaInit() API *
 755:Generated_Source\PSoC5/MDIO_Interface.c ****                             (void) CyDmaTdSetConfiguration(MDIO_Interface_fwDMA1_TD[0u],
 756:Generated_Source\PSoC5/MDIO_Interface.c ****                                 MDIO_Interface_FW_DMA_TD_SIZE, DMA_INVALID_TD,
 757:Generated_Source\PSoC5/MDIO_Interface.c ****                                 TD_INC_SRC_ADR | TD_SWAP_EN | MDIO_Interface_FwDMA1__TD_TERMOUT_EN)
 758:Generated_Source\PSoC5/MDIO_Interface.c **** 
 759:Generated_Source\PSoC5/MDIO_Interface.c ****                             /* Clear DMA status in case if previous transfer failed */
 760:Generated_Source\PSoC5/MDIO_Interface.c ****                             MDIO_Interface_CLEAR_FW_DMA_STATUS;
 761:Generated_Source\PSoC5/MDIO_Interface.c **** 
 762:Generated_Source\PSoC5/MDIO_Interface.c ****                             /* Trigger DMA and wait for completion */
 763:Generated_Source\PSoC5/MDIO_Interface.c ****                             MDIO_Interface_CONTROL_REG ^= MDIO_Interface_TRIG_DMA;
 764:Generated_Source\PSoC5/MDIO_Interface.c ****                             result = MDIO_Interface_DmaIsComplete(MDIO_Interface_FW_DMA2_MASK);
 765:Generated_Source\PSoC5/MDIO_Interface.c ****                         }
 766:Generated_Source\PSoC5/MDIO_Interface.c ****                     }
 767:Generated_Source\PSoC5/MDIO_Interface.c ****                 }
 768:Generated_Source\PSoC5/MDIO_Interface.c ****             }
 769:Generated_Source\PSoC5/MDIO_Interface.c ****             return(result);
 770:Generated_Source\PSoC5/MDIO_Interface.c ****         }
 771:Generated_Source\PSoC5/MDIO_Interface.c **** 
 772:Generated_Source\PSoC5/MDIO_Interface.c ****     #endif /* MDIO_Interface_ALL_PAGES_IN_FLASH */
 773:Generated_Source\PSoC5/MDIO_Interface.c **** 
ARM GAS  C:\Users\kopusov.FT\AppData\Local\Temp\ccT1QhKH.s 			page 15


 774:Generated_Source\PSoC5/MDIO_Interface.c **** 
 775:Generated_Source\PSoC5/MDIO_Interface.c ****     /***************************************************************************
 776:Generated_Source\PSoC5/MDIO_Interface.c ****     * Function Name: MDIO_Interface_GetConfiguration
 777:Generated_Source\PSoC5/MDIO_Interface.c ****     ****************************************************************************
 778:Generated_Source\PSoC5/MDIO_Interface.c ****     * Summary:
 779:Generated_Source\PSoC5/MDIO_Interface.c ****     *  Returns a pointer to the configuration array of the given regSpace.
 780:Generated_Source\PSoC5/MDIO_Interface.c ****     *
 781:Generated_Source\PSoC5/MDIO_Interface.c ****     * Parameters:
 782:Generated_Source\PSoC5/MDIO_Interface.c ****     *  uint8 regSpace: register space index.
 783:Generated_Source\PSoC5/MDIO_Interface.c ****     *
 784:Generated_Source\PSoC5/MDIO_Interface.c ****     * Return:
 785:Generated_Source\PSoC5/MDIO_Interface.c ****     *  Pointer to the configuration array if successful.
 786:Generated_Source\PSoC5/MDIO_Interface.c ****     *  NULL pointer if regSpace is invalid.
 787:Generated_Source\PSoC5/MDIO_Interface.c ****     *
 788:Generated_Source\PSoC5/MDIO_Interface.c ****     ***************************************************************************/
 789:Generated_Source\PSoC5/MDIO_Interface.c ****     uint8 * MDIO_Interface_GetConfiguration(uint8 regSpace)   
 790:Generated_Source\PSoC5/MDIO_Interface.c ****     {
 791:Generated_Source\PSoC5/MDIO_Interface.c ****         uint8 * config;
 792:Generated_Source\PSoC5/MDIO_Interface.c ****         config = NULL;
 793:Generated_Source\PSoC5/MDIO_Interface.c **** 
 794:Generated_Source\PSoC5/MDIO_Interface.c ****         if((regSpace > 0u) && (regSpace <= MDIO_Interface_NUMBER_OF_PAGES))
 795:Generated_Source\PSoC5/MDIO_Interface.c ****         {
 796:Generated_Source\PSoC5/MDIO_Interface.c ****             regSpace += regSpace;
 797:Generated_Source\PSoC5/MDIO_Interface.c ****             regSpace--;
 798:Generated_Source\PSoC5/MDIO_Interface.c ****             config = (uint8 *)MDIO_Interface_pageInfoList[regSpace];
 799:Generated_Source\PSoC5/MDIO_Interface.c ****         }
 800:Generated_Source\PSoC5/MDIO_Interface.c ****         return(config);
 801:Generated_Source\PSoC5/MDIO_Interface.c ****     }
 802:Generated_Source\PSoC5/MDIO_Interface.c **** 
 803:Generated_Source\PSoC5/MDIO_Interface.c **** 
 804:Generated_Source\PSoC5/MDIO_Interface.c ****     /***************************************************************************
 805:Generated_Source\PSoC5/MDIO_Interface.c ****     * Function Name: MDIO_Interface_DmaIsComplete
 806:Generated_Source\PSoC5/MDIO_Interface.c ****     ****************************************************************************
 807:Generated_Source\PSoC5/MDIO_Interface.c ****     *
 808:Generated_Source\PSoC5/MDIO_Interface.c ****     * Summary:
 809:Generated_Source\PSoC5/MDIO_Interface.c ****     *  Determines whether a specified DMA channel has completed the transfer.
 810:Generated_Source\PSoC5/MDIO_Interface.c ****     *
 811:Generated_Source\PSoC5/MDIO_Interface.c ****     * Parameters:
 812:Generated_Source\PSoC5/MDIO_Interface.c ****     *  channel: DMA channel to check.
 813:Generated_Source\PSoC5/MDIO_Interface.c ****     *
 814:Generated_Source\PSoC5/MDIO_Interface.c ****     * Return:
 815:Generated_Source\PSoC5/MDIO_Interface.c ****     *  CYRET_SUCCESS: transfer has completed.
 816:Generated_Source\PSoC5/MDIO_Interface.c ****     *  CYRET_TIMEOUT: transfer has not completed and 255 us timeout expired.
 817:Generated_Source\PSoC5/MDIO_Interface.c ****     *
 818:Generated_Source\PSoC5/MDIO_Interface.c ****     ***************************************************************************/
 819:Generated_Source\PSoC5/MDIO_Interface.c ****     static uint8 MDIO_Interface_DmaIsComplete(uint8 chMask)
 820:Generated_Source\PSoC5/MDIO_Interface.c ****     {
 821:Generated_Source\PSoC5/MDIO_Interface.c ****         uint8 timer;
 822:Generated_Source\PSoC5/MDIO_Interface.c **** 
 823:Generated_Source\PSoC5/MDIO_Interface.c ****         timer = MDIO_Interface_TIMEOUT_PERIOD;
 824:Generated_Source\PSoC5/MDIO_Interface.c **** 
 825:Generated_Source\PSoC5/MDIO_Interface.c ****         while(MDIO_Interface_DMA_ACTIVE(chMask) && (timer != 0u))
 826:Generated_Source\PSoC5/MDIO_Interface.c ****         {
 827:Generated_Source\PSoC5/MDIO_Interface.c ****             /* Channel is currently being serviced by DMAC and timeout period
 828:Generated_Source\PSoC5/MDIO_Interface.c ****             * is not elapsed.
 829:Generated_Source\PSoC5/MDIO_Interface.c ****             */
 830:Generated_Source\PSoC5/MDIO_Interface.c ****             timer--;
ARM GAS  C:\Users\kopusov.FT\AppData\Local\Temp\ccT1QhKH.s 			page 16


 831:Generated_Source\PSoC5/MDIO_Interface.c ****             CyDelayUs(1u);
 832:Generated_Source\PSoC5/MDIO_Interface.c ****         }
 833:Generated_Source\PSoC5/MDIO_Interface.c ****         return((timer != 0u) ? CYRET_SUCCESS : CYRET_TIMEOUT);
 834:Generated_Source\PSoC5/MDIO_Interface.c ****     }
 835:Generated_Source\PSoC5/MDIO_Interface.c **** 
 836:Generated_Source\PSoC5/MDIO_Interface.c **** 
 837:Generated_Source\PSoC5/MDIO_Interface.c ****     /***************************************************************************
 838:Generated_Source\PSoC5/MDIO_Interface.c ****     * Function Name: MDIO_Interface_DmaEnable
 839:Generated_Source\PSoC5/MDIO_Interface.c ****     ****************************************************************************
 840:Generated_Source\PSoC5/MDIO_Interface.c ****     *
 841:Generated_Source\PSoC5/MDIO_Interface.c ****     * Summary:
 842:Generated_Source\PSoC5/MDIO_Interface.c ****     *  Enables Address Analyzer DMAs.
 843:Generated_Source\PSoC5/MDIO_Interface.c ****     *
 844:Generated_Source\PSoC5/MDIO_Interface.c ****     * Parameters:
 845:Generated_Source\PSoC5/MDIO_Interface.c ****     *  None.
 846:Generated_Source\PSoC5/MDIO_Interface.c ****     *
 847:Generated_Source\PSoC5/MDIO_Interface.c ****     * Return:
 848:Generated_Source\PSoC5/MDIO_Interface.c ****     *  None.
 849:Generated_Source\PSoC5/MDIO_Interface.c ****     *
 850:Generated_Source\PSoC5/MDIO_Interface.c ****     * Reentrant:
 851:Generated_Source\PSoC5/MDIO_Interface.c ****     *  No.
 852:Generated_Source\PSoC5/MDIO_Interface.c ****     *
 853:Generated_Source\PSoC5/MDIO_Interface.c ****     ***************************************************************************/
 854:Generated_Source\PSoC5/MDIO_Interface.c ****     static void MDIO_Interface_DmaEnable(void)   
 855:Generated_Source\PSoC5/MDIO_Interface.c ****     {
  26              		.loc 1 855 0
  27              		.cfi_startproc
  28              		@ args = 0, pretend = 0, frame = 0
  29              		@ frame_needed = 0, uses_anonymous_args = 0
  30 0000 10B5     		push	{r4, lr}
  31              		.cfi_def_cfa_offset 8
  32              		.cfi_offset 4, -8
  33              		.cfi_offset 14, -4
 856:Generated_Source\PSoC5/MDIO_Interface.c ****         uint8 i;
 857:Generated_Source\PSoC5/MDIO_Interface.c **** 
 858:Generated_Source\PSoC5/MDIO_Interface.c ****         /* Set initial TDs and enable DMA channels */
 859:Generated_Source\PSoC5/MDIO_Interface.c ****         (void) CyDmaChSetInitialTd(MDIO_Interface_pageStartAddrDMA_Chan, MDIO_Interface_pageStartAd
  34              		.loc 1 859 0
  35 0002 1E4C     		ldr	r4, .L5
  36 0004 6078     		ldrb	r0, [r4, #1]	@ zero_extendqisi2
  37 0006 2178     		ldrb	r1, [r4]	@ zero_extendqisi2
  38 0008 FFF7FEFF 		bl	CyDmaChSetInitialTd
  39              	.LVL0:
 860:Generated_Source\PSoC5/MDIO_Interface.c ****         (void) CyDmaChSetInitialTd(MDIO_Interface_pageEndAddrDMA_Chan,   MDIO_Interface_pageEndAddr
  40              		.loc 1 860 0
  41 000c 6079     		ldrb	r0, [r4, #5]	@ zero_extendqisi2
  42 000e 2179     		ldrb	r1, [r4, #4]	@ zero_extendqisi2
  43 0010 FFF7FEFF 		bl	CyDmaChSetInitialTd
  44              	.LVL1:
 861:Generated_Source\PSoC5/MDIO_Interface.c ****         (void) CyDmaChSetInitialTd(MDIO_Interface_pageInfoDMA_Chan,      MDIO_Interface_pageInfoDMA
  45              		.loc 1 861 0
  46 0014 607A     		ldrb	r0, [r4, #9]	@ zero_extendqisi2
  47 0016 217A     		ldrb	r1, [r4, #8]	@ zero_extendqisi2
  48 0018 FFF7FEFF 		bl	CyDmaChSetInitialTd
  49              	.LVL2:
 862:Generated_Source\PSoC5/MDIO_Interface.c ****         (void) CyDmaChSetInitialTd(MDIO_Interface_regAddrDMA_Chan,       MDIO_Interface_regAddrDMA_
  50              		.loc 1 862 0
ARM GAS  C:\Users\kopusov.FT\AppData\Local\Temp\ccT1QhKH.s 			page 17


  51 001c E07C     		ldrb	r0, [r4, #19]	@ zero_extendqisi2
  52 001e 217B     		ldrb	r1, [r4, #12]	@ zero_extendqisi2
  53 0020 FFF7FEFF 		bl	CyDmaChSetInitialTd
  54              	.LVL3:
 863:Generated_Source\PSoC5/MDIO_Interface.c ****         (void) CyDmaChSetInitialTd(MDIO_Interface_rdDMA_Chan,            MDIO_Interface_rdDMA_TD[0u
  55              		.loc 1 863 0
  56 0024 607D     		ldrb	r0, [r4, #21]	@ zero_extendqisi2
  57 0026 217D     		ldrb	r1, [r4, #20]	@ zero_extendqisi2
  58 0028 FFF7FEFF 		bl	CyDmaChSetInitialTd
  59              	.LVL4:
 864:Generated_Source\PSoC5/MDIO_Interface.c ****         (void) CyDmaChSetInitialTd(MDIO_Interface_wrDMA_Chan,            MDIO_Interface_wrDMA_TD[0u
  60              		.loc 1 864 0
  61 002c 607E     		ldrb	r0, [r4, #25]	@ zero_extendqisi2
  62 002e 217E     		ldrb	r1, [r4, #24]	@ zero_extendqisi2
  63 0030 FFF7FEFF 		bl	CyDmaChSetInitialTd
  64              	.LVL5:
 865:Generated_Source\PSoC5/MDIO_Interface.c ****         (void) CyDmaChSetInitialTd(MDIO_Interface_cfgDMA1_Chan,          MDIO_Interface_cfgDMA1_TD[
  65              		.loc 1 865 0
  66 0034 607F     		ldrb	r0, [r4, #29]	@ zero_extendqisi2
  67 0036 217F     		ldrb	r1, [r4, #28]	@ zero_extendqisi2
  68 0038 FFF7FEFF 		bl	CyDmaChSetInitialTd
  69              	.LVL6:
 866:Generated_Source\PSoC5/MDIO_Interface.c ****         (void) CyDmaChSetInitialTd(MDIO_Interface_cfgDMA2_Chan,          MDIO_Interface_cfgDMA2_TD[
  70              		.loc 1 866 0
  71 003c 94F82200 		ldrb	r0, [r4, #34]	@ zero_extendqisi2
  72 0040 94F82010 		ldrb	r1, [r4, #32]	@ zero_extendqisi2
  73 0044 FFF7FEFF 		bl	CyDmaChSetInitialTd
  74              	.LVL7:
 867:Generated_Source\PSoC5/MDIO_Interface.c ****         (void) CyDmaChSetInitialTd(MDIO_Interface_fwDMA1_Chan,           MDIO_Interface_fwDMA1_TD[0
  75              		.loc 1 867 0
  76 0048 94F82500 		ldrb	r0, [r4, #37]	@ zero_extendqisi2
  77 004c 94F82410 		ldrb	r1, [r4, #36]	@ zero_extendqisi2
  78 0050 FFF7FEFF 		bl	CyDmaChSetInitialTd
  79              	.LVL8:
 868:Generated_Source\PSoC5/MDIO_Interface.c ****         (void) CyDmaChSetInitialTd(MDIO_Interface_fwDMA2_Chan,           MDIO_Interface_fwDMA2_TD[0
  80              		.loc 1 868 0
  81 0054 94F82900 		ldrb	r0, [r4, #41]	@ zero_extendqisi2
  82 0058 94F82810 		ldrb	r1, [r4, #40]	@ zero_extendqisi2
  83 005c FFF7FEFF 		bl	CyDmaChSetInitialTd
  84              	.LVL9:
 869:Generated_Source\PSoC5/MDIO_Interface.c **** 
 870:Generated_Source\PSoC5/MDIO_Interface.c ****         for(i = 0u; i < MDIO_Interface_NUMBER_OF_CHANNELS; i++)
  85              		.loc 1 870 0
  86 0060 0024     		movs	r4, #0
  87 0062 08E0     		b	.L2
  88              	.LVL10:
  89              	.L3:
 871:Generated_Source\PSoC5/MDIO_Interface.c ****         {
 872:Generated_Source\PSoC5/MDIO_Interface.c ****             (void) CyDmaChEnable(MDIO_Interface_dmaChannelList[i], 1u);
  90              		.loc 1 872 0 discriminator 3
  91 0064 054B     		ldr	r3, .L5
  92 0066 2344     		add	r3, r3, r4
  93 0068 93F82C00 		ldrb	r0, [r3, #44]	@ zero_extendqisi2
  94 006c 0121     		movs	r1, #1
  95 006e FFF7FEFF 		bl	CyDmaChEnable
  96              	.LVL11:
 870:Generated_Source\PSoC5/MDIO_Interface.c ****         {
ARM GAS  C:\Users\kopusov.FT\AppData\Local\Temp\ccT1QhKH.s 			page 18


  97              		.loc 1 870 0 discriminator 3
  98 0072 0134     		adds	r4, r4, #1
  99              	.LVL12:
 100 0074 E4B2     		uxtb	r4, r4
 101              	.LVL13:
 102              	.L2:
 870:Generated_Source\PSoC5/MDIO_Interface.c ****         {
 103              		.loc 1 870 0 is_stmt 0 discriminator 1
 104 0076 092C     		cmp	r4, #9
 105 0078 F4D9     		bls	.L3
 873:Generated_Source\PSoC5/MDIO_Interface.c ****         }
 874:Generated_Source\PSoC5/MDIO_Interface.c ****     }
 106              		.loc 1 874 0 is_stmt 1
 107 007a 10BD     		pop	{r4, pc}
 108              	.LVL14:
 109              	.L6:
 110              		.align	2
 111              	.L5:
 112 007c 00000000 		.word	.LANCHOR0
 113              		.cfi_endproc
 114              	.LFE15:
 115              		.size	MDIO_Interface_DmaEnable, .-MDIO_Interface_DmaEnable
 116              		.section	.text.MDIO_Interface_DmaInit,"ax",%progbits
 117              		.align	2
 118              		.thumb
 119              		.thumb_func
 120              		.type	MDIO_Interface_DmaInit, %function
 121              	MDIO_Interface_DmaInit:
 122              	.LFB17:
 875:Generated_Source\PSoC5/MDIO_Interface.c **** 
 876:Generated_Source\PSoC5/MDIO_Interface.c **** 
 877:Generated_Source\PSoC5/MDIO_Interface.c ****     /***************************************************************************
 878:Generated_Source\PSoC5/MDIO_Interface.c ****     * Function Name: MDIO_Interface_DmaDisable
 879:Generated_Source\PSoC5/MDIO_Interface.c ****     ****************************************************************************
 880:Generated_Source\PSoC5/MDIO_Interface.c ****     *
 881:Generated_Source\PSoC5/MDIO_Interface.c ****     * Summary:
 882:Generated_Source\PSoC5/MDIO_Interface.c ****     *  Disable Address Analyzer DMAs.
 883:Generated_Source\PSoC5/MDIO_Interface.c ****     *
 884:Generated_Source\PSoC5/MDIO_Interface.c ****     * Parameters:
 885:Generated_Source\PSoC5/MDIO_Interface.c ****     *  None.
 886:Generated_Source\PSoC5/MDIO_Interface.c ****     *
 887:Generated_Source\PSoC5/MDIO_Interface.c ****     * Return:
 888:Generated_Source\PSoC5/MDIO_Interface.c ****     *  None.
 889:Generated_Source\PSoC5/MDIO_Interface.c ****     *
 890:Generated_Source\PSoC5/MDIO_Interface.c ****     * Reentrant:
 891:Generated_Source\PSoC5/MDIO_Interface.c ****     *  No.
 892:Generated_Source\PSoC5/MDIO_Interface.c ****     *
 893:Generated_Source\PSoC5/MDIO_Interface.c ****     ***************************************************************************/
 894:Generated_Source\PSoC5/MDIO_Interface.c ****     static void MDIO_Interface_DmaDisable(void)   
 895:Generated_Source\PSoC5/MDIO_Interface.c ****     {
 896:Generated_Source\PSoC5/MDIO_Interface.c ****         uint8 i;
 897:Generated_Source\PSoC5/MDIO_Interface.c ****         uint8 channel;
 898:Generated_Source\PSoC5/MDIO_Interface.c **** 
 899:Generated_Source\PSoC5/MDIO_Interface.c ****         for(i = 0u; i < MDIO_Interface_NUMBER_OF_CHANNELS; i++)
 900:Generated_Source\PSoC5/MDIO_Interface.c ****         {
 901:Generated_Source\PSoC5/MDIO_Interface.c ****             channel = MDIO_Interface_dmaChannelList[i];
 902:Generated_Source\PSoC5/MDIO_Interface.c ****             (void) CyDmaChDisable(channel);
ARM GAS  C:\Users\kopusov.FT\AppData\Local\Temp\ccT1QhKH.s 			page 19


 903:Generated_Source\PSoC5/MDIO_Interface.c **** 
 904:Generated_Source\PSoC5/MDIO_Interface.c ****             /* Clear any potential DMA requests and reset TD pointers */
 905:Generated_Source\PSoC5/MDIO_Interface.c ****             while(0u != (CY_DMA_CH_STRUCT_PTR[channel].basic_status[0u] & CY_DMA_STATUS_TD_ACTIVE))
 906:Generated_Source\PSoC5/MDIO_Interface.c ****             {
 907:Generated_Source\PSoC5/MDIO_Interface.c ****                 ; /* Wait for to be cleared */
 908:Generated_Source\PSoC5/MDIO_Interface.c ****             }
 909:Generated_Source\PSoC5/MDIO_Interface.c **** 
 910:Generated_Source\PSoC5/MDIO_Interface.c ****             (void) CyDmaChSetRequest(channel, CY_DMA_CPU_TERM_CHAIN);
 911:Generated_Source\PSoC5/MDIO_Interface.c ****             (void) CyDmaChEnable    (channel, 1u);
 912:Generated_Source\PSoC5/MDIO_Interface.c **** 
 913:Generated_Source\PSoC5/MDIO_Interface.c ****             while(0u != (CY_DMA_CH_STRUCT_PTR[channel].basic_cfg[0u] & CY_DMA_STATUS_CHAIN_ACTIVE))
 914:Generated_Source\PSoC5/MDIO_Interface.c ****             {
 915:Generated_Source\PSoC5/MDIO_Interface.c ****                 ; /* Wait for to be cleared */
 916:Generated_Source\PSoC5/MDIO_Interface.c ****             }
 917:Generated_Source\PSoC5/MDIO_Interface.c ****         }
 918:Generated_Source\PSoC5/MDIO_Interface.c ****     }
 919:Generated_Source\PSoC5/MDIO_Interface.c **** 
 920:Generated_Source\PSoC5/MDIO_Interface.c **** 
 921:Generated_Source\PSoC5/MDIO_Interface.c ****     /***************************************************************************
 922:Generated_Source\PSoC5/MDIO_Interface.c ****     * Function Name: MDIO_Interface_DmaInit
 923:Generated_Source\PSoC5/MDIO_Interface.c ****     ****************************************************************************
 924:Generated_Source\PSoC5/MDIO_Interface.c ****     *
 925:Generated_Source\PSoC5/MDIO_Interface.c ****     * Summary:
 926:Generated_Source\PSoC5/MDIO_Interface.c ****     *  Inits Address Analyzer DMAs.
 927:Generated_Source\PSoC5/MDIO_Interface.c ****     *
 928:Generated_Source\PSoC5/MDIO_Interface.c ****     * Parameters:
 929:Generated_Source\PSoC5/MDIO_Interface.c ****     *  None.
 930:Generated_Source\PSoC5/MDIO_Interface.c ****     *
 931:Generated_Source\PSoC5/MDIO_Interface.c ****     * Return:
 932:Generated_Source\PSoC5/MDIO_Interface.c ****     *  None.
 933:Generated_Source\PSoC5/MDIO_Interface.c ****     *
 934:Generated_Source\PSoC5/MDIO_Interface.c ****     * Reentrant:
 935:Generated_Source\PSoC5/MDIO_Interface.c ****     *  No.
 936:Generated_Source\PSoC5/MDIO_Interface.c ****     *
 937:Generated_Source\PSoC5/MDIO_Interface.c ****     ***************************************************************************/
 938:Generated_Source\PSoC5/MDIO_Interface.c ****     static void MDIO_Interface_DmaInit(void)      
 939:Generated_Source\PSoC5/MDIO_Interface.c ****     {
 123              		.loc 1 939 0
 124              		.cfi_startproc
 125              		@ args = 0, pretend = 0, frame = 0
 126              		@ frame_needed = 0, uses_anonymous_args = 0
 127 0000 38B5     		push	{r3, r4, r5, lr}
 128              		.cfi_def_cfa_offset 16
 129              		.cfi_offset 3, -16
 130              		.cfi_offset 4, -12
 131              		.cfi_offset 5, -8
 132              		.cfi_offset 14, -4
 133              	.LVL15:
 940:Generated_Source\PSoC5/MDIO_Interface.c ****         uint8 idx;
 941:Generated_Source\PSoC5/MDIO_Interface.c ****         static uint32 MDIO_Interface_regConfig;
 942:Generated_Source\PSoC5/MDIO_Interface.c **** 
 943:Generated_Source\PSoC5/MDIO_Interface.c ****         /* For PSoC 3 the data is stored in the big endian ordering. However, the
 944:Generated_Source\PSoC5/MDIO_Interface.c ****         *  registers are laid out in the little endian order. The byte ordering must
 945:Generated_Source\PSoC5/MDIO_Interface.c ****         *  be considered when use a DMA to transfer between the memory and registers.
 946:Generated_Source\PSoC5/MDIO_Interface.c ****         *  The upper 16 bits of the address must be 0 for SRAM and CYDEV_FLS_BASE
 947:Generated_Source\PSoC5/MDIO_Interface.c ****         *  for Flash.
 948:Generated_Source\PSoC5/MDIO_Interface.c ****         */
ARM GAS  C:\Users\kopusov.FT\AppData\Local\Temp\ccT1QhKH.s 			page 20


 949:Generated_Source\PSoC5/MDIO_Interface.c ****         #if(CY_PSOC3)
 950:Generated_Source\PSoC5/MDIO_Interface.c ****             uint8 pageMask = 0x01u;
 951:Generated_Source\PSoC5/MDIO_Interface.c ****             for(idx = 0u; idx < MDIO_Interface_PAGE_INFO_SIZE; idx += 2u)
 952:Generated_Source\PSoC5/MDIO_Interface.c ****             {
 953:Generated_Source\PSoC5/MDIO_Interface.c ****                 MDIO_Interface_pageInfoList[idx] = (uint32)MDIO_Interface_pageInfoPtr[idx] &
 954:Generated_Source\PSoC5/MDIO_Interface.c ****                                                         MDIO_Interface_LO16_ADDR_MASK;
 955:Generated_Source\PSoC5/MDIO_Interface.c ****                 if(0u == (MDIO_Interface_PAGE_MEM_TYPE & pageMask))
 956:Generated_Source\PSoC5/MDIO_Interface.c ****                 {
 957:Generated_Source\PSoC5/MDIO_Interface.c ****                     MDIO_Interface_pageInfoList[idx] |= CYDEV_FLS_BASE;
 958:Generated_Source\PSoC5/MDIO_Interface.c ****                 }
 959:Generated_Source\PSoC5/MDIO_Interface.c ****                 MDIO_Interface_pageAddrList[idx>>1u] = MDIO_Interface_pageInfoList[idx];
 960:Generated_Source\PSoC5/MDIO_Interface.c ****                 MDIO_Interface_pageInfoList[idx] = CYSWAP_ENDIAN32(MDIO_Interface_pageInfoList[idx]
 961:Generated_Source\PSoC5/MDIO_Interface.c **** 
 962:Generated_Source\PSoC5/MDIO_Interface.c ****                 MDIO_Interface_pageInfoList[idx+1u] = (uint32)MDIO_Interface_pageInfoPtr[idx+1u] &
 963:Generated_Source\PSoC5/MDIO_Interface.c ****                                                         MDIO_Interface_LO16_ADDR_MASK;
 964:Generated_Source\PSoC5/MDIO_Interface.c ****                 if(0u == (MDIO_Interface_CFG_MEM_TYPE & pageMask))
 965:Generated_Source\PSoC5/MDIO_Interface.c ****                 {
 966:Generated_Source\PSoC5/MDIO_Interface.c ****                     MDIO_Interface_pageInfoList[idx+1u] |= CYDEV_FLS_BASE;
 967:Generated_Source\PSoC5/MDIO_Interface.c ****                 }
 968:Generated_Source\PSoC5/MDIO_Interface.c ****                 MDIO_Interface_pageInfoList[idx+1u] = CYSWAP_ENDIAN32(MDIO_Interface_pageInfoList[i
 969:Generated_Source\PSoC5/MDIO_Interface.c ****                 pageMask = (uint8)(pageMask << 1u);
 970:Generated_Source\PSoC5/MDIO_Interface.c ****             }
 971:Generated_Source\PSoC5/MDIO_Interface.c ****         #endif /* CY_PSOC3 */
 972:Generated_Source\PSoC5/MDIO_Interface.c **** 
 973:Generated_Source\PSoC5/MDIO_Interface.c ****         /* 0x1FFF8000-0x1FFFFFFF needs to use alias at 0x20008000-0x2000FFFF */
 974:Generated_Source\PSoC5/MDIO_Interface.c ****         #if(CY_PSOC5)
 975:Generated_Source\PSoC5/MDIO_Interface.c ****             for(idx = 0u; idx < MDIO_Interface_PAGE_INFO_SIZE; idx += 2u)
 134              		.loc 1 975 0
 135 0002 0023     		movs	r3, #0
 136 0004 2CE0     		b	.L8
 137              	.LVL16:
 138              	.L11:
 976:Generated_Source\PSoC5/MDIO_Interface.c ****             {
 977:Generated_Source\PSoC5/MDIO_Interface.c ****                 MDIO_Interface_pageInfoList[idx] = (uint32)MDIO_Interface_pageInfoPtr[idx];
 139              		.loc 1 977 0
 140 0006 1846     		mov	r0, r3
 141 0008 D54A     		ldr	r2, .L15
 142 000a 52F82320 		ldr	r2, [r2, r3, lsl #2]
 143 000e D549     		ldr	r1, .L15+4
 144 0010 01EB8301 		add	r1, r1, r3, lsl #2
 145 0014 8A63     		str	r2, [r1, #56]
 978:Generated_Source\PSoC5/MDIO_Interface.c ****                 if(MDIO_Interface_CPU_SRAM_BASE <= MDIO_Interface_pageInfoList[idx])
 146              		.loc 1 978 0
 147 0016 D449     		ldr	r1, .L15+8
 148 0018 8A42     		cmp	r2, r1
 149 001a 06D9     		bls	.L9
 979:Generated_Source\PSoC5/MDIO_Interface.c ****                 {
 980:Generated_Source\PSoC5/MDIO_Interface.c ****                     MDIO_Interface_pageInfoList[idx] &= MDIO_Interface_LO16_ADDR_MASK;
 150              		.loc 1 980 0
 151 001c 92B2     		uxth	r2, r2
 152 001e D149     		ldr	r1, .L15+4
 153 0020 01EB8301 		add	r1, r1, r3, lsl #2
 981:Generated_Source\PSoC5/MDIO_Interface.c ****                     MDIO_Interface_pageInfoList[idx] |= MDIO_Interface_DMA_SRAM_BASE;
 154              		.loc 1 981 0
 155 0024 42F00052 		orr	r2, r2, #536870912
 156 0028 8A63     		str	r2, [r1, #56]
 157              	.L9:
ARM GAS  C:\Users\kopusov.FT\AppData\Local\Temp\ccT1QhKH.s 			page 21


 982:Generated_Source\PSoC5/MDIO_Interface.c ****                 }
 983:Generated_Source\PSoC5/MDIO_Interface.c **** 
 984:Generated_Source\PSoC5/MDIO_Interface.c ****                 MDIO_Interface_pageAddrList[idx>>1u] = MDIO_Interface_pageInfoList[idx];
 158              		.loc 1 984 0
 159 002a 5908     		lsrs	r1, r3, #1
 160 002c CD4A     		ldr	r2, .L15+4
 161 002e 02EB8000 		add	r0, r2, r0, lsl #2
 162 0032 806B     		ldr	r0, [r0, #56]
 163 0034 02EB8101 		add	r1, r2, r1, lsl #2
 164 0038 8866     		str	r0, [r1, #104]
 985:Generated_Source\PSoC5/MDIO_Interface.c **** 
 986:Generated_Source\PSoC5/MDIO_Interface.c ****                 MDIO_Interface_pageInfoList[idx+1u] = (uint32)MDIO_Interface_pageInfoPtr[idx+1u];
 165              		.loc 1 986 0
 166 003a 581C     		adds	r0, r3, #1
 167 003c C849     		ldr	r1, .L15
 168 003e 51F82010 		ldr	r1, [r1, r0, lsl #2]
 169 0042 02EB8002 		add	r2, r2, r0, lsl #2
 170 0046 9163     		str	r1, [r2, #56]
 987:Generated_Source\PSoC5/MDIO_Interface.c ****                 if(MDIO_Interface_CPU_SRAM_BASE <= MDIO_Interface_pageInfoList[idx+1u])
 171              		.loc 1 987 0
 172 0048 C74A     		ldr	r2, .L15+8
 173 004a 9142     		cmp	r1, r2
 174 004c 06D9     		bls	.L10
 988:Generated_Source\PSoC5/MDIO_Interface.c ****                 {
 989:Generated_Source\PSoC5/MDIO_Interface.c ****                     MDIO_Interface_pageInfoList[idx+1u] &= MDIO_Interface_LO16_ADDR_MASK;
 175              		.loc 1 989 0
 176 004e 89B2     		uxth	r1, r1
 177 0050 C44A     		ldr	r2, .L15+4
 178 0052 02EB8000 		add	r0, r2, r0, lsl #2
 990:Generated_Source\PSoC5/MDIO_Interface.c ****                     MDIO_Interface_pageInfoList[idx+1u] |= MDIO_Interface_DMA_SRAM_BASE;
 179              		.loc 1 990 0
 180 0056 41F00051 		orr	r1, r1, #536870912
 181 005a 8163     		str	r1, [r0, #56]
 182              	.L10:
 975:Generated_Source\PSoC5/MDIO_Interface.c ****             {
 183              		.loc 1 975 0 discriminator 2
 184 005c 0233     		adds	r3, r3, #2
 185              	.LVL17:
 186 005e DBB2     		uxtb	r3, r3
 187              	.LVL18:
 188              	.L8:
 975:Generated_Source\PSoC5/MDIO_Interface.c ****             {
 189              		.loc 1 975 0 is_stmt 0 discriminator 1
 190 0060 0B2B     		cmp	r3, #11
 191 0062 D0D9     		bls	.L11
 991:Generated_Source\PSoC5/MDIO_Interface.c ****                 }
 992:Generated_Source\PSoC5/MDIO_Interface.c ****             }
 993:Generated_Source\PSoC5/MDIO_Interface.c ****         #endif /* CY_PSOC5 */
 994:Generated_Source\PSoC5/MDIO_Interface.c **** 
 995:Generated_Source\PSoC5/MDIO_Interface.c **** 
 996:Generated_Source\PSoC5/MDIO_Interface.c ****         /***********************************************************************
 997:Generated_Source\PSoC5/MDIO_Interface.c ****         *       Register space start and end address DMAs
 998:Generated_Source\PSoC5/MDIO_Interface.c ****         ***********************************************************************/
 999:Generated_Source\PSoC5/MDIO_Interface.c **** 
1000:Generated_Source\PSoC5/MDIO_Interface.c ****         /* Transfer register space start and end addresses from SRAM to UDB,
1001:Generated_Source\PSoC5/MDIO_Interface.c ****         *  two byte transfer, each transfer requires request.
1002:Generated_Source\PSoC5/MDIO_Interface.c ****         */
ARM GAS  C:\Users\kopusov.FT\AppData\Local\Temp\ccT1QhKH.s 			page 22


1003:Generated_Source\PSoC5/MDIO_Interface.c ****         MDIO_Interface_pageStartAddrDMA_Chan = MDIO_Interface_StartAddrDMA_DmaInitialize(
 192              		.loc 1 1003 0 is_stmt 1
 193 0064 0220     		movs	r0, #2
 194 0066 0121     		movs	r1, #1
 195 0068 41F6FF72 		movw	r2, #8191
 196 006c 4FF48043 		mov	r3, #16384
 197              	.LVL19:
 198 0070 FFF7FEFF 		bl	MDIO_Interface_StartAddrDMA_DmaInitialize
 199              	.LVL20:
 200 0074 BB4C     		ldr	r4, .L15+4
 201 0076 6070     		strb	r0, [r4, #1]
1004:Generated_Source\PSoC5/MDIO_Interface.c ****             MDIO_Interface_PAGE_ADDR_DMA_BYTES_PER_BURST, MDIO_Interface_PAGE_ADDR_DMA_REQUEST_PER_
1005:Generated_Source\PSoC5/MDIO_Interface.c ****             HI16(CYDEV_SRAM_BASE),   HI16(CYDEV_PERIPH_BASE));
1006:Generated_Source\PSoC5/MDIO_Interface.c **** 
1007:Generated_Source\PSoC5/MDIO_Interface.c ****         MDIO_Interface_pageEndAddrDMA_Chan   = MDIO_Interface_EndAddrDMA_DmaInitialize(
 202              		.loc 1 1007 0
 203 0078 0220     		movs	r0, #2
 204 007a 0121     		movs	r1, #1
 205 007c 41F6FF72 		movw	r2, #8191
 206 0080 4FF48043 		mov	r3, #16384
 207 0084 FFF7FEFF 		bl	MDIO_Interface_EndAddrDMA_DmaInitialize
 208              	.LVL21:
 209 0088 6071     		strb	r0, [r4, #5]
1008:Generated_Source\PSoC5/MDIO_Interface.c ****             MDIO_Interface_PAGE_ADDR_DMA_BYTES_PER_BURST, MDIO_Interface_PAGE_ADDR_DMA_REQUEST_PER_
1009:Generated_Source\PSoC5/MDIO_Interface.c ****             HI16(CYDEV_SRAM_BASE),   HI16(CYDEV_PERIPH_BASE));
1010:Generated_Source\PSoC5/MDIO_Interface.c **** 
1011:Generated_Source\PSoC5/MDIO_Interface.c ****         /* Update channel list with allocated channel numbers */
1012:Generated_Source\PSoC5/MDIO_Interface.c ****         MDIO_Interface_dmaChannelList[0u] = MDIO_Interface_pageStartAddrDMA_Chan;
 210              		.loc 1 1012 0
 211 008a 6378     		ldrb	r3, [r4, #1]	@ zero_extendqisi2
 212 008c 84F82C30 		strb	r3, [r4, #44]
1013:Generated_Source\PSoC5/MDIO_Interface.c ****         MDIO_Interface_dmaChannelList[1u] = MDIO_Interface_pageEndAddrDMA_Chan;
 213              		.loc 1 1013 0
 214 0090 84F82D00 		strb	r0, [r4, #45]
1014:Generated_Source\PSoC5/MDIO_Interface.c **** 
1015:Generated_Source\PSoC5/MDIO_Interface.c ****         MDIO_Interface_pageStartAddr_TD[0u] = CyDmaTdAllocate();
 215              		.loc 1 1015 0
 216 0094 FFF7FEFF 		bl	CyDmaTdAllocate
 217              	.LVL22:
 218 0098 2070     		strb	r0, [r4]
1016:Generated_Source\PSoC5/MDIO_Interface.c ****         MDIO_Interface_pageEndAddr_TD[0u]   = CyDmaTdAllocate();
 219              		.loc 1 1016 0
 220 009a FFF7FEFF 		bl	CyDmaTdAllocate
 221              	.LVL23:
 222 009e 2071     		strb	r0, [r4, #4]
1017:Generated_Source\PSoC5/MDIO_Interface.c **** 
1018:Generated_Source\PSoC5/MDIO_Interface.c ****         /* One TD looping on itself, increment source address, but not
1019:Generated_Source\PSoC5/MDIO_Interface.c ****         *  destination address.
1020:Generated_Source\PSoC5/MDIO_Interface.c ****         */
1021:Generated_Source\PSoC5/MDIO_Interface.c ****         (void) CyDmaTdSetConfiguration(MDIO_Interface_pageStartAddr_TD[0u], MDIO_Interface_PAGE_ADD
 223              		.loc 1 1021 0
 224 00a0 2278     		ldrb	r2, [r4]	@ zero_extendqisi2
 225 00a2 1046     		mov	r0, r2
 226 00a4 0C21     		movs	r1, #12
 227 00a6 0123     		movs	r3, #1
 228 00a8 FFF7FEFF 		bl	CyDmaTdSetConfiguration
 229              	.LVL24:
ARM GAS  C:\Users\kopusov.FT\AppData\Local\Temp\ccT1QhKH.s 			page 23


1022:Generated_Source\PSoC5/MDIO_Interface.c ****                                        MDIO_Interface_pageStartAddr_TD[0u], MDIO_Interface_PAGE_ADD
1023:Generated_Source\PSoC5/MDIO_Interface.c ****         (void) CyDmaTdSetConfiguration(MDIO_Interface_pageEndAddr_TD[0u],   MDIO_Interface_PAGE_ADD
 230              		.loc 1 1023 0
 231 00ac 2279     		ldrb	r2, [r4, #4]	@ zero_extendqisi2
 232 00ae 1046     		mov	r0, r2
 233 00b0 0C21     		movs	r1, #12
 234 00b2 0123     		movs	r3, #1
 235 00b4 FFF7FEFF 		bl	CyDmaTdSetConfiguration
 236              	.LVL25:
1024:Generated_Source\PSoC5/MDIO_Interface.c ****                                        MDIO_Interface_pageEndAddr_TD[0u],   MDIO_Interface_PAGE_ADD
1025:Generated_Source\PSoC5/MDIO_Interface.c **** 
1026:Generated_Source\PSoC5/MDIO_Interface.c ****         /* Move register space boundaries from regPageStartAddr and
1027:Generated_Source\PSoC5/MDIO_Interface.c ****         *  regPageEndAddr arrays in SRAM to address comparison block FIFO 0
1028:Generated_Source\PSoC5/MDIO_Interface.c ****         *  and FIFO 1 correspondingly.
1029:Generated_Source\PSoC5/MDIO_Interface.c ****         */
1030:Generated_Source\PSoC5/MDIO_Interface.c ****         (void) CyDmaTdSetAddress(MDIO_Interface_pageStartAddr_TD[0u], LO16((uint32)MDIO_Interface_p
 237              		.loc 1 1030 0
 238 00b8 AC4D     		ldr	r5, .L15+12
 239 00ba 2078     		ldrb	r0, [r4]	@ zero_extendqisi2
 240 00bc A9B2     		uxth	r1, r5
 241 00be 46F68402 		movw	r2, #26756
 242 00c2 FFF7FEFF 		bl	CyDmaTdSetAddress
 243              	.LVL26:
1031:Generated_Source\PSoC5/MDIO_Interface.c ****                                                                         LO16((uint32)MDIO_Interface
1032:Generated_Source\PSoC5/MDIO_Interface.c ****         (void) CyDmaTdSetAddress(MDIO_Interface_pageEndAddr_TD[0u],   LO16((uint32)MDIO_Interface_p
 244              		.loc 1 1032 0
 245 00c6 05F10C01 		add	r1, r5, #12
 246 00ca 2079     		ldrb	r0, [r4, #4]	@ zero_extendqisi2
 247 00cc 89B2     		uxth	r1, r1
 248 00ce 46F6A402 		movw	r2, #26788
 249 00d2 FFF7FEFF 		bl	CyDmaTdSetAddress
 250              	.LVL27:
1033:Generated_Source\PSoC5/MDIO_Interface.c ****                                                                         LO16((uint32)MDIO_Interface
1034:Generated_Source\PSoC5/MDIO_Interface.c **** 
1035:Generated_Source\PSoC5/MDIO_Interface.c **** 
1036:Generated_Source\PSoC5/MDIO_Interface.c ****         /***********************************************************************
1037:Generated_Source\PSoC5/MDIO_Interface.c ****         *                   Register page info DMA
1038:Generated_Source\PSoC5/MDIO_Interface.c ****         ***********************************************************************/
1039:Generated_Source\PSoC5/MDIO_Interface.c **** 
1040:Generated_Source\PSoC5/MDIO_Interface.c ****         /* Transfer the register page info from SRAM to the address calculation
1041:Generated_Source\PSoC5/MDIO_Interface.c ****         *  datapath, two byte transfer, all subsequent bursts after the first
1042:Generated_Source\PSoC5/MDIO_Interface.c ****         *  burst will be automatically requested and carried out.
1043:Generated_Source\PSoC5/MDIO_Interface.c ****         */
1044:Generated_Source\PSoC5/MDIO_Interface.c ****         MDIO_Interface_pageInfoDMA_Chan = MDIO_Interface_InfoDMA_DmaInitialize(
 251              		.loc 1 1044 0
 252 00d6 0220     		movs	r0, #2
 253 00d8 0021     		movs	r1, #0
 254 00da 41F6FF72 		movw	r2, #8191
 255 00de 4FF48043 		mov	r3, #16384
 256 00e2 FFF7FEFF 		bl	MDIO_Interface_InfoDMA_DmaInitialize
 257              	.LVL28:
 258 00e6 6072     		strb	r0, [r4, #9]
1045:Generated_Source\PSoC5/MDIO_Interface.c ****             MDIO_Interface_PAGE_INFO_DMA_BYTES_PER_BURST,  MDIO_Interface_PAGE_INFO_DMA_REQUEST_PER
1046:Generated_Source\PSoC5/MDIO_Interface.c ****             HI16(CYDEV_SRAM_BASE), HI16(CYDEV_PERIPH_BASE));
1047:Generated_Source\PSoC5/MDIO_Interface.c **** 
1048:Generated_Source\PSoC5/MDIO_Interface.c ****         /* Update channel list with allocated channel number */
1049:Generated_Source\PSoC5/MDIO_Interface.c ****         MDIO_Interface_dmaChannelList[2u] = MDIO_Interface_pageInfoDMA_Chan;
ARM GAS  C:\Users\kopusov.FT\AppData\Local\Temp\ccT1QhKH.s 			page 24


 259              		.loc 1 1049 0
 260 00e8 84F82E00 		strb	r0, [r4, #46]
1050:Generated_Source\PSoC5/MDIO_Interface.c **** 
1051:Generated_Source\PSoC5/MDIO_Interface.c ****         MDIO_Interface_pageInfoDMA_TD[0u] = CyDmaTdAllocate();
 261              		.loc 1 1051 0
 262 00ec FFF7FEFF 		bl	CyDmaTdAllocate
 263              	.LVL29:
 264 00f0 0246     		mov	r2, r0
 265 00f2 2072     		strb	r0, [r4, #8]
1052:Generated_Source\PSoC5/MDIO_Interface.c ****         /* One TD looping on itself, increment the source address, but not the
1053:Generated_Source\PSoC5/MDIO_Interface.c ****         *  destination address.
1054:Generated_Source\PSoC5/MDIO_Interface.c ****         */
1055:Generated_Source\PSoC5/MDIO_Interface.c ****         (void) CyDmaTdSetConfiguration(MDIO_Interface_pageInfoDMA_TD[0u], MDIO_Interface_PAGE_INFO_
 266              		.loc 1 1055 0
 267 00f4 0821     		movs	r1, #8
 268 00f6 0523     		movs	r3, #5
 269 00f8 FFF7FEFF 		bl	CyDmaTdSetConfiguration
 270              	.LVL30:
1056:Generated_Source\PSoC5/MDIO_Interface.c ****             MDIO_Interface_pageInfoDMA_TD[0u], TD_INC_SRC_ADR | MDIO_Interface_InfoDMA__TD_TERMOUT_
1057:Generated_Source\PSoC5/MDIO_Interface.c **** 
1058:Generated_Source\PSoC5/MDIO_Interface.c ****         /* Move the register page info from the SRAM to the address calculation
1059:Generated_Source\PSoC5/MDIO_Interface.c ****         *  datapath FIFO 0. The source address of this TD is set to 0, since it
1060:Generated_Source\PSoC5/MDIO_Interface.c ****         *  is configured later in run-time by the AddrDMA DMA.
1061:Generated_Source\PSoC5/MDIO_Interface.c ****         */
1062:Generated_Source\PSoC5/MDIO_Interface.c ****         (void) CyDmaTdSetAddress(MDIO_Interface_pageInfoDMA_TD[0u], LO16((uint32)0u),
 271              		.loc 1 1062 0
 272 00fc 207A     		ldrb	r0, [r4, #8]	@ zero_extendqisi2
 273 00fe 0021     		movs	r1, #0
 274 0100 46F68802 		movw	r2, #26760
 275 0104 FFF7FEFF 		bl	CyDmaTdSetAddress
 276              	.LVL31:
1063:Generated_Source\PSoC5/MDIO_Interface.c ****                                     LO16((uint32)MDIO_Interface_PAGE_INFO_PTR));
1064:Generated_Source\PSoC5/MDIO_Interface.c **** 
1065:Generated_Source\PSoC5/MDIO_Interface.c **** 
1066:Generated_Source\PSoC5/MDIO_Interface.c ****         /***********************************************************************
1067:Generated_Source\PSoC5/MDIO_Interface.c ****         *                          Read DMA
1068:Generated_Source\PSoC5/MDIO_Interface.c ****         ***********************************************************************/
1069:Generated_Source\PSoC5/MDIO_Interface.c **** 
1070:Generated_Source\PSoC5/MDIO_Interface.c ****         /* Transfer the register data from SRAM/Flash to FIFO 0 of the MDIO
1071:Generated_Source\PSoC5/MDIO_Interface.c ****         *  frame processing block. The source address is set to 0u, since it
1072:Generated_Source\PSoC5/MDIO_Interface.c ****         *  is updated in run-time by Address DMA.
1073:Generated_Source\PSoC5/MDIO_Interface.c ****         */
1074:Generated_Source\PSoC5/MDIO_Interface.c ****         MDIO_Interface_rdDMA_Chan = MDIO_Interface_RdDMA_DmaInitialize(
 277              		.loc 1 1074 0
 278 0108 0220     		movs	r0, #2
 279 010a 0121     		movs	r1, #1
 280 010c 0022     		movs	r2, #0
 281 010e 4FF48043 		mov	r3, #16384
 282 0112 FFF7FEFF 		bl	MDIO_Interface_RdDMA_DmaInitialize
 283              	.LVL32:
 284 0116 6075     		strb	r0, [r4, #21]
1075:Generated_Source\PSoC5/MDIO_Interface.c ****             MDIO_Interface_REG_MEM_DMA_BYTES_PER_BURST, MDIO_Interface_REG_MEM_DMA_REQUEST_PER_BURS
1076:Generated_Source\PSoC5/MDIO_Interface.c ****             0u, HI16(CYDEV_PERIPH_BASE));
1077:Generated_Source\PSoC5/MDIO_Interface.c **** 
1078:Generated_Source\PSoC5/MDIO_Interface.c ****         /* Update channel list with allocated channel number */
1079:Generated_Source\PSoC5/MDIO_Interface.c ****         MDIO_Interface_dmaChannelList[3u] = MDIO_Interface_rdDMA_Chan;
 285              		.loc 1 1079 0
ARM GAS  C:\Users\kopusov.FT\AppData\Local\Temp\ccT1QhKH.s 			page 25


 286 0118 84F82F00 		strb	r0, [r4, #47]
1080:Generated_Source\PSoC5/MDIO_Interface.c **** 
1081:Generated_Source\PSoC5/MDIO_Interface.c ****         MDIO_Interface_rdDMA_TD[0u] = CyDmaTdAllocate();
 287              		.loc 1 1081 0
 288 011c FFF7FEFF 		bl	CyDmaTdAllocate
 289              	.LVL33:
 290 0120 0246     		mov	r2, r0
 291 0122 2075     		strb	r0, [r4, #20]
1082:Generated_Source\PSoC5/MDIO_Interface.c **** 
1083:Generated_Source\PSoC5/MDIO_Interface.c ****         /* One TD looping on itself, increment source address, but not
1084:Generated_Source\PSoC5/MDIO_Interface.c ****         *  destination address.
1085:Generated_Source\PSoC5/MDIO_Interface.c ****         */
1086:Generated_Source\PSoC5/MDIO_Interface.c ****         (void) CyDmaTdSetConfiguration(MDIO_Interface_rdDMA_TD[0u], MDIO_Interface_REG_MEM_DMA_TD_S
 292              		.loc 1 1086 0
 293 0124 0221     		movs	r1, #2
 294 0126 8123     		movs	r3, #129
 295 0128 FFF7FEFF 		bl	CyDmaTdSetConfiguration
 296              	.LVL34:
1087:Generated_Source\PSoC5/MDIO_Interface.c ****                     MDIO_Interface_rdDMA_TD[0u], MDIO_Interface_RdDMA__TD_TERMOUT_EN | TD_INC_SRC_A
1088:Generated_Source\PSoC5/MDIO_Interface.c **** 
1089:Generated_Source\PSoC5/MDIO_Interface.c ****         /* Move the register data from the SRAM or Flash to the FIFO 0 register
1090:Generated_Source\PSoC5/MDIO_Interface.c ****         *  of the frame processing block. The source address of this TD is set
1091:Generated_Source\PSoC5/MDIO_Interface.c ****         *  to 0, since it is configured later in run-time by the AddrDMA DMA.
1092:Generated_Source\PSoC5/MDIO_Interface.c ****         */
1093:Generated_Source\PSoC5/MDIO_Interface.c ****         (void) CyDmaTdSetAddress(MDIO_Interface_rdDMA_TD[0u], LO16((uint32)0u),
 297              		.loc 1 1093 0
 298 012c 207D     		ldrb	r0, [r4, #20]	@ zero_extendqisi2
 299 012e 0021     		movs	r1, #0
 300 0130 46F69422 		movw	r2, #27284
 301 0134 FFF7FEFF 		bl	CyDmaTdSetAddress
 302              	.LVL35:
1094:Generated_Source\PSoC5/MDIO_Interface.c ****                                                                 LO16((uint32)MDIO_Interface_FP_FIFO
1095:Generated_Source\PSoC5/MDIO_Interface.c **** 
1096:Generated_Source\PSoC5/MDIO_Interface.c **** 
1097:Generated_Source\PSoC5/MDIO_Interface.c ****         /***********************************************************************
1098:Generated_Source\PSoC5/MDIO_Interface.c ****         *                           Write DMA
1099:Generated_Source\PSoC5/MDIO_Interface.c ****         ***********************************************************************/
1100:Generated_Source\PSoC5/MDIO_Interface.c **** 
1101:Generated_Source\PSoC5/MDIO_Interface.c ****         /* Transfer the register data from the FIFO 1 of the MDIO frame processing
1102:Generated_Source\PSoC5/MDIO_Interface.c ****         *  block to the register memory in SRAM.
1103:Generated_Source\PSoC5/MDIO_Interface.c ****         */
1104:Generated_Source\PSoC5/MDIO_Interface.c ****         MDIO_Interface_wrDMA_Chan = MDIO_Interface_WrDMA_DmaInitialize(
 303              		.loc 1 1104 0
 304 0138 0220     		movs	r0, #2
 305 013a 0121     		movs	r1, #1
 306 013c 4FF48042 		mov	r2, #16384
 307 0140 41F6FF73 		movw	r3, #8191
 308 0144 FFF7FEFF 		bl	MDIO_Interface_WrDMA_DmaInitialize
 309              	.LVL36:
 310 0148 6076     		strb	r0, [r4, #25]
1105:Generated_Source\PSoC5/MDIO_Interface.c ****             MDIO_Interface_REG_MEM_DMA_BYTES_PER_BURST, MDIO_Interface_REG_MEM_DMA_REQUEST_PER_BURS
1106:Generated_Source\PSoC5/MDIO_Interface.c ****             HI16(CYDEV_PERIPH_BASE), HI16(CYDEV_SRAM_BASE));
1107:Generated_Source\PSoC5/MDIO_Interface.c **** 
1108:Generated_Source\PSoC5/MDIO_Interface.c ****         /* Update channel list with allocated channel number */
1109:Generated_Source\PSoC5/MDIO_Interface.c ****         MDIO_Interface_dmaChannelList[4u] = MDIO_Interface_wrDMA_Chan;
 311              		.loc 1 1109 0
 312 014a 84F83000 		strb	r0, [r4, #48]
ARM GAS  C:\Users\kopusov.FT\AppData\Local\Temp\ccT1QhKH.s 			page 26


1110:Generated_Source\PSoC5/MDIO_Interface.c **** 
1111:Generated_Source\PSoC5/MDIO_Interface.c ****         MDIO_Interface_wrDMA_TD[0u] = CyDmaTdAllocate();
 313              		.loc 1 1111 0
 314 014e FFF7FEFF 		bl	CyDmaTdAllocate
 315              	.LVL37:
 316 0152 0246     		mov	r2, r0
 317 0154 2076     		strb	r0, [r4, #24]
1112:Generated_Source\PSoC5/MDIO_Interface.c **** 
1113:Generated_Source\PSoC5/MDIO_Interface.c ****         /* One TD looping on itself, increment destination address, but not
1114:Generated_Source\PSoC5/MDIO_Interface.c ****         *  source address.
1115:Generated_Source\PSoC5/MDIO_Interface.c ****         */
1116:Generated_Source\PSoC5/MDIO_Interface.c ****         (void) CyDmaTdSetConfiguration(MDIO_Interface_wrDMA_TD[0u], MDIO_Interface_REG_MEM_DMA_TD_S
 318              		.loc 1 1116 0
 319 0156 0221     		movs	r1, #2
 320 0158 8623     		movs	r3, #134
 321 015a FFF7FEFF 		bl	CyDmaTdSetConfiguration
 322              	.LVL38:
1117:Generated_Source\PSoC5/MDIO_Interface.c ****                     MDIO_Interface_wrDMA_TD[0u], MDIO_Interface_WrDMA__TD_TERMOUT_EN | TD_INC_DST_A
1118:Generated_Source\PSoC5/MDIO_Interface.c **** 
1119:Generated_Source\PSoC5/MDIO_Interface.c ****         /* Move the register data from the FIFO 1 register of the frame processing
1120:Generated_Source\PSoC5/MDIO_Interface.c ****         *  block to the register memory in SRAM. The destination address of this
1121:Generated_Source\PSoC5/MDIO_Interface.c ****         *  TD is set to 0, since it is configured later in run-time by the
1122:Generated_Source\PSoC5/MDIO_Interface.c ****         *  AddrDMA DMA.
1123:Generated_Source\PSoC5/MDIO_Interface.c ****         */
1124:Generated_Source\PSoC5/MDIO_Interface.c ****         (void) CyDmaTdSetAddress(MDIO_Interface_wrDMA_TD[0u], LO16((uint32)MDIO_Interface_FP_FIFO1_
 323              		.loc 1 1124 0
 324 015e 207E     		ldrb	r0, [r4, #24]	@ zero_extendqisi2
 325 0160 46F6B421 		movw	r1, #27316
 326 0164 0022     		movs	r2, #0
 327 0166 FFF7FEFF 		bl	CyDmaTdSetAddress
 328              	.LVL39:
1125:Generated_Source\PSoC5/MDIO_Interface.c ****                                                                 LO16((uint32)0u));
1126:Generated_Source\PSoC5/MDIO_Interface.c **** 
1127:Generated_Source\PSoC5/MDIO_Interface.c **** 
1128:Generated_Source\PSoC5/MDIO_Interface.c ****         /***********************************************************************
1129:Generated_Source\PSoC5/MDIO_Interface.c ****         *               Register configuration DMAs
1130:Generated_Source\PSoC5/MDIO_Interface.c ****         ***********************************************************************/
1131:Generated_Source\PSoC5/MDIO_Interface.c **** 
1132:Generated_Source\PSoC5/MDIO_Interface.c ****         /* CfgDMA1 transfers the register configuration data (mask and attributes)
1133:Generated_Source\PSoC5/MDIO_Interface.c ****         * from the configuration memory in Flash/SRAM to the fixed memory
1134:Generated_Source\PSoC5/MDIO_Interface.c ****         * location. Then the CfgDMA2 moves the configuration from this location
1135:Generated_Source\PSoC5/MDIO_Interface.c ****         * into the UDB array. The source address of CfgDMA1 is set to 0u, since
1136:Generated_Source\PSoC5/MDIO_Interface.c ****         * it is updated in run-time by Address DMA.
1137:Generated_Source\PSoC5/MDIO_Interface.c ****         */
1138:Generated_Source\PSoC5/MDIO_Interface.c ****         MDIO_Interface_cfgDMA1_Chan = MDIO_Interface_CfgDMA1_DmaInitialize(
 329              		.loc 1 1138 0
 330 016a 0420     		movs	r0, #4
 331 016c 0021     		movs	r1, #0
 332 016e 0A46     		mov	r2, r1
 333 0170 41F6FF73 		movw	r3, #8191
 334 0174 FFF7FEFF 		bl	MDIO_Interface_CfgDMA1_DmaInitialize
 335              	.LVL40:
 336 0178 6077     		strb	r0, [r4, #29]
1139:Generated_Source\PSoC5/MDIO_Interface.c ****             MDIO_Interface_CFG_DMA1_BYTES_PER_BURST, MDIO_Interface_CFG_DMA1_REQUEST_PER_BURST,
1140:Generated_Source\PSoC5/MDIO_Interface.c ****             HI16(0u), HI16(CYDEV_SRAM_BASE));
1141:Generated_Source\PSoC5/MDIO_Interface.c **** 
1142:Generated_Source\PSoC5/MDIO_Interface.c ****         MDIO_Interface_cfgDMA2_Chan = MDIO_Interface_CfgDMA2_DmaInitialize(
ARM GAS  C:\Users\kopusov.FT\AppData\Local\Temp\ccT1QhKH.s 			page 27


 337              		.loc 1 1142 0
 338 017a 0120     		movs	r0, #1
 339 017c 0021     		movs	r1, #0
 340 017e 41F6FF72 		movw	r2, #8191
 341 0182 4FF48043 		mov	r3, #16384
 342 0186 FFF7FEFF 		bl	MDIO_Interface_CfgDMA2_DmaInitialize
 343              	.LVL41:
 344 018a 84F82200 		strb	r0, [r4, #34]
1143:Generated_Source\PSoC5/MDIO_Interface.c ****             MDIO_Interface_CFG_DMA2_BYTES_PER_BURST, MDIO_Interface_CFG_DMA2_REQUEST_PER_BURST,
1144:Generated_Source\PSoC5/MDIO_Interface.c ****             HI16(CYDEV_SRAM_BASE), HI16(CYDEV_PERIPH_BASE));
1145:Generated_Source\PSoC5/MDIO_Interface.c **** 
1146:Generated_Source\PSoC5/MDIO_Interface.c ****         /* Update channel list with allocated channel number */
1147:Generated_Source\PSoC5/MDIO_Interface.c ****         MDIO_Interface_dmaChannelList[5u] = MDIO_Interface_cfgDMA1_Chan;
 345              		.loc 1 1147 0
 346 018e 637F     		ldrb	r3, [r4, #29]	@ zero_extendqisi2
 347 0190 84F83130 		strb	r3, [r4, #49]
1148:Generated_Source\PSoC5/MDIO_Interface.c ****         MDIO_Interface_dmaChannelList[6u] = MDIO_Interface_cfgDMA2_Chan;
 348              		.loc 1 1148 0
 349 0194 84F83200 		strb	r0, [r4, #50]
1149:Generated_Source\PSoC5/MDIO_Interface.c **** 
1150:Generated_Source\PSoC5/MDIO_Interface.c ****         MDIO_Interface_cfgDMA1_TD[0u] = CyDmaTdAllocate();
 350              		.loc 1 1150 0
 351 0198 FFF7FEFF 		bl	CyDmaTdAllocate
 352              	.LVL42:
 353 019c 2077     		strb	r0, [r4, #28]
1151:Generated_Source\PSoC5/MDIO_Interface.c ****         MDIO_Interface_cfgDMA2_TD[0u] = CyDmaTdAllocate();
 354              		.loc 1 1151 0
 355 019e FFF7FEFF 		bl	CyDmaTdAllocate
 356              	.LVL43:
 357 01a2 84F82000 		strb	r0, [r4, #32]
1152:Generated_Source\PSoC5/MDIO_Interface.c ****         MDIO_Interface_cfgDMA2_TD[1u] = CyDmaTdAllocate();
 358              		.loc 1 1152 0
 359 01a6 FFF7FEFF 		bl	CyDmaTdAllocate
 360              	.LVL44:
 361 01aa 84F82100 		strb	r0, [r4, #33]
1153:Generated_Source\PSoC5/MDIO_Interface.c **** 
1154:Generated_Source\PSoC5/MDIO_Interface.c ****         /* TD looped on itself, increment source and destination
1155:Generated_Source\PSoC5/MDIO_Interface.c ****         *  address address. Increment is required for PSoC3 if data
1156:Generated_Source\PSoC5/MDIO_Interface.c ****         *  is not aligned.
1157:Generated_Source\PSoC5/MDIO_Interface.c ****         */
1158:Generated_Source\PSoC5/MDIO_Interface.c ****         (void) CyDmaTdSetConfiguration(MDIO_Interface_cfgDMA1_TD[0u], MDIO_Interface_CFG_DMA1_TD_SI
 362              		.loc 1 1158 0
 363 01ae 227F     		ldrb	r2, [r4, #28]	@ zero_extendqisi2
 364 01b0 1046     		mov	r0, r2
 365 01b2 0421     		movs	r1, #4
 366 01b4 0723     		movs	r3, #7
 367 01b6 FFF7FEFF 		bl	CyDmaTdSetConfiguration
 368              	.LVL45:
1159:Generated_Source\PSoC5/MDIO_Interface.c ****             MDIO_Interface_cfgDMA1_TD[0u], MDIO_Interface_CFG_DMA1_CFG);
1160:Generated_Source\PSoC5/MDIO_Interface.c **** 
1161:Generated_Source\PSoC5/MDIO_Interface.c ****         /* Two TD chain. Last TD in chain looped on first one. */
1162:Generated_Source\PSoC5/MDIO_Interface.c ****         (void) CyDmaTdSetConfiguration(MDIO_Interface_cfgDMA2_TD[0u], MDIO_Interface_CFG_DMA2_TD1_S
 369              		.loc 1 1162 0
 370 01ba 94F82000 		ldrb	r0, [r4, #32]	@ zero_extendqisi2
 371 01be 0221     		movs	r1, #2
 372 01c0 94F82120 		ldrb	r2, [r4, #33]	@ zero_extendqisi2
 373 01c4 2323     		movs	r3, #35
ARM GAS  C:\Users\kopusov.FT\AppData\Local\Temp\ccT1QhKH.s 			page 28


 374 01c6 FFF7FEFF 		bl	CyDmaTdSetConfiguration
 375              	.LVL46:
1163:Generated_Source\PSoC5/MDIO_Interface.c ****                                 MDIO_Interface_cfgDMA2_TD[1u], TD_INC_SRC_ADR | TD_INC_DST_ADR | TD
1164:Generated_Source\PSoC5/MDIO_Interface.c ****         (void) CyDmaTdSetConfiguration(MDIO_Interface_cfgDMA2_TD[1u], MDIO_Interface_CFG_DMA2_TD2_S
 376              		.loc 1 1164 0
 377 01ca 94F82100 		ldrb	r0, [r4, #33]	@ zero_extendqisi2
 378 01ce 0121     		movs	r1, #1
 379 01d0 94F82020 		ldrb	r2, [r4, #32]	@ zero_extendqisi2
 380 01d4 0023     		movs	r3, #0
 381 01d6 FFF7FEFF 		bl	CyDmaTdSetConfiguration
 382              	.LVL47:
1165:Generated_Source\PSoC5/MDIO_Interface.c ****                                 MDIO_Interface_cfgDMA2_TD[0u], MDIO_Interface_CfgDMA2__TD_TERMOUT_E
1166:Generated_Source\PSoC5/MDIO_Interface.c **** 
1167:Generated_Source\PSoC5/MDIO_Interface.c ****         /* Move the register configuration from Flash or SRAM into the fixed
1168:Generated_Source\PSoC5/MDIO_Interface.c ****         *  memory location in SRAM. The source address of this TD is set to 0,
1169:Generated_Source\PSoC5/MDIO_Interface.c ****         *  since it is configured later in run-time by AddrDMA DMA.
1170:Generated_Source\PSoC5/MDIO_Interface.c ****         */
1171:Generated_Source\PSoC5/MDIO_Interface.c ****         (void) CyDmaTdSetAddress(MDIO_Interface_cfgDMA1_TD[0u], LO16((uint32)0u),
 383              		.loc 1 1171 0
 384 01da 04F18005 		add	r5, r4, #128
 385 01de ADB2     		uxth	r5, r5
 386 01e0 207F     		ldrb	r0, [r4, #28]	@ zero_extendqisi2
 387 01e2 0021     		movs	r1, #0
 388 01e4 2A46     		mov	r2, r5
 389 01e6 FFF7FEFF 		bl	CyDmaTdSetAddress
 390              	.LVL48:
1172:Generated_Source\PSoC5/MDIO_Interface.c ****                                                                   LO16((uint32)&MDIO_Interface_regC
1173:Generated_Source\PSoC5/MDIO_Interface.c **** 
1174:Generated_Source\PSoC5/MDIO_Interface.c ****         /* Move register mask from memory to D1 register of MDIO frame
1175:Generated_Source\PSoC5/MDIO_Interface.c ****         *  processing datapath.
1176:Generated_Source\PSoC5/MDIO_Interface.c ****         */
1177:Generated_Source\PSoC5/MDIO_Interface.c ****         (void) CyDmaTdSetAddress(MDIO_Interface_cfgDMA2_TD[0u], LO16((uint32)&MDIO_Interface_regCon
 391              		.loc 1 1177 0
 392 01ea 94F82000 		ldrb	r0, [r4, #32]	@ zero_extendqisi2
 393 01ee 2946     		mov	r1, r5
 394 01f0 46F23A52 		movw	r2, #25914
 395 01f4 FFF7FEFF 		bl	CyDmaTdSetAddress
 396              	.LVL49:
1178:Generated_Source\PSoC5/MDIO_Interface.c ****                                                                   LO16((uint32)MDIO_Interface_REG_M
1179:Generated_Source\PSoC5/MDIO_Interface.c **** 
1180:Generated_Source\PSoC5/MDIO_Interface.c ****         /* Move register attributes from memory to regCfg control register
1181:Generated_Source\PSoC5/MDIO_Interface.c ****         *  of Address analyzer block.
1182:Generated_Source\PSoC5/MDIO_Interface.c ****         */
1183:Generated_Source\PSoC5/MDIO_Interface.c ****         (void) CyDmaTdSetAddress(MDIO_Interface_cfgDMA2_TD[1u],
 397              		.loc 1 1183 0
 398 01f8 A91C     		adds	r1, r5, #2
 399 01fa 94F82100 		ldrb	r0, [r4, #33]	@ zero_extendqisi2
 400 01fe 89B2     		uxth	r1, r1
 401 0200 46F27442 		movw	r2, #25716
 402 0204 FFF7FEFF 		bl	CyDmaTdSetAddress
 403              	.LVL50:
1184:Generated_Source\PSoC5/MDIO_Interface.c ****                         LO16((uint32)&MDIO_Interface_regConfig + MDIO_Interface_CTRL_BITS_OFFSET),
1185:Generated_Source\PSoC5/MDIO_Interface.c ****                         LO16((uint32)MDIO_Interface_REG_ATTR_PTR));
1186:Generated_Source\PSoC5/MDIO_Interface.c **** 
1187:Generated_Source\PSoC5/MDIO_Interface.c **** 
1188:Generated_Source\PSoC5/MDIO_Interface.c ****         /***********************************************************************
1189:Generated_Source\PSoC5/MDIO_Interface.c ****         *               Register physical memory address DMA
ARM GAS  C:\Users\kopusov.FT\AppData\Local\Temp\ccT1QhKH.s 			page 29


1190:Generated_Source\PSoC5/MDIO_Interface.c ****         ***********************************************************************/
1191:Generated_Source\PSoC5/MDIO_Interface.c **** 
1192:Generated_Source\PSoC5/MDIO_Interface.c ****         /* Transfer data between UDB registers and DMAC config memory,
1193:Generated_Source\PSoC5/MDIO_Interface.c ****         *  two byte transfer, each transfer requires request.
1194:Generated_Source\PSoC5/MDIO_Interface.c ****         */
1195:Generated_Source\PSoC5/MDIO_Interface.c ****         MDIO_Interface_regAddrDMA_Chan  = MDIO_Interface_AddrDMA_DmaInitialize(
 404              		.loc 1 1195 0
 405 0208 0220     		movs	r0, #2
 406 020a 0121     		movs	r1, #1
 407 020c 4FF48042 		mov	r2, #16384
 408 0210 1346     		mov	r3, r2
 409 0212 FFF7FEFF 		bl	MDIO_Interface_AddrDMA_DmaInitialize
 410              	.LVL51:
 411 0216 E074     		strb	r0, [r4, #19]
1196:Generated_Source\PSoC5/MDIO_Interface.c ****             MDIO_Interface_REG_MEM_DMA_BYTES_PER_BURST,  MDIO_Interface_REG_MEM_DMA_REQUEST_PER_BUR
1197:Generated_Source\PSoC5/MDIO_Interface.c ****             HI16(CYDEV_PERIPH_BASE), HI16(CYDEV_PERIPH_BASE));
1198:Generated_Source\PSoC5/MDIO_Interface.c **** 
1199:Generated_Source\PSoC5/MDIO_Interface.c ****         /* Update channel list with allocated channel number */
1200:Generated_Source\PSoC5/MDIO_Interface.c ****         MDIO_Interface_dmaChannelList[7u] = MDIO_Interface_regAddrDMA_Chan;
 412              		.loc 1 1200 0
 413 0218 84F83300 		strb	r0, [r4, #51]
 414              	.LVL52:
1201:Generated_Source\PSoC5/MDIO_Interface.c **** 
1202:Generated_Source\PSoC5/MDIO_Interface.c ****         for(idx = 0u; idx < MDIO_Interface_REG_MEM_ADDR_DMA_TD_NUM; idx++)
 415              		.loc 1 1202 0
 416 021c 0024     		movs	r4, #0
 417 021e 06E0     		b	.L12
 418              	.LVL53:
 419              	.L13:
1203:Generated_Source\PSoC5/MDIO_Interface.c ****         {
1204:Generated_Source\PSoC5/MDIO_Interface.c ****             MDIO_Interface_regAddrDMA_TD[idx] = CyDmaTdAllocate();
 420              		.loc 1 1204 0 discriminator 3
 421 0220 FFF7FEFF 		bl	CyDmaTdAllocate
 422              	.LVL54:
 423 0224 4F4B     		ldr	r3, .L15+4
 424 0226 2344     		add	r3, r3, r4
 425 0228 1873     		strb	r0, [r3, #12]
1202:Generated_Source\PSoC5/MDIO_Interface.c ****         {
 426              		.loc 1 1202 0 discriminator 3
 427 022a 0134     		adds	r4, r4, #1
 428              	.LVL55:
 429 022c E4B2     		uxtb	r4, r4
 430              	.LVL56:
 431              	.L12:
1202:Generated_Source\PSoC5/MDIO_Interface.c ****         {
 432              		.loc 1 1202 0 is_stmt 0 discriminator 1
 433 022e 062C     		cmp	r4, #6
 434 0230 F6D9     		bls	.L13
1205:Generated_Source\PSoC5/MDIO_Interface.c ****         }
1206:Generated_Source\PSoC5/MDIO_Interface.c **** 
1207:Generated_Source\PSoC5/MDIO_Interface.c ****         /* Configure TD chain */
1208:Generated_Source\PSoC5/MDIO_Interface.c ****         (void) CyDmaTdSetConfiguration(MDIO_Interface_regAddrDMA_TD[0u], MDIO_Interface_REG_MEM_DMA
 435              		.loc 1 1208 0 is_stmt 1
 436 0232 4C4C     		ldr	r4, .L15+4
 437              	.LVL57:
 438 0234 207B     		ldrb	r0, [r4, #12]	@ zero_extendqisi2
 439 0236 0221     		movs	r1, #2
ARM GAS  C:\Users\kopusov.FT\AppData\Local\Temp\ccT1QhKH.s 			page 30


 440 0238 627B     		ldrb	r2, [r4, #13]	@ zero_extendqisi2
 441 023a 2023     		movs	r3, #32
 442 023c FFF7FEFF 		bl	CyDmaTdSetConfiguration
 443              	.LVL58:
1209:Generated_Source\PSoC5/MDIO_Interface.c ****                                        MDIO_Interface_regAddrDMA_TD[1u], TD_AUTO_EXEC_NEXT);
1210:Generated_Source\PSoC5/MDIO_Interface.c **** 
1211:Generated_Source\PSoC5/MDIO_Interface.c ****         (void) CyDmaTdSetConfiguration(MDIO_Interface_regAddrDMA_TD[1u], MDIO_Interface_REG_MEM_DMA
 444              		.loc 1 1211 0
 445 0240 607B     		ldrb	r0, [r4, #13]	@ zero_extendqisi2
 446 0242 0221     		movs	r1, #2
 447 0244 A27B     		ldrb	r2, [r4, #14]	@ zero_extendqisi2
 448 0246 0423     		movs	r3, #4
 449 0248 FFF7FEFF 		bl	CyDmaTdSetConfiguration
 450              	.LVL59:
1212:Generated_Source\PSoC5/MDIO_Interface.c ****                                        MDIO_Interface_regAddrDMA_TD[2u], MDIO_Interface_AddrDMA__TD
1213:Generated_Source\PSoC5/MDIO_Interface.c **** 
1214:Generated_Source\PSoC5/MDIO_Interface.c ****         (void) CyDmaTdSetConfiguration(MDIO_Interface_regAddrDMA_TD[2u], MDIO_Interface_REG_MEM_DMA
 451              		.loc 1 1214 0
 452 024c A07B     		ldrb	r0, [r4, #14]	@ zero_extendqisi2
 453 024e 0221     		movs	r1, #2
 454 0250 E27B     		ldrb	r2, [r4, #15]	@ zero_extendqisi2
 455 0252 2023     		movs	r3, #32
 456 0254 FFF7FEFF 		bl	CyDmaTdSetConfiguration
 457              	.LVL60:
1215:Generated_Source\PSoC5/MDIO_Interface.c ****                                        MDIO_Interface_regAddrDMA_TD[3u], TD_AUTO_EXEC_NEXT);
1216:Generated_Source\PSoC5/MDIO_Interface.c **** 
1217:Generated_Source\PSoC5/MDIO_Interface.c ****         (void) CyDmaTdSetConfiguration(MDIO_Interface_regAddrDMA_TD[3u], MDIO_Interface_REG_MEM_DMA
 458              		.loc 1 1217 0
 459 0258 E07B     		ldrb	r0, [r4, #15]	@ zero_extendqisi2
 460 025a 0221     		movs	r1, #2
 461 025c 227C     		ldrb	r2, [r4, #16]	@ zero_extendqisi2
 462 025e 0423     		movs	r3, #4
 463 0260 FFF7FEFF 		bl	CyDmaTdSetConfiguration
 464              	.LVL61:
1218:Generated_Source\PSoC5/MDIO_Interface.c ****                                        MDIO_Interface_regAddrDMA_TD[4u], MDIO_Interface_AddrDMA__TD
1219:Generated_Source\PSoC5/MDIO_Interface.c **** 
1220:Generated_Source\PSoC5/MDIO_Interface.c ****         (void) CyDmaTdSetConfiguration(MDIO_Interface_regAddrDMA_TD[4u], MDIO_Interface_REG_MEM_DMA
 465              		.loc 1 1220 0
 466 0264 207C     		ldrb	r0, [r4, #16]	@ zero_extendqisi2
 467 0266 0221     		movs	r1, #2
 468 0268 627C     		ldrb	r2, [r4, #17]	@ zero_extendqisi2
 469 026a 0423     		movs	r3, #4
 470 026c FFF7FEFF 		bl	CyDmaTdSetConfiguration
 471              	.LVL62:
1221:Generated_Source\PSoC5/MDIO_Interface.c ****                                        MDIO_Interface_regAddrDMA_TD[5u], MDIO_Interface_AddrDMA__TD
1222:Generated_Source\PSoC5/MDIO_Interface.c **** 
1223:Generated_Source\PSoC5/MDIO_Interface.c ****         (void) CyDmaTdSetConfiguration(MDIO_Interface_regAddrDMA_TD[5u], MDIO_Interface_REG_MEM_DMA
 472              		.loc 1 1223 0
 473 0270 607C     		ldrb	r0, [r4, #17]	@ zero_extendqisi2
 474 0272 0221     		movs	r1, #2
 475 0274 A27C     		ldrb	r2, [r4, #18]	@ zero_extendqisi2
 476 0276 0423     		movs	r3, #4
 477 0278 FFF7FEFF 		bl	CyDmaTdSetConfiguration
 478              	.LVL63:
1224:Generated_Source\PSoC5/MDIO_Interface.c ****                                        MDIO_Interface_regAddrDMA_TD[6u], MDIO_Interface_AddrDMA__TD
1225:Generated_Source\PSoC5/MDIO_Interface.c **** 
1226:Generated_Source\PSoC5/MDIO_Interface.c ****         (void) CyDmaTdSetConfiguration(MDIO_Interface_regAddrDMA_TD[6u], MDIO_Interface_REG_MEM_DMA
ARM GAS  C:\Users\kopusov.FT\AppData\Local\Temp\ccT1QhKH.s 			page 31


 479              		.loc 1 1226 0
 480 027c A07C     		ldrb	r0, [r4, #18]	@ zero_extendqisi2
 481 027e 0221     		movs	r1, #2
 482 0280 227B     		ldrb	r2, [r4, #12]	@ zero_extendqisi2
 483 0282 0423     		movs	r3, #4
 484 0284 FFF7FEFF 		bl	CyDmaTdSetConfiguration
 485              	.LVL64:
1227:Generated_Source\PSoC5/MDIO_Interface.c ****                                        MDIO_Interface_regAddrDMA_TD[0u], MDIO_Interface_AddrDMA__TD
1228:Generated_Source\PSoC5/MDIO_Interface.c **** 
1229:Generated_Source\PSoC5/MDIO_Interface.c ****         /* Transfer address of register space info (register space memory
1230:Generated_Source\PSoC5/MDIO_Interface.c ****         *  base address and register space config base address) from address
1231:Generated_Source\PSoC5/MDIO_Interface.c ****         *  calculation datapath to source address of InfoDMA TD.
1232:Generated_Source\PSoC5/MDIO_Interface.c ****         */
1233:Generated_Source\PSoC5/MDIO_Interface.c ****         (void) CyDmaTdSetAddress(MDIO_Interface_regAddrDMA_TD[0u], LO16((uint32)MDIO_Interface_INFO
1234:Generated_Source\PSoC5/MDIO_Interface.c ****                                 LO16((uint32)&CY_DMA_TDMEM_STRUCT_PTR[MDIO_Interface_pageInfoDMA_TD
 486              		.loc 1 1234 0
 487 0288 227A     		ldrb	r2, [r4, #8]	@ zero_extendqisi2
 488 028a D200     		lsls	r2, r2, #3
1233:Generated_Source\PSoC5/MDIO_Interface.c ****                                 LO16((uint32)&CY_DMA_TDMEM_STRUCT_PTR[MDIO_Interface_pageInfoDMA_TD
 489              		.loc 1 1233 0
 490 028c 207B     		ldrb	r0, [r4, #12]	@ zero_extendqisi2
 491 028e 46F60801 		movw	r1, #26632
 492 0292 02F5F042 		add	r2, r2, #30720
 493 0296 0432     		adds	r2, r2, #4
 494 0298 FFF7FEFF 		bl	CyDmaTdSetAddress
 495              	.LVL65:
1235:Generated_Source\PSoC5/MDIO_Interface.c **** 
1236:Generated_Source\PSoC5/MDIO_Interface.c ****         /* Move register index from A0 register of address
1237:Generated_Source\PSoC5/MDIO_Interface.c ****         *  comparison datapath to address calculation datapath.
1238:Generated_Source\PSoC5/MDIO_Interface.c ****         */
1239:Generated_Source\PSoC5/MDIO_Interface.c ****         (void) CyDmaTdSetAddress(MDIO_Interface_regAddrDMA_TD[1u], LO16((uint32)MDIO_Interface_REG_
 496              		.loc 1 1239 0
 497 029c 607B     		ldrb	r0, [r4, #13]	@ zero_extendqisi2
 498 029e 46F60401 		movw	r1, #26628
 499 02a2 46F62802 		movw	r2, #26664
 500 02a6 FFF7FEFF 		bl	CyDmaTdSetAddress
 501              	.LVL66:
1240:Generated_Source\PSoC5/MDIO_Interface.c ****                                                                      LO16((uint32)MDIO_Interface_RE
1241:Generated_Source\PSoC5/MDIO_Interface.c **** 
1242:Generated_Source\PSoC5/MDIO_Interface.c ****         /* Move lower 16 bits of register address from the A0 of
1243:Generated_Source\PSoC5/MDIO_Interface.c ****         *  address calculation datapath to source address of RdDMA TD
1244:Generated_Source\PSoC5/MDIO_Interface.c ****         *  and destination address of WrDMA TD.
1245:Generated_Source\PSoC5/MDIO_Interface.c ****         */
1246:Generated_Source\PSoC5/MDIO_Interface.c ****         (void) CyDmaTdSetAddress(MDIO_Interface_regAddrDMA_TD[2u], LO16((uint32)MDIO_Interface_REG_
1247:Generated_Source\PSoC5/MDIO_Interface.c ****                                 LO16((uint32)&CY_DMA_TDMEM_STRUCT_PTR[MDIO_Interface_rdDMA_TD[0u]].
 502              		.loc 1 1247 0
 503 02aa 227D     		ldrb	r2, [r4, #20]	@ zero_extendqisi2
 504 02ac D200     		lsls	r2, r2, #3
1246:Generated_Source\PSoC5/MDIO_Interface.c ****                                 LO16((uint32)&CY_DMA_TDMEM_STRUCT_PTR[MDIO_Interface_rdDMA_TD[0u]].
 505              		.loc 1 1246 0
 506 02ae A07B     		ldrb	r0, [r4, #14]	@ zero_extendqisi2
 507 02b0 46F60801 		movw	r1, #26632
 508 02b4 02F5F042 		add	r2, r2, #30720
 509 02b8 0432     		adds	r2, r2, #4
 510 02ba FFF7FEFF 		bl	CyDmaTdSetAddress
 511              	.LVL67:
1248:Generated_Source\PSoC5/MDIO_Interface.c ****         (void) CyDmaTdSetAddress(MDIO_Interface_regAddrDMA_TD[3u], LO16((uint32)MDIO_Interface_REG_
ARM GAS  C:\Users\kopusov.FT\AppData\Local\Temp\ccT1QhKH.s 			page 32


1249:Generated_Source\PSoC5/MDIO_Interface.c ****                                 LO16((uint32)&CY_DMA_TDMEM_STRUCT_PTR[MDIO_Interface_wrDMA_TD[0u]].
 512              		.loc 1 1249 0
 513 02be 227E     		ldrb	r2, [r4, #24]	@ zero_extendqisi2
 514 02c0 D200     		lsls	r2, r2, #3
1248:Generated_Source\PSoC5/MDIO_Interface.c ****         (void) CyDmaTdSetAddress(MDIO_Interface_regAddrDMA_TD[3u], LO16((uint32)MDIO_Interface_REG_
 515              		.loc 1 1248 0
 516 02c2 E07B     		ldrb	r0, [r4, #15]	@ zero_extendqisi2
 517 02c4 46F60801 		movw	r1, #26632
 518 02c8 02F5F042 		add	r2, r2, #30720
 519 02cc 0632     		adds	r2, r2, #6
 520 02ce FFF7FEFF 		bl	CyDmaTdSetAddress
 521              	.LVL68:
1250:Generated_Source\PSoC5/MDIO_Interface.c **** 
1251:Generated_Source\PSoC5/MDIO_Interface.c ****         /* Move upper 16 bits of register address from A0 of the
1252:Generated_Source\PSoC5/MDIO_Interface.c ****         *  address calculation datapath to upper 16-bit source address of
1253:Generated_Source\PSoC5/MDIO_Interface.c ****         *  RdDMA TD.
1254:Generated_Source\PSoC5/MDIO_Interface.c ****         */
1255:Generated_Source\PSoC5/MDIO_Interface.c ****         (void) CyDmaTdSetAddress(MDIO_Interface_regAddrDMA_TD[4u], LO16((uint32)MDIO_Interface_REG_
1256:Generated_Source\PSoC5/MDIO_Interface.c ****                                 LO16((uint32)&CY_DMA_CFGMEM_STRUCT_PTR[MDIO_Interface_rdDMA_Chan].C
 522              		.loc 1 1256 0
 523 02d2 627D     		ldrb	r2, [r4, #21]	@ zero_extendqisi2
 524 02d4 D200     		lsls	r2, r2, #3
1255:Generated_Source\PSoC5/MDIO_Interface.c ****                                 LO16((uint32)&CY_DMA_CFGMEM_STRUCT_PTR[MDIO_Interface_rdDMA_Chan].C
 525              		.loc 1 1255 0
 526 02d6 207C     		ldrb	r0, [r4, #16]	@ zero_extendqisi2
 527 02d8 46F60801 		movw	r1, #26632
 528 02dc 02F5EC42 		add	r2, r2, #30208
 529 02e0 0432     		adds	r2, r2, #4
 530 02e2 FFF7FEFF 		bl	CyDmaTdSetAddress
 531              	.LVL69:
1257:Generated_Source\PSoC5/MDIO_Interface.c **** 
1258:Generated_Source\PSoC5/MDIO_Interface.c ****         /* Move lower and upper 16 bits of register config address
1259:Generated_Source\PSoC5/MDIO_Interface.c ****         *  from A0 of address calculation datapath to source address
1260:Generated_Source\PSoC5/MDIO_Interface.c ****         *  of CfgDMA1 TD.
1261:Generated_Source\PSoC5/MDIO_Interface.c ****         */
1262:Generated_Source\PSoC5/MDIO_Interface.c ****         (void) CyDmaTdSetAddress(MDIO_Interface_regAddrDMA_TD[5u], LO16((uint32)MDIO_Interface_REG_
1263:Generated_Source\PSoC5/MDIO_Interface.c ****                                 LO16((uint32)&CY_DMA_TDMEM_STRUCT_PTR[MDIO_Interface_cfgDMA1_TD[0u]
 532              		.loc 1 1263 0
 533 02e6 227F     		ldrb	r2, [r4, #28]	@ zero_extendqisi2
 534 02e8 D200     		lsls	r2, r2, #3
1262:Generated_Source\PSoC5/MDIO_Interface.c ****                                 LO16((uint32)&CY_DMA_TDMEM_STRUCT_PTR[MDIO_Interface_cfgDMA1_TD[0u]
 535              		.loc 1 1262 0
 536 02ea 607C     		ldrb	r0, [r4, #17]	@ zero_extendqisi2
 537 02ec 46F60801 		movw	r1, #26632
 538 02f0 02F5F042 		add	r2, r2, #30720
 539 02f4 0432     		adds	r2, r2, #4
 540 02f6 FFF7FEFF 		bl	CyDmaTdSetAddress
 541              	.LVL70:
1264:Generated_Source\PSoC5/MDIO_Interface.c ****         (void) CyDmaTdSetAddress(MDIO_Interface_regAddrDMA_TD[6u], LO16((uint32)MDIO_Interface_REG_
1265:Generated_Source\PSoC5/MDIO_Interface.c ****                                 LO16((uint32)&CY_DMA_CFGMEM_STRUCT_PTR[MDIO_Interface_cfgDMA1_Chan]
 542              		.loc 1 1265 0
 543 02fa 627F     		ldrb	r2, [r4, #29]	@ zero_extendqisi2
 544 02fc D200     		lsls	r2, r2, #3
1264:Generated_Source\PSoC5/MDIO_Interface.c ****         (void) CyDmaTdSetAddress(MDIO_Interface_regAddrDMA_TD[6u], LO16((uint32)MDIO_Interface_REG_
 545              		.loc 1 1264 0
 546 02fe A07C     		ldrb	r0, [r4, #18]	@ zero_extendqisi2
 547 0300 46F60801 		movw	r1, #26632
ARM GAS  C:\Users\kopusov.FT\AppData\Local\Temp\ccT1QhKH.s 			page 33


 548 0304 02F5EC42 		add	r2, r2, #30208
 549 0308 0432     		adds	r2, r2, #4
 550 030a FFF7FEFF 		bl	CyDmaTdSetAddress
 551              	.LVL71:
1266:Generated_Source\PSoC5/MDIO_Interface.c **** 
1267:Generated_Source\PSoC5/MDIO_Interface.c **** 
1268:Generated_Source\PSoC5/MDIO_Interface.c ****         /***********************************************************************
1269:Generated_Source\PSoC5/MDIO_Interface.c ****         *               Firmware DMA (Used from APIs)
1270:Generated_Source\PSoC5/MDIO_Interface.c ****         ***********************************************************************/
1271:Generated_Source\PSoC5/MDIO_Interface.c **** 
1272:Generated_Source\PSoC5/MDIO_Interface.c ****         /* Partial configuration of FwDMA1 and FwDMA2 DMA. The rest configuration is done
1273:Generated_Source\PSoC5/MDIO_Interface.c ****         *  in the SetData, GetData and SetBits APIs.
1274:Generated_Source\PSoC5/MDIO_Interface.c ****         */
1275:Generated_Source\PSoC5/MDIO_Interface.c ****         MDIO_Interface_fwDMA1_Chan = MDIO_Interface_FwDMA1_DmaInitialize(
 552              		.loc 1 1275 0
 553 030e 0220     		movs	r0, #2
 554 0310 0021     		movs	r1, #0
 555 0312 41F6FF72 		movw	r2, #8191
 556 0316 1346     		mov	r3, r2
 557 0318 FFF7FEFF 		bl	MDIO_Interface_FwDMA1_DmaInitialize
 558              	.LVL72:
 559 031c 84F82500 		strb	r0, [r4, #37]
1276:Generated_Source\PSoC5/MDIO_Interface.c ****             MDIO_Interface_FW_DMA_BYTES_PER_BURST, MDIO_Interface_FW_DMA_REQUEST_PER_BURST,
1277:Generated_Source\PSoC5/MDIO_Interface.c ****             HI16(CYDEV_SRAM_BASE), HI16(CYDEV_SRAM_BASE));
1278:Generated_Source\PSoC5/MDIO_Interface.c **** 
1279:Generated_Source\PSoC5/MDIO_Interface.c ****         MDIO_Interface_fwDMA1_TD[0u] = CyDmaTdAllocate();
 560              		.loc 1 1279 0
 561 0320 FFF7FEFF 		bl	CyDmaTdAllocate
 562              	.LVL73:
 563 0324 84F82400 		strb	r0, [r4, #36]
1280:Generated_Source\PSoC5/MDIO_Interface.c **** 
1281:Generated_Source\PSoC5/MDIO_Interface.c ****         MDIO_Interface_fwDMA2_Chan = MDIO_Interface_FwDMA2_DmaInitialize(
 564              		.loc 1 1281 0
 565 0328 0220     		movs	r0, #2
 566 032a 0021     		movs	r1, #0
 567 032c 4FF48042 		mov	r2, #16384
 568 0330 41F6FF73 		movw	r3, #8191
 569 0334 FFF7FEFF 		bl	MDIO_Interface_FwDMA2_DmaInitialize
 570              	.LVL74:
 571 0338 84F82900 		strb	r0, [r4, #41]
1282:Generated_Source\PSoC5/MDIO_Interface.c ****             MDIO_Interface_FW_DMA_BYTES_PER_BURST, MDIO_Interface_FW_DMA_REQUEST_PER_BURST,
1283:Generated_Source\PSoC5/MDIO_Interface.c ****             HI16(CYDEV_PERIPH_BASE), HI16(CYDEV_SRAM_BASE));
1284:Generated_Source\PSoC5/MDIO_Interface.c **** 
1285:Generated_Source\PSoC5/MDIO_Interface.c ****         MDIO_Interface_fwDMA2_TD[0u] = CyDmaTdAllocate();
 572              		.loc 1 1285 0
 573 033c FFF7FEFF 		bl	CyDmaTdAllocate
 574              	.LVL75:
 575 0340 84F82800 		strb	r0, [r4, #40]
1286:Generated_Source\PSoC5/MDIO_Interface.c ****         (void) CyDmaTdSetConfiguration(MDIO_Interface_fwDMA2_TD[0u], MDIO_Interface_FW_DMA_TD_SIZE,
 576              		.loc 1 1286 0
 577 0344 0221     		movs	r1, #2
 578 0346 FF22     		movs	r2, #255
 579 0348 8523     		movs	r3, #133
 580 034a FFF7FEFF 		bl	CyDmaTdSetConfiguration
 581              	.LVL76:
1287:Generated_Source\PSoC5/MDIO_Interface.c ****             DMA_INVALID_TD, TD_SWAP_EN | TD_INC_SRC_ADR | MDIO_Interface_FwDMA2__TD_TERMOUT_EN);
1288:Generated_Source\PSoC5/MDIO_Interface.c **** 
ARM GAS  C:\Users\kopusov.FT\AppData\Local\Temp\ccT1QhKH.s 			page 34


1289:Generated_Source\PSoC5/MDIO_Interface.c ****         /* Update channel list with allocated channel numbers */
1290:Generated_Source\PSoC5/MDIO_Interface.c ****         MDIO_Interface_dmaChannelList[8u] = MDIO_Interface_fwDMA1_Chan;
 582              		.loc 1 1290 0
 583 034e 94F82530 		ldrb	r3, [r4, #37]	@ zero_extendqisi2
 584 0352 84F83430 		strb	r3, [r4, #52]
1291:Generated_Source\PSoC5/MDIO_Interface.c ****         MDIO_Interface_dmaChannelList[9u] = MDIO_Interface_fwDMA2_Chan;
 585              		.loc 1 1291 0
 586 0356 94F82930 		ldrb	r3, [r4, #41]	@ zero_extendqisi2
 587 035a 84F83530 		strb	r3, [r4, #53]
 588 035e 38BD     		pop	{r3, r4, r5, pc}
 589              	.L16:
 590              		.align	2
 591              	.L15:
 592 0360 00000000 		.word	MDIO_Interface_pageInfoPtr
 593 0364 00000000 		.word	.LANCHOR0
 594 0368 FFFFFE1F 		.word	536805375
 595 036c 00000000 		.word	.LANCHOR1
 596              		.cfi_endproc
 597              	.LFE17:
 598              		.size	MDIO_Interface_DmaInit, .-MDIO_Interface_DmaInit
 599              		.section	.text.MDIO_Interface_DmaDisable,"ax",%progbits
 600              		.align	2
 601              		.thumb
 602              		.thumb_func
 603              		.type	MDIO_Interface_DmaDisable, %function
 604              	MDIO_Interface_DmaDisable:
 605              	.LFB16:
 895:Generated_Source\PSoC5/MDIO_Interface.c ****         uint8 i;
 606              		.loc 1 895 0
 607              		.cfi_startproc
 608              		@ args = 0, pretend = 0, frame = 0
 609              		@ frame_needed = 0, uses_anonymous_args = 0
 610 0000 70B5     		push	{r4, r5, r6, lr}
 611              		.cfi_def_cfa_offset 16
 612              		.cfi_offset 4, -16
 613              		.cfi_offset 5, -12
 614              		.cfi_offset 6, -8
 615              		.cfi_offset 14, -4
 616              	.LVL77:
 899:Generated_Source\PSoC5/MDIO_Interface.c ****         {
 617              		.loc 1 899 0
 618 0002 0026     		movs	r6, #0
 619 0004 1BE0     		b	.L18
 620              	.LVL78:
 621              	.L21:
 901:Generated_Source\PSoC5/MDIO_Interface.c ****             (void) CyDmaChDisable(channel);
 622              		.loc 1 901 0
 623 0006 0F4B     		ldr	r3, .L23
 624 0008 3344     		add	r3, r3, r6
 625 000a 93F82C50 		ldrb	r5, [r3, #44]	@ zero_extendqisi2
 626              	.LVL79:
 902:Generated_Source\PSoC5/MDIO_Interface.c **** 
 627              		.loc 1 902 0
 628 000e 2846     		mov	r0, r5
 629 0010 FFF7FEFF 		bl	CyDmaChDisable
 630              	.LVL80:
 631              	.L19:
ARM GAS  C:\Users\kopusov.FT\AppData\Local\Temp\ccT1QhKH.s 			page 35


 905:Generated_Source\PSoC5/MDIO_Interface.c ****             {
 632              		.loc 1 905 0 discriminator 1
 633 0014 0C4C     		ldr	r4, .L23+4
 634 0016 04EB0514 		add	r4, r4, r5, lsl #4
 635 001a 237A     		ldrb	r3, [r4, #8]	@ zero_extendqisi2
 636 001c 13F0020F 		tst	r3, #2
 637 0020 F8D1     		bne	.L19
 910:Generated_Source\PSoC5/MDIO_Interface.c ****             (void) CyDmaChEnable    (channel, 1u);
 638              		.loc 1 910 0
 639 0022 2846     		mov	r0, r5
 640 0024 0421     		movs	r1, #4
 641 0026 FFF7FEFF 		bl	CyDmaChSetRequest
 642              	.LVL81:
 911:Generated_Source\PSoC5/MDIO_Interface.c **** 
 643              		.loc 1 911 0
 644 002a 2846     		mov	r0, r5
 645 002c 0121     		movs	r1, #1
 646 002e FFF7FEFF 		bl	CyDmaChEnable
 647              	.LVL82:
 648              	.L20:
 913:Generated_Source\PSoC5/MDIO_Interface.c ****             {
 649              		.loc 1 913 0 discriminator 1
 650 0032 2378     		ldrb	r3, [r4]	@ zero_extendqisi2
 651 0034 13F0010F 		tst	r3, #1
 652 0038 FBD1     		bne	.L20
 899:Generated_Source\PSoC5/MDIO_Interface.c ****         {
 653              		.loc 1 899 0 discriminator 2
 654 003a 0136     		adds	r6, r6, #1
 655              	.LVL83:
 656 003c F6B2     		uxtb	r6, r6
 657              	.LVL84:
 658              	.L18:
 899:Generated_Source\PSoC5/MDIO_Interface.c ****         {
 659              		.loc 1 899 0 is_stmt 0 discriminator 1
 660 003e 092E     		cmp	r6, #9
 661 0040 E1D9     		bls	.L21
 918:Generated_Source\PSoC5/MDIO_Interface.c **** 
 662              		.loc 1 918 0 is_stmt 1
 663 0042 70BD     		pop	{r4, r5, r6, pc}
 664              	.LVL85:
 665              	.L24:
 666              		.align	2
 667              	.L23:
 668 0044 00000000 		.word	.LANCHOR0
 669 0048 10700040 		.word	1073770512
 670              		.cfi_endproc
 671              	.LFE16:
 672              		.size	MDIO_Interface_DmaDisable, .-MDIO_Interface_DmaDisable
 673              		.section	.text.MDIO_Interface_DmaIsComplete,"ax",%progbits
 674              		.align	2
 675              		.thumb
 676              		.thumb_func
 677              		.type	MDIO_Interface_DmaIsComplete, %function
 678              	MDIO_Interface_DmaIsComplete:
 679              	.LFB14:
 820:Generated_Source\PSoC5/MDIO_Interface.c ****         uint8 timer;
 680              		.loc 1 820 0
ARM GAS  C:\Users\kopusov.FT\AppData\Local\Temp\ccT1QhKH.s 			page 36


 681              		.cfi_startproc
 682              		@ args = 0, pretend = 0, frame = 0
 683              		@ frame_needed = 0, uses_anonymous_args = 0
 684              	.LVL86:
 685 0000 38B5     		push	{r3, r4, r5, lr}
 686              		.cfi_def_cfa_offset 16
 687              		.cfi_offset 3, -16
 688              		.cfi_offset 4, -12
 689              		.cfi_offset 5, -8
 690              		.cfi_offset 14, -4
 691 0002 0546     		mov	r5, r0
 692              	.LVL87:
 823:Generated_Source\PSoC5/MDIO_Interface.c **** 
 693              		.loc 1 823 0
 694 0004 FF24     		movs	r4, #255
 825:Generated_Source\PSoC5/MDIO_Interface.c ****         {
 695              		.loc 1 825 0
 696 0006 04E0     		b	.L26
 697              	.LVL88:
 698              	.L28:
 830:Generated_Source\PSoC5/MDIO_Interface.c ****             CyDelayUs(1u);
 699              		.loc 1 830 0
 700 0008 013C     		subs	r4, r4, #1
 701              	.LVL89:
 702 000a E4B2     		uxtb	r4, r4
 703              	.LVL90:
 831:Generated_Source\PSoC5/MDIO_Interface.c ****         }
 704              		.loc 1 831 0
 705 000c 0120     		movs	r0, #1
 706 000e FFF7FEFF 		bl	CyDelayUs
 707              	.LVL91:
 708              	.L26:
 825:Generated_Source\PSoC5/MDIO_Interface.c ****         {
 709              		.loc 1 825 0
 710 0012 054B     		ldr	r3, .L32
 711 0014 1B78     		ldrb	r3, [r3]	@ zero_extendqisi2
 712 0016 2B42     		tst	r3, r5
 713 0018 01D1     		bne	.L27
 825:Generated_Source\PSoC5/MDIO_Interface.c ****         {
 714              		.loc 1 825 0 is_stmt 0 discriminator 1
 715 001a 002C     		cmp	r4, #0
 716 001c F4D1     		bne	.L28
 717              	.L27:
 833:Generated_Source\PSoC5/MDIO_Interface.c ****     }
 718              		.loc 1 833 0 is_stmt 1
 719 001e 0CB1     		cbz	r4, .L30
 720 0020 0020     		movs	r0, #0
 721 0022 38BD     		pop	{r3, r4, r5, pc}
 722              	.LVL92:
 723              	.L30:
 724 0024 1020     		movs	r0, #16
 834:Generated_Source\PSoC5/MDIO_Interface.c **** 
 725              		.loc 1 834 0
 726 0026 38BD     		pop	{r3, r4, r5, pc}
 727              	.LVL93:
 728              	.L33:
 729              		.align	2
ARM GAS  C:\Users\kopusov.FT\AppData\Local\Temp\ccT1QhKH.s 			page 37


 730              	.L32:
 731 0028 6A650040 		.word	1073767786
 732              		.cfi_endproc
 733              	.LFE14:
 734              		.size	MDIO_Interface_DmaIsComplete, .-MDIO_Interface_DmaIsComplete
 735              		.section	.text.MDIO_Interface_EnableInt,"ax",%progbits
 736              		.align	2
 737              		.global	MDIO_Interface_EnableInt
 738              		.thumb
 739              		.thumb_func
 740              		.type	MDIO_Interface_EnableInt, %function
 741              	MDIO_Interface_EnableInt:
 742              	.LFB4:
 302:Generated_Source\PSoC5/MDIO_Interface.c ****     MDIO_Interface_CONTROL_REG |= MDIO_Interface_INT_EN;
 743              		.loc 1 302 0
 744              		.cfi_startproc
 745              		@ args = 0, pretend = 0, frame = 0
 746              		@ frame_needed = 0, uses_anonymous_args = 0
 747              		@ link register save eliminated.
 303:Generated_Source\PSoC5/MDIO_Interface.c **** }
 748              		.loc 1 303 0
 749 0000 024A     		ldr	r2, .L35
 750 0002 1378     		ldrb	r3, [r2]	@ zero_extendqisi2
 751 0004 43F00203 		orr	r3, r3, #2
 752 0008 1370     		strb	r3, [r2]
 753 000a 7047     		bx	lr
 754              	.L36:
 755              		.align	2
 756              	.L35:
 757 000c 7B650040 		.word	1073767803
 758              		.cfi_endproc
 759              	.LFE4:
 760              		.size	MDIO_Interface_EnableInt, .-MDIO_Interface_EnableInt
 761              		.section	.text.MDIO_Interface_Enable,"ax",%progbits
 762              		.align	2
 763              		.global	MDIO_Interface_Enable
 764              		.thumb
 765              		.thumb_func
 766              		.type	MDIO_Interface_Enable, %function
 767              	MDIO_Interface_Enable:
 768              	.LFB0:
 118:Generated_Source\PSoC5/MDIO_Interface.c ****     uint8 enableInterrupts;
 769              		.loc 1 118 0
 770              		.cfi_startproc
 771              		@ args = 0, pretend = 0, frame = 0
 772              		@ frame_needed = 0, uses_anonymous_args = 0
 773 0000 08B5     		push	{r3, lr}
 774              		.cfi_def_cfa_offset 8
 775              		.cfi_offset 3, -8
 776              		.cfi_offset 14, -4
 121:Generated_Source\PSoC5/MDIO_Interface.c **** 
 777              		.loc 1 121 0
 778 0002 FFF7FEFF 		bl	CyEnterCriticalSection
 779              	.LVL94:
 124:Generated_Source\PSoC5/MDIO_Interface.c ****     CyExitCriticalSection(enableInterrupts);
 780              		.loc 1 124 0
 781 0006 084A     		ldr	r2, .L39
ARM GAS  C:\Users\kopusov.FT\AppData\Local\Temp\ccT1QhKH.s 			page 38


 782 0008 1378     		ldrb	r3, [r2]	@ zero_extendqisi2
 783 000a 43F02003 		orr	r3, r3, #32
 784 000e 1370     		strb	r3, [r2]
 125:Generated_Source\PSoC5/MDIO_Interface.c **** 
 785              		.loc 1 125 0
 786 0010 FFF7FEFF 		bl	CyExitCriticalSection
 787              	.LVL95:
 128:Generated_Source\PSoC5/MDIO_Interface.c ****     #endif /* MDIO_Interface_ADVANCED_MODE */
 788              		.loc 1 128 0
 789 0014 FFF7FEFF 		bl	MDIO_Interface_DmaEnable
 790              	.LVL96:
 132:Generated_Source\PSoC5/MDIO_Interface.c **** 
 791              		.loc 1 132 0
 792 0018 FFF7FEFF 		bl	MDIO_Interface_EnableInt
 793              	.LVL97:
 135:Generated_Source\PSoC5/MDIO_Interface.c **** }
 794              		.loc 1 135 0
 795 001c 034A     		ldr	r2, .L39+4
 796 001e 1378     		ldrb	r3, [r2]	@ zero_extendqisi2
 797 0020 43F00103 		orr	r3, r3, #1
 798 0024 1370     		strb	r3, [r2]
 799 0026 08BD     		pop	{r3, pc}
 800              	.L40:
 801              		.align	2
 802              	.L39:
 803 0028 98650040 		.word	1073767832
 804 002c 7B650040 		.word	1073767803
 805              		.cfi_endproc
 806              	.LFE0:
 807              		.size	MDIO_Interface_Enable, .-MDIO_Interface_Enable
 808              		.section	.text.MDIO_Interface_DisableInt,"ax",%progbits
 809              		.align	2
 810              		.global	MDIO_Interface_DisableInt
 811              		.thumb
 812              		.thumb_func
 813              		.type	MDIO_Interface_DisableInt, %function
 814              	MDIO_Interface_DisableInt:
 815              	.LFB5:
 322:Generated_Source\PSoC5/MDIO_Interface.c ****     MDIO_Interface_CONTROL_REG &= (uint8) ~MDIO_Interface_INT_EN;
 816              		.loc 1 322 0
 817              		.cfi_startproc
 818              		@ args = 0, pretend = 0, frame = 0
 819              		@ frame_needed = 0, uses_anonymous_args = 0
 820              		@ link register save eliminated.
 323:Generated_Source\PSoC5/MDIO_Interface.c **** }
 821              		.loc 1 323 0
 822 0000 024A     		ldr	r2, .L42
 823 0002 1378     		ldrb	r3, [r2]	@ zero_extendqisi2
 824 0004 03F0FD03 		and	r3, r3, #253
 825 0008 1370     		strb	r3, [r2]
 826 000a 7047     		bx	lr
 827              	.L43:
 828              		.align	2
 829              	.L42:
 830 000c 7B650040 		.word	1073767803
 831              		.cfi_endproc
 832              	.LFE5:
ARM GAS  C:\Users\kopusov.FT\AppData\Local\Temp\ccT1QhKH.s 			page 39


 833              		.size	MDIO_Interface_DisableInt, .-MDIO_Interface_DisableInt
 834              		.section	.text.MDIO_Interface_Stop,"ax",%progbits
 835              		.align	2
 836              		.global	MDIO_Interface_Stop
 837              		.thumb
 838              		.thumb_func
 839              		.type	MDIO_Interface_Stop, %function
 840              	MDIO_Interface_Stop:
 841              	.LFB3:
 253:Generated_Source\PSoC5/MDIO_Interface.c ****     uint8 enableInterrupts;
 842              		.loc 1 253 0
 843              		.cfi_startproc
 844              		@ args = 0, pretend = 0, frame = 0
 845              		@ frame_needed = 0, uses_anonymous_args = 0
 846 0000 08B5     		push	{r3, lr}
 847              		.cfi_def_cfa_offset 8
 848              		.cfi_offset 3, -8
 849              		.cfi_offset 14, -4
 256:Generated_Source\PSoC5/MDIO_Interface.c **** 
 850              		.loc 1 256 0
 851 0002 1C4A     		ldr	r2, .L46
 852 0004 1378     		ldrb	r3, [r2]	@ zero_extendqisi2
 853 0006 03F0FE03 		and	r3, r3, #254
 854 000a 1370     		strb	r3, [r2]
 259:Generated_Source\PSoC5/MDIO_Interface.c **** 
 855              		.loc 1 259 0
 856 000c FFF7FEFF 		bl	MDIO_Interface_DisableInt
 857              	.LVL98:
 263:Generated_Source\PSoC5/MDIO_Interface.c ****     #endif /* MDIO_Interface_ADVANCED_MODE */
 858              		.loc 1 263 0
 859 0010 FFF7FEFF 		bl	MDIO_Interface_DmaDisable
 860              	.LVL99:
 266:Generated_Source\PSoC5/MDIO_Interface.c ****     /* Disable Bit counter */
 861              		.loc 1 266 0
 862 0014 FFF7FEFF 		bl	CyEnterCriticalSection
 863              	.LVL100:
 268:Generated_Source\PSoC5/MDIO_Interface.c **** 
 864              		.loc 1 268 0
 865 0018 174A     		ldr	r2, .L46+4
 866 001a 1378     		ldrb	r3, [r2]	@ zero_extendqisi2
 867 001c 03F0DF03 		and	r3, r3, #223
 868 0020 1370     		strb	r3, [r2]
 272:Generated_Source\PSoC5/MDIO_Interface.c ****         MDIO_Interface_AC_AUX_CTL0_REG &= (uint8) ~MDIO_Interface_FX_CLEAR;
 869              		.loc 1 272 0
 870 0022 164B     		ldr	r3, .L46+8
 871 0024 1A78     		ldrb	r2, [r3]	@ zero_extendqisi2
 872 0026 42F00302 		orr	r2, r2, #3
 873 002a 1A70     		strb	r2, [r3]
 273:Generated_Source\PSoC5/MDIO_Interface.c ****         MDIO_Interface_AC_AUX_CTL1_REG |= MDIO_Interface_FX_CLEAR;
 874              		.loc 1 273 0
 875 002c 1A78     		ldrb	r2, [r3]	@ zero_extendqisi2
 876 002e 02F0FC02 		and	r2, r2, #252
 877 0032 1A70     		strb	r2, [r3]
 274:Generated_Source\PSoC5/MDIO_Interface.c ****         MDIO_Interface_AC_AUX_CTL1_REG &= (uint8) ~MDIO_Interface_FX_CLEAR;
 878              		.loc 1 274 0
 879 0034 0133     		adds	r3, r3, #1
 880 0036 1A78     		ldrb	r2, [r3]	@ zero_extendqisi2
ARM GAS  C:\Users\kopusov.FT\AppData\Local\Temp\ccT1QhKH.s 			page 40


 881 0038 42F00302 		orr	r2, r2, #3
 882 003c 1A70     		strb	r2, [r3]
 275:Generated_Source\PSoC5/MDIO_Interface.c ****     #endif /* MDIO_Interface_ADVANCED_MODE */
 883              		.loc 1 275 0
 884 003e 1A78     		ldrb	r2, [r3]	@ zero_extendqisi2
 885 0040 02F0FC02 		and	r2, r2, #252
 886 0044 1A70     		strb	r2, [r3]
 279:Generated_Source\PSoC5/MDIO_Interface.c ****     MDIO_Interface_FP_AUX_CTL0_REG &= (uint8) ~MDIO_Interface_F1_CLEAR;
 887              		.loc 1 279 0
 888 0046 03F20713 		addw	r3, r3, #263
 889 004a 1A78     		ldrb	r2, [r3]	@ zero_extendqisi2
 890 004c 42F00202 		orr	r2, r2, #2
 891 0050 1A70     		strb	r2, [r3]
 280:Generated_Source\PSoC5/MDIO_Interface.c ****     MDIO_Interface_FP_AUX_CTL1_REG |= MDIO_Interface_F1_CLEAR;
 892              		.loc 1 280 0
 893 0052 1A78     		ldrb	r2, [r3]	@ zero_extendqisi2
 894 0054 02F0FD02 		and	r2, r2, #253
 895 0058 1A70     		strb	r2, [r3]
 281:Generated_Source\PSoC5/MDIO_Interface.c ****     MDIO_Interface_FP_AUX_CTL1_REG &= (uint8) ~MDIO_Interface_F1_CLEAR;
 896              		.loc 1 281 0
 897 005a 0133     		adds	r3, r3, #1
 898 005c 1A78     		ldrb	r2, [r3]	@ zero_extendqisi2
 899 005e 42F00202 		orr	r2, r2, #2
 900 0062 1A70     		strb	r2, [r3]
 282:Generated_Source\PSoC5/MDIO_Interface.c ****     CyExitCriticalSection(enableInterrupts);
 901              		.loc 1 282 0
 902 0064 1A78     		ldrb	r2, [r3]	@ zero_extendqisi2
 903 0066 02F0FD02 		and	r2, r2, #253
 904 006a 1A70     		strb	r2, [r3]
 283:Generated_Source\PSoC5/MDIO_Interface.c **** }
 905              		.loc 1 283 0
 906 006c FFF7FEFF 		bl	CyExitCriticalSection
 907              	.LVL101:
 908 0070 08BD     		pop	{r3, pc}
 909              	.L47:
 910 0072 00BF     		.align	2
 911              	.L46:
 912 0074 7B650040 		.word	1073767803
 913 0078 98650040 		.word	1073767832
 914 007c 92640040 		.word	1073767570
 915              		.cfi_endproc
 916              	.LFE3:
 917              		.size	MDIO_Interface_Stop, .-MDIO_Interface_Stop
 918              		.section	.text.MDIO_Interface_SetDevAddress,"ax",%progbits
 919              		.align	2
 920              		.global	MDIO_Interface_SetDevAddress
 921              		.thumb
 922              		.thumb_func
 923              		.type	MDIO_Interface_SetDevAddress, %function
 924              	MDIO_Interface_SetDevAddress:
 925              	.LFB6:
 346:Generated_Source\PSoC5/MDIO_Interface.c ****     /* Update the address pattern with the device address */
 926              		.loc 1 346 0
 927              		.cfi_startproc
 928              		@ args = 0, pretend = 0, frame = 0
 929              		@ frame_needed = 0, uses_anonymous_args = 0
 930              		@ link register save eliminated.
ARM GAS  C:\Users\kopusov.FT\AppData\Local\Temp\ccT1QhKH.s 			page 41


 931              	.LVL102:
 348:Generated_Source\PSoC5/MDIO_Interface.c ****                  (uint16)((uint16)MDIO_Interface_phyAddress << MDIO_Interface_PHYADDR_POS) | devAdd
 932              		.loc 1 348 0
 933 0000 054A     		ldr	r2, .L49
 934 0002 92F88430 		ldrb	r3, [r2, #132]	@ zero_extendqisi2
 935 0006 40EA4313 		orr	r3, r0, r3, lsl #5
 936 000a 43F44043 		orr	r3, r3, #49152
 937 000e 0349     		ldr	r1, .L49+4
 938 0010 0B80     		strh	r3, [r1]	@ movhi
 350:Generated_Source\PSoC5/MDIO_Interface.c **** }
 939              		.loc 1 350 0
 940 0012 82F88500 		strb	r0, [r2, #133]
 941 0016 7047     		bx	lr
 942              	.L50:
 943              		.align	2
 944              	.L49:
 945 0018 00000000 		.word	.LANCHOR0
 946 001c 546A0040 		.word	1073769044
 947              		.cfi_endproc
 948              	.LFE6:
 949              		.size	MDIO_Interface_SetDevAddress, .-MDIO_Interface_SetDevAddress
 950              		.section	.text.MDIO_Interface_SetPhyAddress,"ax",%progbits
 951              		.align	2
 952              		.global	MDIO_Interface_SetPhyAddress
 953              		.thumb
 954              		.thumb_func
 955              		.type	MDIO_Interface_SetPhyAddress, %function
 956              	MDIO_Interface_SetPhyAddress:
 957              	.LFB7:
 370:Generated_Source\PSoC5/MDIO_Interface.c ****     phyAddr &= MDIO_Interface_PHYADDR_MASK;
 958              		.loc 1 370 0
 959              		.cfi_startproc
 960              		@ args = 0, pretend = 0, frame = 0
 961              		@ frame_needed = 0, uses_anonymous_args = 0
 962              		@ link register save eliminated.
 963              	.LVL103:
 371:Generated_Source\PSoC5/MDIO_Interface.c **** 
 964              		.loc 1 371 0
 965 0000 00F01F00 		and	r0, r0, #31
 966              	.LVL104:
 374:Generated_Source\PSoC5/MDIO_Interface.c ****                  (uint16)((uint16) phyAddr << MDIO_Interface_PHYADDR_POS) | MDIO_Interface_devAddre
 967              		.loc 1 374 0
 968 0004 054A     		ldr	r2, .L52
 969 0006 92F88530 		ldrb	r3, [r2, #133]	@ zero_extendqisi2
 970 000a 43EA4013 		orr	r3, r3, r0, lsl #5
 971 000e 43F44043 		orr	r3, r3, #49152
 972 0012 0349     		ldr	r1, .L52+4
 973 0014 0B80     		strh	r3, [r1]	@ movhi
 377:Generated_Source\PSoC5/MDIO_Interface.c **** }
 974              		.loc 1 377 0
 975 0016 82F88400 		strb	r0, [r2, #132]
 976 001a 7047     		bx	lr
 977              	.L53:
 978              		.align	2
 979              	.L52:
 980 001c 00000000 		.word	.LANCHOR0
 981 0020 546A0040 		.word	1073769044
ARM GAS  C:\Users\kopusov.FT\AppData\Local\Temp\ccT1QhKH.s 			page 42


 982              		.cfi_endproc
 983              	.LFE7:
 984              		.size	MDIO_Interface_SetPhyAddress, .-MDIO_Interface_SetPhyAddress
 985              		.section	.text.MDIO_Interface_UpdatePhyAddress,"ax",%progbits
 986              		.align	2
 987              		.global	MDIO_Interface_UpdatePhyAddress
 988              		.thumb
 989              		.thumb_func
 990              		.type	MDIO_Interface_UpdatePhyAddress, %function
 991              	MDIO_Interface_UpdatePhyAddress:
 992              	.LFB8:
 400:Generated_Source\PSoC5/MDIO_Interface.c ****     #if(MDIO_Interface_PHYADDR_HARDWARE)
 993              		.loc 1 400 0
 994              		.cfi_startproc
 995              		@ args = 0, pretend = 0, frame = 0
 996              		@ frame_needed = 0, uses_anonymous_args = 0
 997 0000 08B5     		push	{r3, lr}
 998              		.cfi_def_cfa_offset 8
 999              		.cfi_offset 3, -8
 1000              		.cfi_offset 14, -4
 404:Generated_Source\PSoC5/MDIO_Interface.c ****     #endif /* MDIO_Interface_PHYADDR_HARDWARE */
 1001              		.loc 1 404 0
 1002 0002 0020     		movs	r0, #0
 1003 0004 FFF7FEFF 		bl	MDIO_Interface_SetPhyAddress
 1004              	.LVL105:
 1005 0008 08BD     		pop	{r3, pc}
 1006              		.cfi_endproc
 1007              	.LFE8:
 1008              		.size	MDIO_Interface_UpdatePhyAddress, .-MDIO_Interface_UpdatePhyAddress
 1009 000a 00BF     		.section	.text.MDIO_Interface_Init,"ax",%progbits
 1010              		.align	2
 1011              		.global	MDIO_Interface_Init
 1012              		.thumb
 1013              		.thumb_func
 1014              		.type	MDIO_Interface_Init, %function
 1015              	MDIO_Interface_Init:
 1016              	.LFB1:
 160:Generated_Source\PSoC5/MDIO_Interface.c ****     #if(MDIO_Interface_ADVANCED_MODE)
 1017              		.loc 1 160 0
 1018              		.cfi_startproc
 1019              		@ args = 0, pretend = 0, frame = 0
 1020              		@ frame_needed = 0, uses_anonymous_args = 0
 1021 0000 08B5     		push	{r3, lr}
 1022              		.cfi_def_cfa_offset 8
 1023              		.cfi_offset 3, -8
 1024              		.cfi_offset 14, -4
 167:Generated_Source\PSoC5/MDIO_Interface.c ****     /* Set physical address */
 1025              		.loc 1 167 0
 1026 0002 0120     		movs	r0, #1
 1027 0004 FFF7FEFF 		bl	MDIO_Interface_SetDevAddress
 1028              	.LVL106:
 169:Generated_Source\PSoC5/MDIO_Interface.c **** 
 1029              		.loc 1 169 0
 1030 0008 FFF7FEFF 		bl	MDIO_Interface_UpdatePhyAddress
 1031              	.LVL107:
 171:Generated_Source\PSoC5/MDIO_Interface.c ****     /* Set Read FIFO in Single Buffer Mode */
 1032              		.loc 1 171 0
ARM GAS  C:\Users\kopusov.FT\AppData\Local\Temp\ccT1QhKH.s 			page 43


 1033 000c FFF7FEFF 		bl	CyEnterCriticalSection
 1034              	.LVL108:
 173:Generated_Source\PSoC5/MDIO_Interface.c ****     MDIO_Interface_FP_AUX_CTL1_REG |= MDIO_Interface_F0_CLEAR;
 1035              		.loc 1 173 0
 1036 0010 144A     		ldr	r2, .L59
 1037 0012 1378     		ldrb	r3, [r2]	@ zero_extendqisi2
 1038 0014 43F00103 		orr	r3, r3, #1
 1039 0018 1370     		strb	r3, [r2]
 174:Generated_Source\PSoC5/MDIO_Interface.c ****     CyExitCriticalSection(enableInterrupts);
 1040              		.loc 1 174 0
 1041 001a 0132     		adds	r2, r2, #1
 1042 001c 1378     		ldrb	r3, [r2]	@ zero_extendqisi2
 1043 001e 43F00103 		orr	r3, r3, #1
 1044 0022 1370     		strb	r3, [r2]
 175:Generated_Source\PSoC5/MDIO_Interface.c **** 
 1045              		.loc 1 175 0
 1046 0024 FFF7FEFF 		bl	CyExitCriticalSection
 1047              	.LVL109:
 178:Generated_Source\PSoC5/MDIO_Interface.c **** 
 1048              		.loc 1 178 0
 1049 0028 1E22     		movs	r2, #30
 1050 002a 0F4B     		ldr	r3, .L59+4
 1051 002c 1A70     		strb	r2, [r3]
 183:Generated_Source\PSoC5/MDIO_Interface.c ****         /* Set lower 16-bit address of page info array */
 1052              		.loc 1 183 0
 1053 002e 0822     		movs	r2, #8
 1054 0030 03F53873 		add	r3, r3, #736
 1055 0034 1A80     		strh	r2, [r3]	@ movhi
 185:Generated_Source\PSoC5/MDIO_Interface.c ****         /* Set memory type of each register page */
 1056              		.loc 1 185 0
 1057 0036 0D4A     		ldr	r2, .L59+8
 1058 0038 02F13803 		add	r3, r2, #56
 1059 003c 9BB2     		uxth	r3, r3
 1060 003e 0C49     		ldr	r1, .L59+12
 1061 0040 0B80     		strh	r3, [r1]	@ movhi
 187:Generated_Source\PSoC5/MDIO_Interface.c ****         /* Set data width of each register page */
 1062              		.loc 1 187 0
 1063 0042 3F23     		movs	r3, #63
 1064 0044 A1F2CF31 		subw	r1, r1, #975
 1065 0048 0B70     		strb	r3, [r1]
 189:Generated_Source\PSoC5/MDIO_Interface.c ****         /* Initialize Address analyzer DMAs */
 1066              		.loc 1 189 0
 1067 004a 0131     		adds	r1, r1, #1
 1068 004c 0B70     		strb	r3, [r1]
 191:Generated_Source\PSoC5/MDIO_Interface.c ****         {
 1069              		.loc 1 191 0
 1070 004e 92F88630 		ldrb	r3, [r2, #134]	@ zero_extendqisi2
 1071 0052 2BB9     		cbnz	r3, .L56
 193:Generated_Source\PSoC5/MDIO_Interface.c ****             MDIO_Interface_dmaInitDone = 1u;
 1072              		.loc 1 193 0
 1073 0054 FFF7FEFF 		bl	MDIO_Interface_DmaInit
 1074              	.LVL110:
 194:Generated_Source\PSoC5/MDIO_Interface.c ****         }
 1075              		.loc 1 194 0
 1076 0058 0122     		movs	r2, #1
 1077 005a 044B     		ldr	r3, .L59+8
 1078 005c 83F88620 		strb	r2, [r3, #134]
ARM GAS  C:\Users\kopusov.FT\AppData\Local\Temp\ccT1QhKH.s 			page 44


 1079              	.L56:
 1080 0060 08BD     		pop	{r3, pc}
 1081              	.L60:
 1082 0062 00BF     		.align	2
 1083              	.L59:
 1084 0064 9A650040 		.word	1073767834
 1085 0068 88650040 		.word	1073767816
 1086 006c 00000000 		.word	.LANCHOR0
 1087 0070 48680040 		.word	1073768520
 1088              		.cfi_endproc
 1089              	.LFE1:
 1090              		.size	MDIO_Interface_Init, .-MDIO_Interface_Init
 1091              		.section	.text.MDIO_Interface_Start,"ax",%progbits
 1092              		.align	2
 1093              		.global	MDIO_Interface_Start
 1094              		.thumb
 1095              		.thumb_func
 1096              		.type	MDIO_Interface_Start, %function
 1097              	MDIO_Interface_Start:
 1098              	.LFB2:
 224:Generated_Source\PSoC5/MDIO_Interface.c ****     if(0u == MDIO_Interface_initVar)
 1099              		.loc 1 224 0
 1100              		.cfi_startproc
 1101              		@ args = 0, pretend = 0, frame = 0
 1102              		@ frame_needed = 0, uses_anonymous_args = 0
 1103 0000 08B5     		push	{r3, lr}
 1104              		.cfi_def_cfa_offset 8
 1105              		.cfi_offset 3, -8
 1106              		.cfi_offset 14, -4
 225:Generated_Source\PSoC5/MDIO_Interface.c ****     {
 1107              		.loc 1 225 0
 1108 0002 064B     		ldr	r3, .L64
 1109 0004 93F88730 		ldrb	r3, [r3, #135]	@ zero_extendqisi2
 1110 0008 2BB9     		cbnz	r3, .L62
 227:Generated_Source\PSoC5/MDIO_Interface.c ****         MDIO_Interface_initVar = 1u;
 1111              		.loc 1 227 0
 1112 000a FFF7FEFF 		bl	MDIO_Interface_Init
 1113              	.LVL111:
 228:Generated_Source\PSoC5/MDIO_Interface.c ****     }
 1114              		.loc 1 228 0
 1115 000e 0122     		movs	r2, #1
 1116 0010 024B     		ldr	r3, .L64
 1117 0012 83F88720 		strb	r2, [r3, #135]
 1118              	.L62:
 231:Generated_Source\PSoC5/MDIO_Interface.c **** }
 1119              		.loc 1 231 0
 1120 0016 FFF7FEFF 		bl	MDIO_Interface_Enable
 1121              	.LVL112:
 1122 001a 08BD     		pop	{r3, pc}
 1123              	.L65:
 1124              		.align	2
 1125              	.L64:
 1126 001c 00000000 		.word	.LANCHOR0
 1127              		.cfi_endproc
 1128              	.LFE2:
 1129              		.size	MDIO_Interface_Start, .-MDIO_Interface_Start
 1130              		.section	.text.MDIO_Interface_GetAddress,"ax",%progbits
ARM GAS  C:\Users\kopusov.FT\AppData\Local\Temp\ccT1QhKH.s 			page 45


 1131              		.align	2
 1132              		.global	MDIO_Interface_GetAddress
 1133              		.thumb
 1134              		.thumb_func
 1135              		.type	MDIO_Interface_GetAddress, %function
 1136              	MDIO_Interface_GetAddress:
 1137              	.LFB9:
 481:Generated_Source\PSoC5/MDIO_Interface.c ****         return(CY_GET_REG16(MDIO_Interface_LAST_ADDR_PTR));
 1138              		.loc 1 481 0
 1139              		.cfi_startproc
 1140              		@ args = 0, pretend = 0, frame = 0
 1141              		@ frame_needed = 0, uses_anonymous_args = 0
 1142              		@ link register save eliminated.
 482:Generated_Source\PSoC5/MDIO_Interface.c ****     }
 1143              		.loc 1 482 0
 1144 0000 014B     		ldr	r3, .L67
 1145 0002 1888     		ldrh	r0, [r3]
 483:Generated_Source\PSoC5/MDIO_Interface.c **** 
 1146              		.loc 1 483 0
 1147 0004 80B2     		uxth	r0, r0
 1148 0006 7047     		bx	lr
 1149              	.L68:
 1150              		.align	2
 1151              	.L67:
 1152 0008 24680040 		.word	1073768484
 1153              		.cfi_endproc
 1154              	.LFE9:
 1155              		.size	MDIO_Interface_GetAddress, .-MDIO_Interface_GetAddress
 1156              		.section	.text.MDIO_Interface_GetData,"ax",%progbits
 1157              		.align	2
 1158              		.global	MDIO_Interface_GetData
 1159              		.thumb
 1160              		.thumb_func
 1161              		.type	MDIO_Interface_GetData, %function
 1162              	MDIO_Interface_GetData:
 1163              	.LFB10:
 510:Generated_Source\PSoC5/MDIO_Interface.c ****         uint8  result = CYRET_BAD_PARAM;
 1164              		.loc 1 510 0
 1165              		.cfi_startproc
 1166              		@ args = 0, pretend = 0, frame = 0
 1167              		@ frame_needed = 0, uses_anonymous_args = 0
 1168              	.LVL113:
 1169 0000 2DE9F843 		push	{r3, r4, r5, r6, r7, r8, r9, lr}
 1170              		.cfi_def_cfa_offset 32
 1171              		.cfi_offset 3, -32
 1172              		.cfi_offset 4, -28
 1173              		.cfi_offset 5, -24
 1174              		.cfi_offset 6, -20
 1175              		.cfi_offset 7, -16
 1176              		.cfi_offset 8, -12
 1177              		.cfi_offset 9, -8
 1178              		.cfi_offset 14, -4
 1179 0004 0646     		mov	r6, r0
 1180 0006 8846     		mov	r8, r1
 1181 0008 1746     		mov	r7, r2
 1182              	.LVL114:
 516:Generated_Source\PSoC5/MDIO_Interface.c ****         {
ARM GAS  C:\Users\kopusov.FT\AppData\Local\Temp\ccT1QhKH.s 			page 46


 1183              		.loc 1 516 0
 1184 000a 0024     		movs	r4, #0
 511:Generated_Source\PSoC5/MDIO_Interface.c ****         uint8  i;
 1185              		.loc 1 511 0
 1186 000c 0120     		movs	r0, #1
 1187              	.LVL115:
 516:Generated_Source\PSoC5/MDIO_Interface.c ****         {
 1188              		.loc 1 516 0
 1189 000e 3DE0     		b	.L70
 1190              	.LVL116:
 1191              	.L73:
 519:Generated_Source\PSoC5/MDIO_Interface.c ****             {
 1192              		.loc 1 519 0
 1193 0010 214B     		ldr	r3, .L75
 1194 0012 33F81430 		ldrh	r3, [r3, r4, lsl #1]
 1195 0016 B342     		cmp	r3, r6
 1196 0018 36D8     		bhi	.L71
 519:Generated_Source\PSoC5/MDIO_Interface.c ****             {
 1197              		.loc 1 519 0 is_stmt 0 discriminator 1
 1198 001a 1F4A     		ldr	r2, .L75
 1199 001c 02EB4402 		add	r2, r2, r4, lsl #1
 1200 0020 9289     		ldrh	r2, [r2, #12]
 1201 0022 B242     		cmp	r2, r6
 1202 0024 30D3     		bcc	.L71
 531:Generated_Source\PSoC5/MDIO_Interface.c ****                 {
 1203              		.loc 1 531 0 is_stmt 1
 1204 0026 921B     		subs	r2, r2, r6
 1205 0028 0132     		adds	r2, r2, #1
 1206 002a 9742     		cmp	r7, r2
 1207 002c 2CD8     		bhi	.L71
 533:Generated_Source\PSoC5/MDIO_Interface.c **** 
 1208              		.loc 1 533 0
 1209 002e F31A     		subs	r3, r6, r3
 1210 0030 9BB2     		uxth	r3, r3
 1211              	.LVL117:
 541:Generated_Source\PSoC5/MDIO_Interface.c ****                             numWords += numWords; /* TD_SIZE is expected in bytes */
 1212              		.loc 1 541 0
 1213 0032 5D00     		lsls	r5, r3, #1
 1214 0034 ABB2     		uxth	r3, r5
 1215              	.LVL118:
 542:Generated_Source\PSoC5/MDIO_Interface.c ****                         }
 1216              		.loc 1 542 0
 1217 0036 7F00     		lsls	r7, r7, #1
 1218              	.LVL119:
 1219 0038 BFB2     		uxth	r7, r7
 1220              	.LVL120:
 546:Generated_Source\PSoC5/MDIO_Interface.c **** 
 1221              		.loc 1 546 0
 1222 003a DFF86490 		ldr	r9, .L75+8
 1223 003e 09EB8401 		add	r1, r9, r4, lsl #2
 1224 0042 8D6E     		ldr	r5, [r1, #104]
 1225 0044 1D44     		add	r5, r5, r3
 1226              	.LVL121:
 552:Generated_Source\PSoC5/MDIO_Interface.c ****                         MDIO_Interface_FW_DMA_BYTES_PER_BURST, MDIO_Interface_FW_DMA_REQUEST_PER_BU
 1227              		.loc 1 552 0
 1228 0046 0220     		movs	r0, #2
 1229              	.LVL122:
ARM GAS  C:\Users\kopusov.FT\AppData\Local\Temp\ccT1QhKH.s 			page 47


 1230 0048 0021     		movs	r1, #0
 1231 004a 2A0C     		lsrs	r2, r5, #16
 1232 004c 41F6FF73 		movw	r3, #8191
 1233              	.LVL123:
 1234 0050 FFF7FEFF 		bl	MDIO_Interface_FwDMA1_DmaInitialize
 1235              	.LVL124:
 1236 0054 89F82500 		strb	r0, [r9, #37]
 555:Generated_Source\PSoC5/MDIO_Interface.c ****                         DMA_INVALID_TD, MDIO_Interface_FW_DMA1_CFG);
 1237              		.loc 1 555 0
 1238 0058 99F82400 		ldrb	r0, [r9, #36]	@ zero_extendqisi2
 1239 005c 3946     		mov	r1, r7
 1240 005e FF22     		movs	r2, #255
 1241 0060 8723     		movs	r3, #135
 1242 0062 FFF7FEFF 		bl	CyDmaTdSetConfiguration
 1243              	.LVL125:
 557:Generated_Source\PSoC5/MDIO_Interface.c **** 
 1244              		.loc 1 557 0
 1245 0066 99F82400 		ldrb	r0, [r9, #36]	@ zero_extendqisi2
 1246 006a A9B2     		uxth	r1, r5
 1247 006c 1FFA88F2 		uxth	r2, r8
 1248 0070 FFF7FEFF 		bl	CyDmaTdSetAddress
 1249              	.LVL126:
 560:Generated_Source\PSoC5/MDIO_Interface.c **** 
 1250              		.loc 1 560 0
 1251 0074 094B     		ldr	r3, .L75+4
 1252 0076 1B78     		ldrb	r3, [r3]	@ zero_extendqisi2
 563:Generated_Source\PSoC5/MDIO_Interface.c ****                     result = MDIO_Interface_DmaIsComplete(MDIO_Interface_FW_DMA1_MASK);
 1253              		.loc 1 563 0
 1254 0078 99F82500 		ldrb	r0, [r9, #37]	@ zero_extendqisi2
 1255 007c 0121     		movs	r1, #1
 1256 007e FFF7FEFF 		bl	CyDmaChSetRequest
 1257              	.LVL127:
 564:Generated_Source\PSoC5/MDIO_Interface.c ****                 }
 1258              		.loc 1 564 0
 1259 0082 0120     		movs	r0, #1
 1260 0084 FFF7FEFF 		bl	MDIO_Interface_DmaIsComplete
 1261              	.LVL128:
 1262              	.L71:
 516:Generated_Source\PSoC5/MDIO_Interface.c ****         {
 1263              		.loc 1 516 0 discriminator 2
 1264 0088 0134     		adds	r4, r4, #1
 1265              	.LVL129:
 1266 008a E4B2     		uxtb	r4, r4
 1267              	.LVL130:
 1268              	.L70:
 516:Generated_Source\PSoC5/MDIO_Interface.c ****         {
 1269              		.loc 1 516 0 is_stmt 0 discriminator 1
 1270 008c 052C     		cmp	r4, #5
 1271 008e 01D8     		bhi	.L72
 516:Generated_Source\PSoC5/MDIO_Interface.c ****         {
 1272              		.loc 1 516 0 discriminator 3
 1273 0090 0028     		cmp	r0, #0
 1274 0092 BDD1     		bne	.L73
 1275              	.L72:
 569:Generated_Source\PSoC5/MDIO_Interface.c **** 
 1276              		.loc 1 569 0 is_stmt 1
 1277 0094 BDE8F883 		pop	{r3, r4, r5, r6, r7, r8, r9, pc}
ARM GAS  C:\Users\kopusov.FT\AppData\Local\Temp\ccT1QhKH.s 			page 48


 1278              	.LVL131:
 1279              	.L76:
 1280              		.align	2
 1281              	.L75:
 1282 0098 00000000 		.word	.LANCHOR1
 1283 009c 6A650040 		.word	1073767786
 1284 00a0 00000000 		.word	.LANCHOR0
 1285              		.cfi_endproc
 1286              	.LFE10:
 1287              		.size	MDIO_Interface_GetData, .-MDIO_Interface_GetData
 1288              		.section	.text.MDIO_Interface_SetData,"ax",%progbits
 1289              		.align	2
 1290              		.global	MDIO_Interface_SetData
 1291              		.thumb
 1292              		.thumb_func
 1293              		.type	MDIO_Interface_SetData, %function
 1294              	MDIO_Interface_SetData:
 1295              	.LFB11:
 597:Generated_Source\PSoC5/MDIO_Interface.c ****             uint8 result = CYRET_BAD_PARAM;
 1296              		.loc 1 597 0
 1297              		.cfi_startproc
 1298              		@ args = 0, pretend = 0, frame = 0
 1299              		@ frame_needed = 0, uses_anonymous_args = 0
 1300              	.LVL132:
 1301 0000 2DE9F843 		push	{r3, r4, r5, r6, r7, r8, r9, lr}
 1302              		.cfi_def_cfa_offset 32
 1303              		.cfi_offset 3, -32
 1304              		.cfi_offset 4, -28
 1305              		.cfi_offset 5, -24
 1306              		.cfi_offset 6, -20
 1307              		.cfi_offset 7, -16
 1308              		.cfi_offset 8, -12
 1309              		.cfi_offset 9, -8
 1310              		.cfi_offset 14, -4
 1311 0004 0646     		mov	r6, r0
 1312 0006 8846     		mov	r8, r1
 1313 0008 1746     		mov	r7, r2
 1314              	.LVL133:
 603:Generated_Source\PSoC5/MDIO_Interface.c ****             {
 1315              		.loc 1 603 0
 1316 000a 0024     		movs	r4, #0
 598:Generated_Source\PSoC5/MDIO_Interface.c ****             uint8 i;
 1317              		.loc 1 598 0
 1318 000c 0120     		movs	r0, #1
 1319              	.LVL134:
 603:Generated_Source\PSoC5/MDIO_Interface.c ****             {
 1320              		.loc 1 603 0
 1321 000e 3DE0     		b	.L78
 1322              	.LVL135:
 1323              	.L81:
 606:Generated_Source\PSoC5/MDIO_Interface.c ****                 {
 1324              		.loc 1 606 0
 1325 0010 214B     		ldr	r3, .L83
 1326 0012 33F81430 		ldrh	r3, [r3, r4, lsl #1]
 1327 0016 B342     		cmp	r3, r6
 1328 0018 36D8     		bhi	.L79
 606:Generated_Source\PSoC5/MDIO_Interface.c ****                 {
ARM GAS  C:\Users\kopusov.FT\AppData\Local\Temp\ccT1QhKH.s 			page 49


 1329              		.loc 1 606 0 is_stmt 0 discriminator 1
 1330 001a 1F4A     		ldr	r2, .L83
 1331 001c 02EB4402 		add	r2, r2, r4, lsl #1
 1332 0020 9289     		ldrh	r2, [r2, #12]
 1333 0022 B242     		cmp	r2, r6
 1334 0024 30D3     		bcc	.L79
 623:Generated_Source\PSoC5/MDIO_Interface.c ****                         {
 1335              		.loc 1 623 0 is_stmt 1
 1336 0026 921B     		subs	r2, r2, r6
 1337 0028 0132     		adds	r2, r2, #1
 1338 002a 9742     		cmp	r7, r2
 1339 002c 2CD8     		bhi	.L79
 625:Generated_Source\PSoC5/MDIO_Interface.c **** 
 1340              		.loc 1 625 0
 1341 002e F31A     		subs	r3, r6, r3
 1342 0030 9BB2     		uxth	r3, r3
 1343              	.LVL136:
 633:Generated_Source\PSoC5/MDIO_Interface.c ****                                     numWords += numWords; /* TD_SIZE is expected in bytes */
 1344              		.loc 1 633 0
 1345 0032 5D00     		lsls	r5, r3, #1
 1346 0034 ABB2     		uxth	r3, r5
 1347              	.LVL137:
 634:Generated_Source\PSoC5/MDIO_Interface.c ****                                 }
 1348              		.loc 1 634 0
 1349 0036 7F00     		lsls	r7, r7, #1
 1350              	.LVL138:
 1351 0038 BFB2     		uxth	r7, r7
 1352              	.LVL139:
 638:Generated_Source\PSoC5/MDIO_Interface.c **** 
 1353              		.loc 1 638 0
 1354 003a DFF86490 		ldr	r9, .L83+8
 1355 003e 09EB8401 		add	r1, r9, r4, lsl #2
 1356 0042 8D6E     		ldr	r5, [r1, #104]
 1357 0044 1D44     		add	r5, r5, r3
 1358              	.LVL140:
 644:Generated_Source\PSoC5/MDIO_Interface.c ****                                 MDIO_Interface_FW_DMA_BYTES_PER_BURST, MDIO_Interface_FW_DMA_REQUES
 1359              		.loc 1 644 0
 1360 0046 0220     		movs	r0, #2
 1361              	.LVL141:
 1362 0048 0021     		movs	r1, #0
 1363 004a 41F6FF72 		movw	r2, #8191
 1364 004e 2B0C     		lsrs	r3, r5, #16
 1365              	.LVL142:
 1366 0050 FFF7FEFF 		bl	MDIO_Interface_FwDMA1_DmaInitialize
 1367              	.LVL143:
 1368 0054 89F82500 		strb	r0, [r9, #37]
 648:Generated_Source\PSoC5/MDIO_Interface.c ****                                 DMA_INVALID_TD, MDIO_Interface_FW_DMA1_CFG);
 1369              		.loc 1 648 0
 1370 0058 99F82400 		ldrb	r0, [r9, #36]	@ zero_extendqisi2
 1371 005c 3946     		mov	r1, r7
 1372 005e FF22     		movs	r2, #255
 1373 0060 8723     		movs	r3, #135
 1374 0062 FFF7FEFF 		bl	CyDmaTdSetConfiguration
 1375              	.LVL144:
 650:Generated_Source\PSoC5/MDIO_Interface.c ****                                                                                      LO16(memAddr))
 1376              		.loc 1 650 0
 1377 0066 99F82400 		ldrb	r0, [r9, #36]	@ zero_extendqisi2
ARM GAS  C:\Users\kopusov.FT\AppData\Local\Temp\ccT1QhKH.s 			page 50


 1378 006a 1FFA88F1 		uxth	r1, r8
 1379 006e AAB2     		uxth	r2, r5
 1380 0070 FFF7FEFF 		bl	CyDmaTdSetAddress
 1381              	.LVL145:
 654:Generated_Source\PSoC5/MDIO_Interface.c **** 
 1382              		.loc 1 654 0
 1383 0074 094B     		ldr	r3, .L83+4
 1384 0076 1B78     		ldrb	r3, [r3]	@ zero_extendqisi2
 657:Generated_Source\PSoC5/MDIO_Interface.c ****                             result = MDIO_Interface_DmaIsComplete(MDIO_Interface_FW_DMA1_MASK);
 1385              		.loc 1 657 0
 1386 0078 99F82500 		ldrb	r0, [r9, #37]	@ zero_extendqisi2
 1387 007c 0121     		movs	r1, #1
 1388 007e FFF7FEFF 		bl	CyDmaChSetRequest
 1389              	.LVL146:
 658:Generated_Source\PSoC5/MDIO_Interface.c ****                         }
 1390              		.loc 1 658 0
 1391 0082 0120     		movs	r0, #1
 1392 0084 FFF7FEFF 		bl	MDIO_Interface_DmaIsComplete
 1393              	.LVL147:
 1394              	.L79:
 603:Generated_Source\PSoC5/MDIO_Interface.c ****             {
 1395              		.loc 1 603 0 discriminator 2
 1396 0088 0134     		adds	r4, r4, #1
 1397              	.LVL148:
 1398 008a E4B2     		uxtb	r4, r4
 1399              	.LVL149:
 1400              	.L78:
 603:Generated_Source\PSoC5/MDIO_Interface.c ****             {
 1401              		.loc 1 603 0 is_stmt 0 discriminator 1
 1402 008c 052C     		cmp	r4, #5
 1403 008e 01D8     		bhi	.L80
 603:Generated_Source\PSoC5/MDIO_Interface.c ****             {
 1404              		.loc 1 603 0 discriminator 3
 1405 0090 0028     		cmp	r0, #0
 1406 0092 BDD1     		bne	.L81
 1407              	.L80:
 664:Generated_Source\PSoC5/MDIO_Interface.c **** 
 1408              		.loc 1 664 0 is_stmt 1
 1409 0094 BDE8F883 		pop	{r3, r4, r5, r6, r7, r8, r9, pc}
 1410              	.LVL150:
 1411              	.L84:
 1412              		.align	2
 1413              	.L83:
 1414 0098 00000000 		.word	.LANCHOR1
 1415 009c 6A650040 		.word	1073767786
 1416 00a0 00000000 		.word	.LANCHOR0
 1417              		.cfi_endproc
 1418              	.LFE11:
 1419              		.size	MDIO_Interface_SetData, .-MDIO_Interface_SetData
 1420              		.section	.text.MDIO_Interface_SetBits,"ax",%progbits
 1421              		.align	2
 1422              		.global	MDIO_Interface_SetBits
 1423              		.thumb
 1424              		.thumb_func
 1425              		.type	MDIO_Interface_SetBits, %function
 1426              	MDIO_Interface_SetBits:
 1427              	.LFB12:
ARM GAS  C:\Users\kopusov.FT\AppData\Local\Temp\ccT1QhKH.s 			page 51


 685:Generated_Source\PSoC5/MDIO_Interface.c ****             uint8  result = CYRET_BAD_PARAM;
 1428              		.loc 1 685 0
 1429              		.cfi_startproc
 1430              		@ args = 0, pretend = 0, frame = 0
 1431              		@ frame_needed = 0, uses_anonymous_args = 0
 1432              	.LVL151:
 1433 0000 2DE9F041 		push	{r4, r5, r6, r7, r8, lr}
 1434              		.cfi_def_cfa_offset 24
 1435              		.cfi_offset 4, -24
 1436              		.cfi_offset 5, -20
 1437              		.cfi_offset 6, -16
 1438              		.cfi_offset 7, -12
 1439              		.cfi_offset 8, -8
 1440              		.cfi_offset 14, -4
 1441 0004 0646     		mov	r6, r0
 1442 0006 0F46     		mov	r7, r1
 1443              	.LVL152:
 693:Generated_Source\PSoC5/MDIO_Interface.c ****             {
 1444              		.loc 1 693 0
 1445 0008 0024     		movs	r4, #0
 686:Generated_Source\PSoC5/MDIO_Interface.c ****             uint8  i;
 1446              		.loc 1 686 0
 1447 000a 0120     		movs	r0, #1
 1448              	.LVL153:
 693:Generated_Source\PSoC5/MDIO_Interface.c ****             {
 1449              		.loc 1 693 0
 1450 000c 46E0     		b	.L86
 1451              	.LVL154:
 1452              	.L89:
 696:Generated_Source\PSoC5/MDIO_Interface.c ****                 {
 1453              		.loc 1 696 0
 1454 000e 264B     		ldr	r3, .L91
 1455 0010 33F81430 		ldrh	r3, [r3, r4, lsl #1]
 1456 0014 B342     		cmp	r3, r6
 1457 0016 3FD8     		bhi	.L87
 696:Generated_Source\PSoC5/MDIO_Interface.c ****                 {
 1458              		.loc 1 696 0 is_stmt 0 discriminator 1
 1459 0018 234A     		ldr	r2, .L91
 1460 001a 02EB4402 		add	r2, r2, r4, lsl #1
 1461 001e 9289     		ldrh	r2, [r2, #12]
 1462 0020 B242     		cmp	r2, r6
 1463 0022 39D3     		bcc	.L87
 713:Generated_Source\PSoC5/MDIO_Interface.c ****                         {
 1464              		.loc 1 713 0 is_stmt 1
 1465 0024 921B     		subs	r2, r2, r6
 1466 0026 B2F1FF3F 		cmp	r2, #-1
 1467 002a 35D0     		beq	.L87
 715:Generated_Source\PSoC5/MDIO_Interface.c **** 
 1468              		.loc 1 715 0
 1469 002c F51A     		subs	r5, r6, r3
 1470 002e ADB2     		uxth	r5, r5
 1471              	.LVL155:
 723:Generated_Source\PSoC5/MDIO_Interface.c ****                                 }
 1472              		.loc 1 723 0
 1473 0030 6D00     		lsls	r5, r5, #1
 1474              	.LVL156:
 1475 0032 ABB2     		uxth	r3, r5
ARM GAS  C:\Users\kopusov.FT\AppData\Local\Temp\ccT1QhKH.s 			page 52


 1476              	.LVL157:
 727:Generated_Source\PSoC5/MDIO_Interface.c **** 
 1477              		.loc 1 727 0
 1478 0034 DFF88080 		ldr	r8, .L91+16
 1479 0038 08EB8401 		add	r1, r8, r4, lsl #2
 1480 003c 8D6E     		ldr	r5, [r1, #104]
 1481 003e 1D44     		add	r5, r5, r3
 1482              	.LVL158:
 730:Generated_Source\PSoC5/MDIO_Interface.c **** 
 1483              		.loc 1 730 0
 1484 0040 1A4B     		ldr	r3, .L91+4
 1485              	.LVL159:
 1486 0042 1F80     		strh	r7, [r3]	@ movhi
 1487              	.LVL160:
 742:Generated_Source\PSoC5/MDIO_Interface.c ****                                 MDIO_Interface_FW_DMA_BYTES_PER_BURST, MDIO_Interface_FW_DMA_REQUES
 1488              		.loc 1 742 0
 1489 0044 0220     		movs	r0, #2
 1490              	.LVL161:
 1491 0046 0021     		movs	r1, #0
 1492 0048 41F6FF72 		movw	r2, #8191
 1493 004c 4FF48043 		mov	r3, #16384
 1494 0050 FFF7FEFF 		bl	MDIO_Interface_FwDMA1_DmaInitialize
 1495              	.LVL162:
 1496 0054 88F82500 		strb	r0, [r8, #37]
 747:Generated_Source\PSoC5/MDIO_Interface.c ****                                 LO16((uint32)MDIO_Interface_REG_VAL_PTR));
 1497              		.loc 1 747 0
 1498 0058 ADB2     		uxth	r5, r5
 1499              	.LVL163:
 1500 005a 98F82400 		ldrb	r0, [r8, #36]	@ zero_extendqisi2
 1501 005e 2946     		mov	r1, r5
 1502 0060 46F61022 		movw	r2, #27152
 1503 0064 FFF7FEFF 		bl	CyDmaTdSetAddress
 1504              	.LVL164:
 751:Generated_Source\PSoC5/MDIO_Interface.c ****                                 LO16((uint32)MDIO_Interface_REG_VAL_PTR), LO16(memAddr));
 1505              		.loc 1 751 0
 1506 0068 98F82800 		ldrb	r0, [r8, #40]	@ zero_extendqisi2
 1507 006c 46F61021 		movw	r1, #27152
 1508 0070 2A46     		mov	r2, r5
 1509 0072 FFF7FEFF 		bl	CyDmaTdSetAddress
 1510              	.LVL165:
 755:Generated_Source\PSoC5/MDIO_Interface.c ****                                 MDIO_Interface_FW_DMA_TD_SIZE, DMA_INVALID_TD,
 1511              		.loc 1 755 0
 1512 0076 98F82400 		ldrb	r0, [r8, #36]	@ zero_extendqisi2
 1513 007a 0221     		movs	r1, #2
 1514 007c FF22     		movs	r2, #255
 1515 007e 8523     		movs	r3, #133
 1516 0080 FFF7FEFF 		bl	CyDmaTdSetConfiguration
 1517              	.LVL166:
 760:Generated_Source\PSoC5/MDIO_Interface.c **** 
 1518              		.loc 1 760 0
 1519 0084 0A4B     		ldr	r3, .L91+8
 1520 0086 1B78     		ldrb	r3, [r3]	@ zero_extendqisi2
 763:Generated_Source\PSoC5/MDIO_Interface.c ****                             result = MDIO_Interface_DmaIsComplete(MDIO_Interface_FW_DMA2_MASK);
 1521              		.loc 1 763 0
 1522 0088 0A4A     		ldr	r2, .L91+12
 1523 008a 1378     		ldrb	r3, [r2]	@ zero_extendqisi2
 1524 008c 83F00403 		eor	r3, r3, #4
ARM GAS  C:\Users\kopusov.FT\AppData\Local\Temp\ccT1QhKH.s 			page 53


 1525 0090 1370     		strb	r3, [r2]
 764:Generated_Source\PSoC5/MDIO_Interface.c ****                         }
 1526              		.loc 1 764 0
 1527 0092 0220     		movs	r0, #2
 1528 0094 FFF7FEFF 		bl	MDIO_Interface_DmaIsComplete
 1529              	.LVL167:
 1530              	.L87:
 693:Generated_Source\PSoC5/MDIO_Interface.c ****             {
 1531              		.loc 1 693 0 discriminator 2
 1532 0098 0134     		adds	r4, r4, #1
 1533              	.LVL168:
 1534 009a E4B2     		uxtb	r4, r4
 1535              	.LVL169:
 1536              	.L86:
 693:Generated_Source\PSoC5/MDIO_Interface.c ****             {
 1537              		.loc 1 693 0 is_stmt 0 discriminator 1
 1538 009c 052C     		cmp	r4, #5
 1539 009e 01D8     		bhi	.L88
 693:Generated_Source\PSoC5/MDIO_Interface.c ****             {
 1540              		.loc 1 693 0 discriminator 3
 1541 00a0 0028     		cmp	r0, #0
 1542 00a2 B4D1     		bne	.L89
 1543              	.L88:
 770:Generated_Source\PSoC5/MDIO_Interface.c **** 
 1544              		.loc 1 770 0 is_stmt 1
 1545 00a4 BDE8F081 		pop	{r4, r5, r6, r7, r8, pc}
 1546              	.LVL170:
 1547              	.L92:
 1548              		.align	2
 1549              	.L91:
 1550 00a8 00000000 		.word	.LANCHOR1
 1551 00ac 306A0040 		.word	1073769008
 1552 00b0 6A650040 		.word	1073767786
 1553 00b4 7B650040 		.word	1073767803
 1554 00b8 00000000 		.word	.LANCHOR0
 1555              		.cfi_endproc
 1556              	.LFE12:
 1557              		.size	MDIO_Interface_SetBits, .-MDIO_Interface_SetBits
 1558              		.section	.text.MDIO_Interface_GetConfiguration,"ax",%progbits
 1559              		.align	2
 1560              		.global	MDIO_Interface_GetConfiguration
 1561              		.thumb
 1562              		.thumb_func
 1563              		.type	MDIO_Interface_GetConfiguration, %function
 1564              	MDIO_Interface_GetConfiguration:
 1565              	.LFB13:
 790:Generated_Source\PSoC5/MDIO_Interface.c ****         uint8 * config;
 1566              		.loc 1 790 0
 1567              		.cfi_startproc
 1568              		@ args = 0, pretend = 0, frame = 0
 1569              		@ frame_needed = 0, uses_anonymous_args = 0
 1570              		@ link register save eliminated.
 1571              	.LVL171:
 794:Generated_Source\PSoC5/MDIO_Interface.c ****         {
 1572              		.loc 1 794 0
 1573 0000 431E     		subs	r3, r0, #1
 1574 0002 DBB2     		uxtb	r3, r3
ARM GAS  C:\Users\kopusov.FT\AppData\Local\Temp\ccT1QhKH.s 			page 54


 1575 0004 052B     		cmp	r3, #5
 1576 0006 08D8     		bhi	.L95
 796:Generated_Source\PSoC5/MDIO_Interface.c ****             regSpace--;
 1577              		.loc 1 796 0
 1578 0008 4000     		lsls	r0, r0, #1
 1579              	.LVL172:
 797:Generated_Source\PSoC5/MDIO_Interface.c ****             config = (uint8 *)MDIO_Interface_pageInfoList[regSpace];
 1580              		.loc 1 797 0
 1581 000a 0138     		subs	r0, r0, #1
 1582              	.LVL173:
 1583 000c 00F0FF00 		and	r0, r0, #255
 1584              	.LVL174:
 798:Generated_Source\PSoC5/MDIO_Interface.c ****         }
 1585              		.loc 1 798 0
 1586 0010 034B     		ldr	r3, .L96
 1587 0012 03EB8000 		add	r0, r3, r0, lsl #2
 1588              	.LVL175:
 1589 0016 806B     		ldr	r0, [r0, #56]
 1590              	.LVL176:
 1591 0018 7047     		bx	lr
 1592              	.LVL177:
 1593              	.L95:
 792:Generated_Source\PSoC5/MDIO_Interface.c **** 
 1594              		.loc 1 792 0
 1595 001a 0020     		movs	r0, #0
 1596              	.LVL178:
 801:Generated_Source\PSoC5/MDIO_Interface.c **** 
 1597              		.loc 1 801 0
 1598 001c 7047     		bx	lr
 1599              	.L97:
 1600 001e 00BF     		.align	2
 1601              	.L96:
 1602 0020 00000000 		.word	.LANCHOR0
 1603              		.cfi_endproc
 1604              	.LFE13:
 1605              		.size	MDIO_Interface_GetConfiguration, .-MDIO_Interface_GetConfiguration
 1606              		.global	MDIO_Interface_initVar
 1607              		.data
 1608              		.align	2
 1609              		.set	.LANCHOR1,. + 0
 1610              		.type	MDIO_Interface_pageStartAddr, %object
 1611              		.size	MDIO_Interface_pageStartAddr, 12
 1612              	MDIO_Interface_pageStartAddr:
 1613 0000 0080     		.short	-32768
 1614 0002 0084     		.short	-31744
 1615 0004 0088     		.short	-30720
 1616 0006 00A0     		.short	-24576
 1617 0008 00A2     		.short	-24064
 1618 000a 00A4     		.short	-23552
 1619              		.type	MDIO_Interface_pageEndAddr, %object
 1620              		.size	MDIO_Interface_pageEndAddr, 12
 1621              	MDIO_Interface_pageEndAddr:
 1622 000c FF81     		.short	-32257
 1623 000e FF84     		.short	-31489
 1624 0010 FF88     		.short	-30465
 1625 0012 7FA0     		.short	-24449
 1626 0014 FFA2     		.short	-23809
ARM GAS  C:\Users\kopusov.FT\AppData\Local\Temp\ccT1QhKH.s 			page 55


 1627 0016 7FA4     		.short	-23425
 1628              		.bss
 1629              		.align	2
 1630              		.set	.LANCHOR0,. + 0
 1631              		.type	MDIO_Interface_pageStartAddr_TD, %object
 1632              		.size	MDIO_Interface_pageStartAddr_TD, 1
 1633              	MDIO_Interface_pageStartAddr_TD:
 1634 0000 00       		.space	1
 1635              		.type	MDIO_Interface_pageStartAddrDMA_Chan, %object
 1636              		.size	MDIO_Interface_pageStartAddrDMA_Chan, 1
 1637              	MDIO_Interface_pageStartAddrDMA_Chan:
 1638 0001 00       		.space	1
 1639 0002 0000     		.space	2
 1640              		.type	MDIO_Interface_pageEndAddr_TD, %object
 1641              		.size	MDIO_Interface_pageEndAddr_TD, 1
 1642              	MDIO_Interface_pageEndAddr_TD:
 1643 0004 00       		.space	1
 1644              		.type	MDIO_Interface_pageEndAddrDMA_Chan, %object
 1645              		.size	MDIO_Interface_pageEndAddrDMA_Chan, 1
 1646              	MDIO_Interface_pageEndAddrDMA_Chan:
 1647 0005 00       		.space	1
 1648 0006 0000     		.space	2
 1649              		.type	MDIO_Interface_pageInfoDMA_TD, %object
 1650              		.size	MDIO_Interface_pageInfoDMA_TD, 1
 1651              	MDIO_Interface_pageInfoDMA_TD:
 1652 0008 00       		.space	1
 1653              		.type	MDIO_Interface_pageInfoDMA_Chan, %object
 1654              		.size	MDIO_Interface_pageInfoDMA_Chan, 1
 1655              	MDIO_Interface_pageInfoDMA_Chan:
 1656 0009 00       		.space	1
 1657 000a 0000     		.space	2
 1658              		.type	MDIO_Interface_regAddrDMA_TD, %object
 1659              		.size	MDIO_Interface_regAddrDMA_TD, 7
 1660              	MDIO_Interface_regAddrDMA_TD:
 1661 000c 00000000 		.space	7
 1661      000000
 1662              		.type	MDIO_Interface_regAddrDMA_Chan, %object
 1663              		.size	MDIO_Interface_regAddrDMA_Chan, 1
 1664              	MDIO_Interface_regAddrDMA_Chan:
 1665 0013 00       		.space	1
 1666              		.type	MDIO_Interface_rdDMA_TD, %object
 1667              		.size	MDIO_Interface_rdDMA_TD, 1
 1668              	MDIO_Interface_rdDMA_TD:
 1669 0014 00       		.space	1
 1670              		.type	MDIO_Interface_rdDMA_Chan, %object
 1671              		.size	MDIO_Interface_rdDMA_Chan, 1
 1672              	MDIO_Interface_rdDMA_Chan:
 1673 0015 00       		.space	1
 1674 0016 0000     		.space	2
 1675              		.type	MDIO_Interface_wrDMA_TD, %object
 1676              		.size	MDIO_Interface_wrDMA_TD, 1
 1677              	MDIO_Interface_wrDMA_TD:
 1678 0018 00       		.space	1
 1679              		.type	MDIO_Interface_wrDMA_Chan, %object
 1680              		.size	MDIO_Interface_wrDMA_Chan, 1
 1681              	MDIO_Interface_wrDMA_Chan:
 1682 0019 00       		.space	1
ARM GAS  C:\Users\kopusov.FT\AppData\Local\Temp\ccT1QhKH.s 			page 56


 1683 001a 0000     		.space	2
 1684              		.type	MDIO_Interface_cfgDMA1_TD, %object
 1685              		.size	MDIO_Interface_cfgDMA1_TD, 1
 1686              	MDIO_Interface_cfgDMA1_TD:
 1687 001c 00       		.space	1
 1688              		.type	MDIO_Interface_cfgDMA1_Chan, %object
 1689              		.size	MDIO_Interface_cfgDMA1_Chan, 1
 1690              	MDIO_Interface_cfgDMA1_Chan:
 1691 001d 00       		.space	1
 1692 001e 0000     		.space	2
 1693              		.type	MDIO_Interface_cfgDMA2_TD, %object
 1694              		.size	MDIO_Interface_cfgDMA2_TD, 2
 1695              	MDIO_Interface_cfgDMA2_TD:
 1696 0020 0000     		.space	2
 1697              		.type	MDIO_Interface_cfgDMA2_Chan, %object
 1698              		.size	MDIO_Interface_cfgDMA2_Chan, 1
 1699              	MDIO_Interface_cfgDMA2_Chan:
 1700 0022 00       		.space	1
 1701 0023 00       		.space	1
 1702              		.type	MDIO_Interface_fwDMA1_TD, %object
 1703              		.size	MDIO_Interface_fwDMA1_TD, 1
 1704              	MDIO_Interface_fwDMA1_TD:
 1705 0024 00       		.space	1
 1706              		.type	MDIO_Interface_fwDMA1_Chan, %object
 1707              		.size	MDIO_Interface_fwDMA1_Chan, 1
 1708              	MDIO_Interface_fwDMA1_Chan:
 1709 0025 00       		.space	1
 1710 0026 0000     		.space	2
 1711              		.type	MDIO_Interface_fwDMA2_TD, %object
 1712              		.size	MDIO_Interface_fwDMA2_TD, 1
 1713              	MDIO_Interface_fwDMA2_TD:
 1714 0028 00       		.space	1
 1715              		.type	MDIO_Interface_fwDMA2_Chan, %object
 1716              		.size	MDIO_Interface_fwDMA2_Chan, 1
 1717              	MDIO_Interface_fwDMA2_Chan:
 1718 0029 00       		.space	1
 1719 002a 0000     		.space	2
 1720              		.type	MDIO_Interface_dmaChannelList, %object
 1721              		.size	MDIO_Interface_dmaChannelList, 10
 1722              	MDIO_Interface_dmaChannelList:
 1723 002c 00000000 		.space	10
 1723      00000000 
 1723      0000
 1724 0036 0000     		.space	2
 1725              		.type	MDIO_Interface_pageInfoList, %object
 1726              		.size	MDIO_Interface_pageInfoList, 48
 1727              	MDIO_Interface_pageInfoList:
 1728 0038 00000000 		.space	48
 1728      00000000 
 1728      00000000 
 1728      00000000 
 1728      00000000 
 1729              		.type	MDIO_Interface_pageAddrList, %object
 1730              		.size	MDIO_Interface_pageAddrList, 24
 1731              	MDIO_Interface_pageAddrList:
 1732 0068 00000000 		.space	24
 1732      00000000 
ARM GAS  C:\Users\kopusov.FT\AppData\Local\Temp\ccT1QhKH.s 			page 57


 1732      00000000 
 1732      00000000 
 1732      00000000 
 1733              		.type	MDIO_Interface_regConfig.5176, %object
 1734              		.size	MDIO_Interface_regConfig.5176, 4
 1735              	MDIO_Interface_regConfig.5176:
 1736 0080 00000000 		.space	4
 1737              		.type	MDIO_Interface_phyAddress, %object
 1738              		.size	MDIO_Interface_phyAddress, 1
 1739              	MDIO_Interface_phyAddress:
 1740 0084 00       		.space	1
 1741              		.type	MDIO_Interface_devAddress, %object
 1742              		.size	MDIO_Interface_devAddress, 1
 1743              	MDIO_Interface_devAddress:
 1744 0085 00       		.space	1
 1745              		.type	MDIO_Interface_dmaInitDone.5077, %object
 1746              		.size	MDIO_Interface_dmaInitDone.5077, 1
 1747              	MDIO_Interface_dmaInitDone.5077:
 1748 0086 00       		.space	1
 1749              		.type	MDIO_Interface_initVar, %object
 1750              		.size	MDIO_Interface_initVar, 1
 1751              	MDIO_Interface_initVar:
 1752 0087 00       		.space	1
 1753              		.text
 1754              	.Letext0:
 1755              		.file 2 "Generated_Source\\PSoC5\\cytypes.h"
 1756              		.file 3 "Generated_Source\\PSoC5/CYDMAC.H"
 1757              		.file 4 "Generated_Source\\PSoC5\\MDIO_Interface_REG.h"
 1758              		.file 5 "Generated_Source\\PSoC5\\MDIO_Interface_StartAddrDMA_dma.h"
 1759              		.file 6 "Generated_Source\\PSoC5\\MDIO_Interface_EndAddrDMA_dma.h"
 1760              		.file 7 "Generated_Source\\PSoC5\\MDIO_Interface_InfoDMA_dma.h"
 1761              		.file 8 "Generated_Source\\PSoC5\\MDIO_Interface_RdDMA_dma.h"
 1762              		.file 9 "Generated_Source\\PSoC5\\MDIO_Interface_WrDMA_dma.h"
 1763              		.file 10 "Generated_Source\\PSoC5\\MDIO_Interface_CfgDMA1_dma.h"
 1764              		.file 11 "Generated_Source\\PSoC5\\MDIO_Interface_CfgDMA2_dma.h"
 1765              		.file 12 "Generated_Source\\PSoC5\\MDIO_Interface_AddrDMA_dma.h"
 1766              		.file 13 "Generated_Source\\PSoC5\\MDIO_Interface_FwDMA1_dma.h"
 1767              		.file 14 "Generated_Source\\PSoC5\\MDIO_Interface_FwDMA2_dma.h"
 1768              		.file 15 "Generated_Source\\PSoC5\\CyLib.h"