ARM GAS  C:\Users\kopusov.FT\AppData\Local\Temp\ccT1QhKH.s 			page 1


   1              		.syntax unified
   2              		.cpu cortex-m3
   3              		.fpu softvfp
   4              		.eabi_attribute 20, 1
   5              		.eabi_attribute 21, 1
   6              		.eabi_attribute 23, 3
   7              		.eabi_attribute 24, 1
   8              		.eabi_attribute 25, 1
   9              		.eabi_attribute 26, 1
  10              		.eabi_attribute 30, 1
  11              		.eabi_attribute 34, 1
  12              		.eabi_attribute 18, 4
  13              		.thumb
  14              		.file	"MDIO_Interface.c"
  15              		.text
  16              	.Ltext0:
  17              		.cfi_sections	.debug_frame
  18              		.section	.text.MDIO_Interface_DmaEnable,"ax",%progbits
  19              		.align	2
  20              		.thumb
  21              		.thumb_func
  22              		.type	MDIO_Interface_DmaEnable, %function
  23              	MDIO_Interface_DmaEnable:
  24              	.LFB15:
  25              		.file 1 "Generated_Source\\PSoC5\\MDIO_Interface.c"
   1:Generated_Source\PSoC5/MDIO_Interface.c **** /*******************************************************************************
   2:Generated_Source\PSoC5/MDIO_Interface.c **** * File Name: MDIO_Interface.c
   3:Generated_Source\PSoC5/MDIO_Interface.c **** * Version 1.20
   4:Generated_Source\PSoC5/MDIO_Interface.c **** *
   5:Generated_Source\PSoC5/MDIO_Interface.c **** * Description:
   6:Generated_Source\PSoC5/MDIO_Interface.c **** *  This file provides the source code to the API for the MDIO Slave component.
   7:Generated_Source\PSoC5/MDIO_Interface.c **** *
   8:Generated_Source\PSoC5/MDIO_Interface.c **** * Note:
   9:Generated_Source\PSoC5/MDIO_Interface.c **** *
  10:Generated_Source\PSoC5/MDIO_Interface.c **** ********************************************************************************
  11:Generated_Source\PSoC5/MDIO_Interface.c **** * Copyright 2013-2014, Cypress Semiconductor Corporation.  All rights reserved.
  12:Generated_Source\PSoC5/MDIO_Interface.c **** * You may use this file only in accordance with the license, terms, conditions,
  13:Generated_Source\PSoC5/MDIO_Interface.c **** * disclaimers, and limitations in the end user license agreement accompanying
  14:Generated_Source\PSoC5/MDIO_Interface.c **** * the software package with which this file was provided.
  15:Generated_Source\PSoC5/MDIO_Interface.c **** *******************************************************************************/
  16:Generated_Source\PSoC5/MDIO_Interface.c **** 
  17:Generated_Source\PSoC5/MDIO_Interface.c **** #include "MDIO_Interface.h"
  18:Generated_Source\PSoC5/MDIO_Interface.c **** 
  19:Generated_Source\PSoC5/MDIO_Interface.c **** #if(MDIO_Interface_ADVANCED_MODE)
  20:Generated_Source\PSoC5/MDIO_Interface.c **** 
  21:Generated_Source\PSoC5/MDIO_Interface.c ****     #include "MDIO_Interface_REG.h"
  22:Generated_Source\PSoC5/MDIO_Interface.c ****     #include "MDIO_Interface_StartAddrDMA_dma.h"
  23:Generated_Source\PSoC5/MDIO_Interface.c ****     #include "MDIO_Interface_EndAddrDMA_dma.h"
  24:Generated_Source\PSoC5/MDIO_Interface.c ****     #include "MDIO_Interface_AddrDMA_dma.h"
  25:Generated_Source\PSoC5/MDIO_Interface.c ****     #include "MDIO_Interface_InfoDMA_dma.h"
  26:Generated_Source\PSoC5/MDIO_Interface.c ****     #include "MDIO_Interface_RdDMA_dma.h"
  27:Generated_Source\PSoC5/MDIO_Interface.c ****     #include "MDIO_Interface_WrDMA_dma.h"
  28:Generated_Source\PSoC5/MDIO_Interface.c ****     #include "MDIO_Interface_CfgDMA1_dma.h"
  29:Generated_Source\PSoC5/MDIO_Interface.c ****     #include "MDIO_Interface_CfgDMA2_dma.h"
  30:Generated_Source\PSoC5/MDIO_Interface.c ****     #include "MDIO_Interface_FwDMA1_dma.h"
  31:Generated_Source\PSoC5/MDIO_Interface.c ****     #include "MDIO_Interface_FwDMA2_dma.h"
  32:Generated_Source\PSoC5/MDIO_Interface.c **** 
ARM GAS  C:\Users\kopusov.FT\AppData\Local\Temp\ccT1QhKH.s 			page 2


  33:Generated_Source\PSoC5/MDIO_Interface.c ****     /* Start addresses of register spaces */
  34:Generated_Source\PSoC5/MDIO_Interface.c ****     static uint16 MDIO_Interface_pageStartAddr[MDIO_Interface_NUMBER_OF_PAGES] =
  35:Generated_Source\PSoC5/MDIO_Interface.c ****     {
  36:Generated_Source\PSoC5/MDIO_Interface.c ****         0x8000u, 0x8400u, 0x8800u, 0xA000u, 0xA200u, 0xA400u
  37:Generated_Source\PSoC5/MDIO_Interface.c ****     };
  38:Generated_Source\PSoC5/MDIO_Interface.c ****     /* End addresses of register spaces */
  39:Generated_Source\PSoC5/MDIO_Interface.c ****     static uint16 MDIO_Interface_pageEndAddr[MDIO_Interface_NUMBER_OF_PAGES] =
  40:Generated_Source\PSoC5/MDIO_Interface.c ****     {
  41:Generated_Source\PSoC5/MDIO_Interface.c ****         0x81FFu, 0x84FFu, 0x88FFu, 0xA07Fu, 0xA2FFu, 0xA47Fu
  42:Generated_Source\PSoC5/MDIO_Interface.c ****     };
  43:Generated_Source\PSoC5/MDIO_Interface.c **** 
  44:Generated_Source\PSoC5/MDIO_Interface.c ****     /* Register page start address DMA */
  45:Generated_Source\PSoC5/MDIO_Interface.c ****     static uint8 MDIO_Interface_pageStartAddrDMA_Chan;
  46:Generated_Source\PSoC5/MDIO_Interface.c ****     static uint8 MDIO_Interface_pageStartAddr_TD[1u];
  47:Generated_Source\PSoC5/MDIO_Interface.c **** 
  48:Generated_Source\PSoC5/MDIO_Interface.c ****     /* Register page end address DMA */
  49:Generated_Source\PSoC5/MDIO_Interface.c ****     static uint8 MDIO_Interface_pageEndAddrDMA_Chan;
  50:Generated_Source\PSoC5/MDIO_Interface.c ****     static uint8 MDIO_Interface_pageEndAddr_TD[1u];
  51:Generated_Source\PSoC5/MDIO_Interface.c **** 
  52:Generated_Source\PSoC5/MDIO_Interface.c ****     /* Register physical memory address DMA */
  53:Generated_Source\PSoC5/MDIO_Interface.c ****     static uint8 MDIO_Interface_regAddrDMA_Chan;
  54:Generated_Source\PSoC5/MDIO_Interface.c ****     static uint8 MDIO_Interface_regAddrDMA_TD[7u];
  55:Generated_Source\PSoC5/MDIO_Interface.c **** 
  56:Generated_Source\PSoC5/MDIO_Interface.c ****     /* Register page info DMA */
  57:Generated_Source\PSoC5/MDIO_Interface.c ****     static uint8 MDIO_Interface_pageInfoDMA_Chan;
  58:Generated_Source\PSoC5/MDIO_Interface.c ****     static uint8 MDIO_Interface_pageInfoDMA_TD[1u];
  59:Generated_Source\PSoC5/MDIO_Interface.c **** 
  60:Generated_Source\PSoC5/MDIO_Interface.c ****     /* Read DMA */
  61:Generated_Source\PSoC5/MDIO_Interface.c ****     static uint8 MDIO_Interface_rdDMA_Chan;
  62:Generated_Source\PSoC5/MDIO_Interface.c ****     static uint8 MDIO_Interface_rdDMA_TD[1u];
  63:Generated_Source\PSoC5/MDIO_Interface.c **** 
  64:Generated_Source\PSoC5/MDIO_Interface.c ****     /* Write DMA */
  65:Generated_Source\PSoC5/MDIO_Interface.c ****     static uint8 MDIO_Interface_wrDMA_Chan;
  66:Generated_Source\PSoC5/MDIO_Interface.c ****     static uint8 MDIO_Interface_wrDMA_TD[1u];
  67:Generated_Source\PSoC5/MDIO_Interface.c **** 
  68:Generated_Source\PSoC5/MDIO_Interface.c ****     /* Register configuration DMA */
  69:Generated_Source\PSoC5/MDIO_Interface.c ****     static uint8 MDIO_Interface_cfgDMA1_Chan;
  70:Generated_Source\PSoC5/MDIO_Interface.c ****     static uint8 MDIO_Interface_cfgDMA1_TD[1u];
  71:Generated_Source\PSoC5/MDIO_Interface.c ****     static uint8 MDIO_Interface_cfgDMA2_Chan;
  72:Generated_Source\PSoC5/MDIO_Interface.c ****     static uint8 MDIO_Interface_cfgDMA2_TD[2u];
  73:Generated_Source\PSoC5/MDIO_Interface.c **** 
  74:Generated_Source\PSoC5/MDIO_Interface.c ****     /* DMA used for data transfer from APIs */
  75:Generated_Source\PSoC5/MDIO_Interface.c ****     static uint8 MDIO_Interface_fwDMA1_Chan;
  76:Generated_Source\PSoC5/MDIO_Interface.c ****     static uint8 MDIO_Interface_fwDMA1_TD[1u];
  77:Generated_Source\PSoC5/MDIO_Interface.c ****     static uint8 MDIO_Interface_fwDMA2_Chan;
  78:Generated_Source\PSoC5/MDIO_Interface.c ****     static uint8 MDIO_Interface_fwDMA2_TD[1u];
  79:Generated_Source\PSoC5/MDIO_Interface.c **** 
  80:Generated_Source\PSoC5/MDIO_Interface.c ****     /* List of DMA channels used by component */
  81:Generated_Source\PSoC5/MDIO_Interface.c ****     static uint8 MDIO_Interface_dmaChannelList[MDIO_Interface_NUMBER_OF_CHANNELS];
  82:Generated_Source\PSoC5/MDIO_Interface.c **** 
  83:Generated_Source\PSoC5/MDIO_Interface.c ****     /* Address list of all register space data and configuration arrays */
  84:Generated_Source\PSoC5/MDIO_Interface.c ****     static uint32 MDIO_Interface_pageAddrList[MDIO_Interface_NUMBER_OF_PAGES];
  85:Generated_Source\PSoC5/MDIO_Interface.c ****     static uint32 MDIO_Interface_pageInfoList[MDIO_Interface_PAGE_INFO_SIZE];
  86:Generated_Source\PSoC5/MDIO_Interface.c **** 
  87:Generated_Source\PSoC5/MDIO_Interface.c ****     /* Function prototype to configure/release DMA */
  88:Generated_Source\PSoC5/MDIO_Interface.c ****     static void  MDIO_Interface_DmaInit(void) ;
  89:Generated_Source\PSoC5/MDIO_Interface.c ****     static void  MDIO_Interface_DmaEnable(void) ;
ARM GAS  C:\Users\kopusov.FT\AppData\Local\Temp\ccT1QhKH.s 			page 3


  90:Generated_Source\PSoC5/MDIO_Interface.c ****     static void  MDIO_Interface_DmaDisable(void) ;
  91:Generated_Source\PSoC5/MDIO_Interface.c ****     static uint8 MDIO_Interface_DmaIsComplete(uint8 chMask) ;
  92:Generated_Source\PSoC5/MDIO_Interface.c **** 
  93:Generated_Source\PSoC5/MDIO_Interface.c **** #endif /* MDIO_Interface_ADVANCED_MODE */
  94:Generated_Source\PSoC5/MDIO_Interface.c **** 
  95:Generated_Source\PSoC5/MDIO_Interface.c **** uint8 MDIO_Interface_initVar = 0u;
  96:Generated_Source\PSoC5/MDIO_Interface.c **** static uint8 MDIO_Interface_phyAddress;
  97:Generated_Source\PSoC5/MDIO_Interface.c **** static uint8 MDIO_Interface_devAddress;
  98:Generated_Source\PSoC5/MDIO_Interface.c **** 
  99:Generated_Source\PSoC5/MDIO_Interface.c **** 
 100:Generated_Source\PSoC5/MDIO_Interface.c **** /*******************************************************************************
 101:Generated_Source\PSoC5/MDIO_Interface.c **** * Function Name: MDIO_Interface_Enable
 102:Generated_Source\PSoC5/MDIO_Interface.c **** ********************************************************************************
 103:Generated_Source\PSoC5/MDIO_Interface.c **** *
 104:Generated_Source\PSoC5/MDIO_Interface.c **** * Summary:
 105:Generated_Source\PSoC5/MDIO_Interface.c **** *  Enables the MDIO Slave hardware.
 106:Generated_Source\PSoC5/MDIO_Interface.c **** *
 107:Generated_Source\PSoC5/MDIO_Interface.c **** * Parameters:
 108:Generated_Source\PSoC5/MDIO_Interface.c **** *  None.
 109:Generated_Source\PSoC5/MDIO_Interface.c **** *
 110:Generated_Source\PSoC5/MDIO_Interface.c **** * Return:
 111:Generated_Source\PSoC5/MDIO_Interface.c **** *  None.
 112:Generated_Source\PSoC5/MDIO_Interface.c **** *
 113:Generated_Source\PSoC5/MDIO_Interface.c **** * Reentrant:
 114:Generated_Source\PSoC5/MDIO_Interface.c **** *  No.
 115:Generated_Source\PSoC5/MDIO_Interface.c **** *
 116:Generated_Source\PSoC5/MDIO_Interface.c **** *******************************************************************************/
 117:Generated_Source\PSoC5/MDIO_Interface.c **** void MDIO_Interface_Enable(void) 
 118:Generated_Source\PSoC5/MDIO_Interface.c **** {
 119:Generated_Source\PSoC5/MDIO_Interface.c ****     uint8 enableInterrupts;
 120:Generated_Source\PSoC5/MDIO_Interface.c **** 
 121:Generated_Source\PSoC5/MDIO_Interface.c ****     enableInterrupts = CyEnterCriticalSection();
 122:Generated_Source\PSoC5/MDIO_Interface.c **** 
 123:Generated_Source\PSoC5/MDIO_Interface.c ****     /* Bit counter enabling */
 124:Generated_Source\PSoC5/MDIO_Interface.c ****     MDIO_Interface_BCNT_AUX_CTL_REG   |= MDIO_Interface_BCNT_EN;
 125:Generated_Source\PSoC5/MDIO_Interface.c ****     CyExitCriticalSection(enableInterrupts);
 126:Generated_Source\PSoC5/MDIO_Interface.c **** 
 127:Generated_Source\PSoC5/MDIO_Interface.c ****     #if(MDIO_Interface_ADVANCED_MODE)
 128:Generated_Source\PSoC5/MDIO_Interface.c ****         MDIO_Interface_DmaEnable();
 129:Generated_Source\PSoC5/MDIO_Interface.c ****     #endif /* MDIO_Interface_ADVANCED_MODE */
 130:Generated_Source\PSoC5/MDIO_Interface.c **** 
 131:Generated_Source\PSoC5/MDIO_Interface.c ****     /* Enable interrupts */
 132:Generated_Source\PSoC5/MDIO_Interface.c ****     MDIO_Interface_EnableInt();
 133:Generated_Source\PSoC5/MDIO_Interface.c **** 
 134:Generated_Source\PSoC5/MDIO_Interface.c ****     /* Enable component hardware */
 135:Generated_Source\PSoC5/MDIO_Interface.c ****     MDIO_Interface_CONTROL_REG |= MDIO_Interface_EN;
 136:Generated_Source\PSoC5/MDIO_Interface.c **** }
 137:Generated_Source\PSoC5/MDIO_Interface.c **** 
 138:Generated_Source\PSoC5/MDIO_Interface.c **** 
 139:Generated_Source\PSoC5/MDIO_Interface.c **** /*******************************************************************************
 140:Generated_Source\PSoC5/MDIO_Interface.c **** * Function Name: MDIO_Interface_Init
 141:Generated_Source\PSoC5/MDIO_Interface.c **** ********************************************************************************
 142:Generated_Source\PSoC5/MDIO_Interface.c **** *
 143:Generated_Source\PSoC5/MDIO_Interface.c **** * Summary:
 144:Generated_Source\PSoC5/MDIO_Interface.c **** *  Initializes the component, sets the physical and device address.
 145:Generated_Source\PSoC5/MDIO_Interface.c **** *
 146:Generated_Source\PSoC5/MDIO_Interface.c **** * Parameters:
ARM GAS  C:\Users\kopusov.FT\AppData\Local\Temp\ccT1QhKH.s 			page 4


 147:Generated_Source\PSoC5/MDIO_Interface.c **** *  None.
 148:Generated_Source\PSoC5/MDIO_Interface.c **** *
 149:Generated_Source\PSoC5/MDIO_Interface.c **** * Return:
 150:Generated_Source\PSoC5/MDIO_Interface.c **** *  None.
 151:Generated_Source\PSoC5/MDIO_Interface.c **** *
 152:Generated_Source\PSoC5/MDIO_Interface.c **** * Global Variables:
 153:Generated_Source\PSoC5/MDIO_Interface.c **** *  None.
 154:Generated_Source\PSoC5/MDIO_Interface.c **** *
 155:Generated_Source\PSoC5/MDIO_Interface.c **** * Reentrant:
 156:Generated_Source\PSoC5/MDIO_Interface.c **** *  No.
 157:Generated_Source\PSoC5/MDIO_Interface.c **** *
 158:Generated_Source\PSoC5/MDIO_Interface.c **** *******************************************************************************/
 159:Generated_Source\PSoC5/MDIO_Interface.c **** void MDIO_Interface_Init(void) 
 160:Generated_Source\PSoC5/MDIO_Interface.c **** {
 161:Generated_Source\PSoC5/MDIO_Interface.c ****     #if(MDIO_Interface_ADVANCED_MODE)
 162:Generated_Source\PSoC5/MDIO_Interface.c ****         static uint8 MDIO_Interface_dmaInitDone = 0u;
 163:Generated_Source\PSoC5/MDIO_Interface.c ****     #endif /* MDIO_Interface_ADVANCED_MODE */
 164:Generated_Source\PSoC5/MDIO_Interface.c ****     uint8 enableInterrupts;
 165:Generated_Source\PSoC5/MDIO_Interface.c **** 
 166:Generated_Source\PSoC5/MDIO_Interface.c ****     /* Set device address */
 167:Generated_Source\PSoC5/MDIO_Interface.c ****     MDIO_Interface_SetDevAddress(MDIO_Interface_INIT_DEVADDR);
 168:Generated_Source\PSoC5/MDIO_Interface.c ****     /* Set physical address */
 169:Generated_Source\PSoC5/MDIO_Interface.c ****     MDIO_Interface_UpdatePhyAddress();
 170:Generated_Source\PSoC5/MDIO_Interface.c **** 
 171:Generated_Source\PSoC5/MDIO_Interface.c ****     enableInterrupts = CyEnterCriticalSection();
 172:Generated_Source\PSoC5/MDIO_Interface.c ****     /* Set Read FIFO in Single Buffer Mode */
 173:Generated_Source\PSoC5/MDIO_Interface.c ****     MDIO_Interface_FP_AUX_CTL0_REG |= MDIO_Interface_F0_CLEAR;
 174:Generated_Source\PSoC5/MDIO_Interface.c ****     MDIO_Interface_FP_AUX_CTL1_REG |= MDIO_Interface_F0_CLEAR;
 175:Generated_Source\PSoC5/MDIO_Interface.c ****     CyExitCriticalSection(enableInterrupts);
 176:Generated_Source\PSoC5/MDIO_Interface.c **** 
 177:Generated_Source\PSoC5/MDIO_Interface.c ****     /* Set bit counter period */
 178:Generated_Source\PSoC5/MDIO_Interface.c ****     MDIO_Interface_BCNT_PERIOD_REG = MDIO_Interface_BCNT_PER;
 179:Generated_Source\PSoC5/MDIO_Interface.c **** 
 180:Generated_Source\PSoC5/MDIO_Interface.c ****     #if(MDIO_Interface_ADVANCED_MODE)
 181:Generated_Source\PSoC5/MDIO_Interface.c **** 
 182:Generated_Source\PSoC5/MDIO_Interface.c ****         /* Set size of register page info */
 183:Generated_Source\PSoC5/MDIO_Interface.c ****         CY_SET_REG16(MDIO_Interface_INFO_INC_PTR, MDIO_Interface_PAGE_INFO_INC);
 184:Generated_Source\PSoC5/MDIO_Interface.c ****         /* Set lower 16-bit address of page info array */
 185:Generated_Source\PSoC5/MDIO_Interface.c ****         CY_SET_REG16(MDIO_Interface_INFO_BASE_PTR, LO16((uint32)MDIO_Interface_pageInfoList));
 186:Generated_Source\PSoC5/MDIO_Interface.c ****         /* Set memory type of each register page */
 187:Generated_Source\PSoC5/MDIO_Interface.c ****         MDIO_Interface_MEM_TYPE_REG   = MDIO_Interface_PAGE_MEM_TYPE;
 188:Generated_Source\PSoC5/MDIO_Interface.c ****         /* Set data width of each register page */
 189:Generated_Source\PSoC5/MDIO_Interface.c ****         MDIO_Interface_PAGE_WIDTH_REG = MDIO_Interface_PAGE_DATA_WIDTH;
 190:Generated_Source\PSoC5/MDIO_Interface.c ****         /* Initialize Address analyzer DMAs */
 191:Generated_Source\PSoC5/MDIO_Interface.c ****         if(0u == MDIO_Interface_dmaInitDone)
 192:Generated_Source\PSoC5/MDIO_Interface.c ****         {
 193:Generated_Source\PSoC5/MDIO_Interface.c ****             MDIO_Interface_DmaInit();
 194:Generated_Source\PSoC5/MDIO_Interface.c ****             MDIO_Interface_dmaInitDone = 1u;
 195:Generated_Source\PSoC5/MDIO_Interface.c ****         }
 196:Generated_Source\PSoC5/MDIO_Interface.c **** 
 197:Generated_Source\PSoC5/MDIO_Interface.c ****     #endif /* MDIO_Interface_ADVANCED_MODE */
 198:Generated_Source\PSoC5/MDIO_Interface.c **** }
 199:Generated_Source\PSoC5/MDIO_Interface.c **** 
 200:Generated_Source\PSoC5/MDIO_Interface.c **** 
 201:Generated_Source\PSoC5/MDIO_Interface.c **** /*******************************************************************************
 202:Generated_Source\PSoC5/MDIO_Interface.c **** * Function Name: MDIO_Interface_Start
 203:Generated_Source\PSoC5/MDIO_Interface.c **** ********************************************************************************
ARM GAS  C:\Users\kopusov.FT\AppData\Local\Temp\ccT1QhKH.s 			page 5


 204:Generated_Source\PSoC5/MDIO_Interface.c **** *
 205:Generated_Source\PSoC5/MDIO_Interface.c **** * Summary:
 206:Generated_Source\PSoC5/MDIO_Interface.c **** *  Enables the component. Calls the Init() API if the component has not been
 207:Generated_Source\PSoC5/MDIO_Interface.c **** *  initialized before. Calls the Enable() API.
 208:Generated_Source\PSoC5/MDIO_Interface.c **** *
 209:Generated_Source\PSoC5/MDIO_Interface.c **** * Parameters:
 210:Generated_Source\PSoC5/MDIO_Interface.c **** *  None.
 211:Generated_Source\PSoC5/MDIO_Interface.c **** *
 212:Generated_Source\PSoC5/MDIO_Interface.c **** * Return:
 213:Generated_Source\PSoC5/MDIO_Interface.c **** *  None.
 214:Generated_Source\PSoC5/MDIO_Interface.c **** *
 215:Generated_Source\PSoC5/MDIO_Interface.c **** * Global Variables:
 216:Generated_Source\PSoC5/MDIO_Interface.c **** *  MDIO_Interface_initVar - used to check initial configuration, modified on
 217:Generated_Source\PSoC5/MDIO_Interface.c **** *  first function call.
 218:Generated_Source\PSoC5/MDIO_Interface.c **** *
 219:Generated_Source\PSoC5/MDIO_Interface.c **** * Reentrant:
 220:Generated_Source\PSoC5/MDIO_Interface.c **** *  No.
 221:Generated_Source\PSoC5/MDIO_Interface.c **** *
 222:Generated_Source\PSoC5/MDIO_Interface.c **** *******************************************************************************/
 223:Generated_Source\PSoC5/MDIO_Interface.c **** void MDIO_Interface_Start(void) 
 224:Generated_Source\PSoC5/MDIO_Interface.c **** {
 225:Generated_Source\PSoC5/MDIO_Interface.c ****     if(0u == MDIO_Interface_initVar)
 226:Generated_Source\PSoC5/MDIO_Interface.c ****     {
 227:Generated_Source\PSoC5/MDIO_Interface.c ****         MDIO_Interface_Init();
 228:Generated_Source\PSoC5/MDIO_Interface.c ****         MDIO_Interface_initVar = 1u;
 229:Generated_Source\PSoC5/MDIO_Interface.c ****     }
 230:Generated_Source\PSoC5/MDIO_Interface.c **** 
 231:Generated_Source\PSoC5/MDIO_Interface.c ****     MDIO_Interface_Enable();
 232:Generated_Source\PSoC5/MDIO_Interface.c **** }
 233:Generated_Source\PSoC5/MDIO_Interface.c **** 
 234:Generated_Source\PSoC5/MDIO_Interface.c **** 
 235:Generated_Source\PSoC5/MDIO_Interface.c **** /*******************************************************************************
 236:Generated_Source\PSoC5/MDIO_Interface.c **** * Function Name: MDIO_Interface_Stop
 237:Generated_Source\PSoC5/MDIO_Interface.c **** ********************************************************************************
 238:Generated_Source\PSoC5/MDIO_Interface.c **** *
 239:Generated_Source\PSoC5/MDIO_Interface.c **** * Summary:
 240:Generated_Source\PSoC5/MDIO_Interface.c **** *  Disables the MDIO interface.
 241:Generated_Source\PSoC5/MDIO_Interface.c **** *
 242:Generated_Source\PSoC5/MDIO_Interface.c **** * Parameters:
 243:Generated_Source\PSoC5/MDIO_Interface.c **** *  None.
 244:Generated_Source\PSoC5/MDIO_Interface.c **** *
 245:Generated_Source\PSoC5/MDIO_Interface.c **** * Return:
 246:Generated_Source\PSoC5/MDIO_Interface.c **** *  None.
 247:Generated_Source\PSoC5/MDIO_Interface.c **** *
 248:Generated_Source\PSoC5/MDIO_Interface.c **** * Reentrant:
 249:Generated_Source\PSoC5/MDIO_Interface.c **** *  No.
 250:Generated_Source\PSoC5/MDIO_Interface.c **** *
 251:Generated_Source\PSoC5/MDIO_Interface.c **** *******************************************************************************/
 252:Generated_Source\PSoC5/MDIO_Interface.c **** void MDIO_Interface_Stop(void) 
 253:Generated_Source\PSoC5/MDIO_Interface.c **** {
 254:Generated_Source\PSoC5/MDIO_Interface.c ****     uint8 enableInterrupts;
 255:Generated_Source\PSoC5/MDIO_Interface.c **** 
 256:Generated_Source\PSoC5/MDIO_Interface.c ****     MDIO_Interface_CONTROL_REG &= (uint8) ~MDIO_Interface_EN;
 257:Generated_Source\PSoC5/MDIO_Interface.c **** 
 258:Generated_Source\PSoC5/MDIO_Interface.c ****     /* Disable interrupt terminal */
 259:Generated_Source\PSoC5/MDIO_Interface.c ****     MDIO_Interface_DisableInt();
 260:Generated_Source\PSoC5/MDIO_Interface.c **** 
ARM GAS  C:\Users\kopusov.FT\AppData\Local\Temp\ccT1QhKH.s 			page 6


 261:Generated_Source\PSoC5/MDIO_Interface.c ****     /* Disable Address analyzer DMAs */
 262:Generated_Source\PSoC5/MDIO_Interface.c ****     #if(MDIO_Interface_ADVANCED_MODE)
 263:Generated_Source\PSoC5/MDIO_Interface.c ****         MDIO_Interface_DmaDisable();
 264:Generated_Source\PSoC5/MDIO_Interface.c ****     #endif /* MDIO_Interface_ADVANCED_MODE */
 265:Generated_Source\PSoC5/MDIO_Interface.c **** 
 266:Generated_Source\PSoC5/MDIO_Interface.c ****     enableInterrupts = CyEnterCriticalSection();
 267:Generated_Source\PSoC5/MDIO_Interface.c ****     /* Disable Bit counter */
 268:Generated_Source\PSoC5/MDIO_Interface.c ****     MDIO_Interface_BCNT_AUX_CTL_REG  &= (uint8) ~MDIO_Interface_BCNT_EN;
 269:Generated_Source\PSoC5/MDIO_Interface.c **** 
 270:Generated_Source\PSoC5/MDIO_Interface.c ****     #if(MDIO_Interface_ADVANCED_MODE)
 271:Generated_Source\PSoC5/MDIO_Interface.c ****         /* Clear start and end address FIFO buffers */
 272:Generated_Source\PSoC5/MDIO_Interface.c ****         MDIO_Interface_AC_AUX_CTL0_REG |= MDIO_Interface_FX_CLEAR;
 273:Generated_Source\PSoC5/MDIO_Interface.c ****         MDIO_Interface_AC_AUX_CTL0_REG &= (uint8) ~MDIO_Interface_FX_CLEAR;
 274:Generated_Source\PSoC5/MDIO_Interface.c ****         MDIO_Interface_AC_AUX_CTL1_REG |= MDIO_Interface_FX_CLEAR;
 275:Generated_Source\PSoC5/MDIO_Interface.c ****         MDIO_Interface_AC_AUX_CTL1_REG &= (uint8) ~MDIO_Interface_FX_CLEAR;
 276:Generated_Source\PSoC5/MDIO_Interface.c ****     #endif /* MDIO_Interface_ADVANCED_MODE */
 277:Generated_Source\PSoC5/MDIO_Interface.c **** 
 278:Generated_Source\PSoC5/MDIO_Interface.c ****     /* Clear Write FIFO buffer */
 279:Generated_Source\PSoC5/MDIO_Interface.c ****     MDIO_Interface_FP_AUX_CTL0_REG |= MDIO_Interface_F1_CLEAR;
 280:Generated_Source\PSoC5/MDIO_Interface.c ****     MDIO_Interface_FP_AUX_CTL0_REG &= (uint8) ~MDIO_Interface_F1_CLEAR;
 281:Generated_Source\PSoC5/MDIO_Interface.c ****     MDIO_Interface_FP_AUX_CTL1_REG |= MDIO_Interface_F1_CLEAR;
 282:Generated_Source\PSoC5/MDIO_Interface.c ****     MDIO_Interface_FP_AUX_CTL1_REG &= (uint8) ~MDIO_Interface_F1_CLEAR;
 283:Generated_Source\PSoC5/MDIO_Interface.c ****     CyExitCriticalSection(enableInterrupts);
 284:Generated_Source\PSoC5/MDIO_Interface.c **** }
 285:Generated_Source\PSoC5/MDIO_Interface.c **** 
 286:Generated_Source\PSoC5/MDIO_Interface.c **** 
 287:Generated_Source\PSoC5/MDIO_Interface.c **** /*******************************************************************************
 288:Generated_Source\PSoC5/MDIO_Interface.c **** * Function Name: MDIO_Interface_EnableInt
 289:Generated_Source\PSoC5/MDIO_Interface.c **** ********************************************************************************
 290:Generated_Source\PSoC5/MDIO_Interface.c **** *
 291:Generated_Source\PSoC5/MDIO_Interface.c **** * Summary:
 292:Generated_Source\PSoC5/MDIO_Interface.c **** *  Enables the terminal output interrupt.
 293:Generated_Source\PSoC5/MDIO_Interface.c **** *
 294:Generated_Source\PSoC5/MDIO_Interface.c **** * Parameters:
 295:Generated_Source\PSoC5/MDIO_Interface.c **** *  None.
 296:Generated_Source\PSoC5/MDIO_Interface.c **** *
 297:Generated_Source\PSoC5/MDIO_Interface.c **** * Return:
 298:Generated_Source\PSoC5/MDIO_Interface.c **** *  None.
 299:Generated_Source\PSoC5/MDIO_Interface.c **** *
 300:Generated_Source\PSoC5/MDIO_Interface.c **** *******************************************************************************/
 301:Generated_Source\PSoC5/MDIO_Interface.c **** void MDIO_Interface_EnableInt(void) 
 302:Generated_Source\PSoC5/MDIO_Interface.c **** {
 303:Generated_Source\PSoC5/MDIO_Interface.c ****     MDIO_Interface_CONTROL_REG |= MDIO_Interface_INT_EN;
 304:Generated_Source\PSoC5/MDIO_Interface.c **** }
 305:Generated_Source\PSoC5/MDIO_Interface.c **** 
 306:Generated_Source\PSoC5/MDIO_Interface.c **** 
 307:Generated_Source\PSoC5/MDIO_Interface.c **** /*******************************************************************************
 308:Generated_Source\PSoC5/MDIO_Interface.c **** * Function Name: MDIO_Interface_DisableInt
 309:Generated_Source\PSoC5/MDIO_Interface.c **** ********************************************************************************
 310:Generated_Source\PSoC5/MDIO_Interface.c **** *
 311:Generated_Source\PSoC5/MDIO_Interface.c **** * Summary:
 312:Generated_Source\PSoC5/MDIO_Interface.c **** *  Enables the terminal output interrupt.
 313:Generated_Source\PSoC5/MDIO_Interface.c **** *
 314:Generated_Source\PSoC5/MDIO_Interface.c **** * Parameters:
 315:Generated_Source\PSoC5/MDIO_Interface.c **** *  None.
 316:Generated_Source\PSoC5/MDIO_Interface.c **** *
 317:Generated_Source\PSoC5/MDIO_Interface.c **** * Return:
ARM GAS  C:\Users\kopusov.FT\AppData\Local\Temp\ccT1QhKH.s 			page 7


 318:Generated_Source\PSoC5/MDIO_Interface.c **** *  None.
 319:Generated_Source\PSoC5/MDIO_Interface.c **** *
 320:Generated_Source\PSoC5/MDIO_Interface.c **** *******************************************************************************/
 321:Generated_Source\PSoC5/MDIO_Interface.c **** void MDIO_Interface_DisableInt(void) 
 322:Generated_Source\PSoC5/MDIO_Interface.c **** {
 323:Generated_Source\PSoC5/MDIO_Interface.c ****     MDIO_Interface_CONTROL_REG &= (uint8) ~MDIO_Interface_INT_EN;
 324:Generated_Source\PSoC5/MDIO_Interface.c **** }
 325:Generated_Source\PSoC5/MDIO_Interface.c **** 
 326:Generated_Source\PSoC5/MDIO_Interface.c **** 
 327:Generated_Source\PSoC5/MDIO_Interface.c **** /*******************************************************************************
 328:Generated_Source\PSoC5/MDIO_Interface.c **** * Function Name: MDIO_Interface_SetDevAddress
 329:Generated_Source\PSoC5/MDIO_Interface.c **** ********************************************************************************
 330:Generated_Source\PSoC5/MDIO_Interface.c **** * Summary:
 331:Generated_Source\PSoC5/MDIO_Interface.c **** *  Sets the 5-bit device address for the MDIO slave.
 332:Generated_Source\PSoC5/MDIO_Interface.c **** *
 333:Generated_Source\PSoC5/MDIO_Interface.c **** * Parameters:
 334:Generated_Source\PSoC5/MDIO_Interface.c **** *  Byte containing the constant for the MDIO device address.
 335:Generated_Source\PSoC5/MDIO_Interface.c **** *   MDIO_Interface_PMA_PMD
 336:Generated_Source\PSoC5/MDIO_Interface.c **** *   MDIO_Interface_WIS
 337:Generated_Source\PSoC5/MDIO_Interface.c **** *   MDIO_Interface_PCS
 338:Generated_Source\PSoC5/MDIO_Interface.c **** *   MDIO_Interface_PHY_XS
 339:Generated_Source\PSoC5/MDIO_Interface.c **** *   MDIO_Interface_DTE_XS
 340:Generated_Source\PSoC5/MDIO_Interface.c **** *
 341:Generated_Source\PSoC5/MDIO_Interface.c **** * Return:
 342:Generated_Source\PSoC5/MDIO_Interface.c **** *  None.
 343:Generated_Source\PSoC5/MDIO_Interface.c **** *
 344:Generated_Source\PSoC5/MDIO_Interface.c **** ********************************************************************************/
 345:Generated_Source\PSoC5/MDIO_Interface.c **** void MDIO_Interface_SetDevAddress(uint8 devAddr) 
 346:Generated_Source\PSoC5/MDIO_Interface.c **** {
 347:Generated_Source\PSoC5/MDIO_Interface.c ****     /* Update the address pattern with the device address */
 348:Generated_Source\PSoC5/MDIO_Interface.c ****     CY_SET_REG16(MDIO_Interface_ADDR_PTRN_PTR, MDIO_Interface_ADDR_PATTERN |
 349:Generated_Source\PSoC5/MDIO_Interface.c ****                  (uint16)((uint16)MDIO_Interface_phyAddress << MDIO_Interface_PHYADDR_POS) | devAdd
 350:Generated_Source\PSoC5/MDIO_Interface.c ****     MDIO_Interface_devAddress = devAddr;
 351:Generated_Source\PSoC5/MDIO_Interface.c **** }
 352:Generated_Source\PSoC5/MDIO_Interface.c **** 
 353:Generated_Source\PSoC5/MDIO_Interface.c **** 
 354:Generated_Source\PSoC5/MDIO_Interface.c **** /*******************************************************************************
 355:Generated_Source\PSoC5/MDIO_Interface.c **** * Function Name: MDIO_Interface_SetPhyAddress
 356:Generated_Source\PSoC5/MDIO_Interface.c **** ********************************************************************************
 357:Generated_Source\PSoC5/MDIO_Interface.c **** * Summary:
 358:Generated_Source\PSoC5/MDIO_Interface.c **** *  Sets the 5-bit or 3-bit physical address for the MDIO slave device. When the
 359:Generated_Source\PSoC5/MDIO_Interface.c **** *  address is 3-bit, the 2 MSB bits of the physical address from an MDIO frame
 360:Generated_Source\PSoC5/MDIO_Interface.c **** *  are ignored.
 361:Generated_Source\PSoC5/MDIO_Interface.c **** *
 362:Generated_Source\PSoC5/MDIO_Interface.c **** * Parameters:
 363:Generated_Source\PSoC5/MDIO_Interface.c **** *  The physical address for the MDIO Slave.
 364:Generated_Source\PSoC5/MDIO_Interface.c **** *
 365:Generated_Source\PSoC5/MDIO_Interface.c **** * Return:
 366:Generated_Source\PSoC5/MDIO_Interface.c **** *  None.
 367:Generated_Source\PSoC5/MDIO_Interface.c **** *
 368:Generated_Source\PSoC5/MDIO_Interface.c **** ********************************************************************************/
 369:Generated_Source\PSoC5/MDIO_Interface.c **** void MDIO_Interface_SetPhyAddress(uint8 phyAddr) 
 370:Generated_Source\PSoC5/MDIO_Interface.c **** {
 371:Generated_Source\PSoC5/MDIO_Interface.c ****     phyAddr &= MDIO_Interface_PHYADDR_MASK;
 372:Generated_Source\PSoC5/MDIO_Interface.c **** 
 373:Generated_Source\PSoC5/MDIO_Interface.c ****     /* Update the address pattern with the physical address */
 374:Generated_Source\PSoC5/MDIO_Interface.c ****     CY_SET_REG16(MDIO_Interface_ADDR_PTRN_PTR, MDIO_Interface_ADDR_PATTERN |
ARM GAS  C:\Users\kopusov.FT\AppData\Local\Temp\ccT1QhKH.s 			page 8


 375:Generated_Source\PSoC5/MDIO_Interface.c ****                  (uint16)((uint16) phyAddr << MDIO_Interface_PHYADDR_POS) | MDIO_Interface_devAddre
 376:Generated_Source\PSoC5/MDIO_Interface.c **** 
 377:Generated_Source\PSoC5/MDIO_Interface.c ****     MDIO_Interface_phyAddress = phyAddr;
 378:Generated_Source\PSoC5/MDIO_Interface.c **** }
 379:Generated_Source\PSoC5/MDIO_Interface.c **** 
 380:Generated_Source\PSoC5/MDIO_Interface.c **** 
 381:Generated_Source\PSoC5/MDIO_Interface.c **** /*******************************************************************************
 382:Generated_Source\PSoC5/MDIO_Interface.c **** * Function Name: MDIO_Interface_UpdatePhyAddress
 383:Generated_Source\PSoC5/MDIO_Interface.c **** ********************************************************************************
 384:Generated_Source\PSoC5/MDIO_Interface.c **** * Summary:
 385:Generated_Source\PSoC5/MDIO_Interface.c **** *  Updates the physical address based on the current phy_addr[4:0] input.
 386:Generated_Source\PSoC5/MDIO_Interface.c **** *  If the physical address mode is configured to firmware, the physical address
 387:Generated_Source\PSoC5/MDIO_Interface.c **** *  is set equal to the default value from the customizer.
 388:Generated_Source\PSoC5/MDIO_Interface.c **** *
 389:Generated_Source\PSoC5/MDIO_Interface.c **** * Parameters:
 390:Generated_Source\PSoC5/MDIO_Interface.c **** *  None.
 391:Generated_Source\PSoC5/MDIO_Interface.c **** *
 392:Generated_Source\PSoC5/MDIO_Interface.c **** * Return:
 393:Generated_Source\PSoC5/MDIO_Interface.c **** *  None.
 394:Generated_Source\PSoC5/MDIO_Interface.c **** *
 395:Generated_Source\PSoC5/MDIO_Interface.c **** * Side Effects:
 396:Generated_Source\PSoC5/MDIO_Interface.c **** *  None.
 397:Generated_Source\PSoC5/MDIO_Interface.c **** *
 398:Generated_Source\PSoC5/MDIO_Interface.c **** ********************************************************************************/
 399:Generated_Source\PSoC5/MDIO_Interface.c **** void MDIO_Interface_UpdatePhyAddress(void) 
 400:Generated_Source\PSoC5/MDIO_Interface.c **** {
 401:Generated_Source\PSoC5/MDIO_Interface.c ****     #if(MDIO_Interface_PHYADDR_HARDWARE)
 402:Generated_Source\PSoC5/MDIO_Interface.c ****         MDIO_Interface_SetPhyAddress(MDIO_Interface_PHYADDR_REG);
 403:Generated_Source\PSoC5/MDIO_Interface.c ****     #else
 404:Generated_Source\PSoC5/MDIO_Interface.c ****         MDIO_Interface_SetPhyAddress(MDIO_Interface_INIT_PHYADDR);
 405:Generated_Source\PSoC5/MDIO_Interface.c ****     #endif /* MDIO_Interface_PHYADDR_HARDWARE */
 406:Generated_Source\PSoC5/MDIO_Interface.c **** }
 407:Generated_Source\PSoC5/MDIO_Interface.c **** 
 408:Generated_Source\PSoC5/MDIO_Interface.c **** #if (MDIO_Interface_BASIC_MODE)
 409:Generated_Source\PSoC5/MDIO_Interface.c **** 
 410:Generated_Source\PSoC5/MDIO_Interface.c **** 
 411:Generated_Source\PSoC5/MDIO_Interface.c ****     /***************************************************************************
 412:Generated_Source\PSoC5/MDIO_Interface.c ****     * Function Name: MDIO_Interface_PutData
 413:Generated_Source\PSoC5/MDIO_Interface.c ****     ****************************************************************************
 414:Generated_Source\PSoC5/MDIO_Interface.c ****     * Summary:
 415:Generated_Source\PSoC5/MDIO_Interface.c ****     *  Writes the given data in the internal FIFO, which will be transmitted to
 416:Generated_Source\PSoC5/MDIO_Interface.c ****     *  the host in the next frame.
 417:Generated_Source\PSoC5/MDIO_Interface.c ****     *
 418:Generated_Source\PSoC5/MDIO_Interface.c ****     * Parameters:
 419:Generated_Source\PSoC5/MDIO_Interface.c ****     *  Data to be transmitted.
 420:Generated_Source\PSoC5/MDIO_Interface.c ****     *
 421:Generated_Source\PSoC5/MDIO_Interface.c ****     * Return:
 422:Generated_Source\PSoC5/MDIO_Interface.c ****     *  None.
 423:Generated_Source\PSoC5/MDIO_Interface.c ****     *
 424:Generated_Source\PSoC5/MDIO_Interface.c ****     * Side Effects:
 425:Generated_Source\PSoC5/MDIO_Interface.c ****     *  None.
 426:Generated_Source\PSoC5/MDIO_Interface.c ****     *
 427:Generated_Source\PSoC5/MDIO_Interface.c ****     ****************************************************************************/
 428:Generated_Source\PSoC5/MDIO_Interface.c ****     void MDIO_Interface_PutData(uint16 regData) 
 429:Generated_Source\PSoC5/MDIO_Interface.c ****     {
 430:Generated_Source\PSoC5/MDIO_Interface.c ****         CY_SET_REG16(MDIO_Interface_FP_FIFO0_PTR, regData);
 431:Generated_Source\PSoC5/MDIO_Interface.c ****     }
ARM GAS  C:\Users\kopusov.FT\AppData\Local\Temp\ccT1QhKH.s 			page 9


 432:Generated_Source\PSoC5/MDIO_Interface.c **** 
 433:Generated_Source\PSoC5/MDIO_Interface.c **** 
 434:Generated_Source\PSoC5/MDIO_Interface.c ****     /***************************************************************************
 435:Generated_Source\PSoC5/MDIO_Interface.c ****     * Function Name: MDIO_Interface_ProcessFrame
 436:Generated_Source\PSoC5/MDIO_Interface.c ****     ****************************************************************************
 437:Generated_Source\PSoC5/MDIO_Interface.c ****     * Summary:
 438:Generated_Source\PSoC5/MDIO_Interface.c ****     *  Process and parse the the last frame received from the host.
 439:Generated_Source\PSoC5/MDIO_Interface.c ****     *
 440:Generated_Source\PSoC5/MDIO_Interface.c ****     * Parameters:
 441:Generated_Source\PSoC5/MDIO_Interface.c ****     *  opCode: operational code.
 442:Generated_Source\PSoC5/MDIO_Interface.c ****     *  regData: register data received.
 443:Generated_Source\PSoC5/MDIO_Interface.c ****     *
 444:Generated_Source\PSoC5/MDIO_Interface.c ****     * Return:
 445:Generated_Source\PSoC5/MDIO_Interface.c ****     *  None.
 446:Generated_Source\PSoC5/MDIO_Interface.c ****     *
 447:Generated_Source\PSoC5/MDIO_Interface.c ****     ****************************************************************************/
 448:Generated_Source\PSoC5/MDIO_Interface.c ****     void MDIO_Interface_ProcessFrame(uint8 * opCode, uint16 * regData)
 449:Generated_Source\PSoC5/MDIO_Interface.c ****                                                                      
 450:Generated_Source\PSoC5/MDIO_Interface.c ****     {
 451:Generated_Source\PSoC5/MDIO_Interface.c ****         uint16 controlBits;
 452:Generated_Source\PSoC5/MDIO_Interface.c **** 
 453:Generated_Source\PSoC5/MDIO_Interface.c ****         /* Get control bits */
 454:Generated_Source\PSoC5/MDIO_Interface.c ****         controlBits = CY_GET_REG16(MDIO_Interface_FP_FIFO1_PTR);
 455:Generated_Source\PSoC5/MDIO_Interface.c **** 
 456:Generated_Source\PSoC5/MDIO_Interface.c ****         /* Get data */
 457:Generated_Source\PSoC5/MDIO_Interface.c ****         *regData = CY_GET_REG16(MDIO_Interface_FP_FIFO1_PTR);
 458:Generated_Source\PSoC5/MDIO_Interface.c **** 
 459:Generated_Source\PSoC5/MDIO_Interface.c ****         /* Parse Control bits to obtain operation code */
 460:Generated_Source\PSoC5/MDIO_Interface.c ****         *opCode = (((uint8)(controlBits >> MDIO_Interface_OPCODE_POS)) & MDIO_Interface_OPCODE_MASK
 461:Generated_Source\PSoC5/MDIO_Interface.c ****     }
 462:Generated_Source\PSoC5/MDIO_Interface.c **** 
 463:Generated_Source\PSoC5/MDIO_Interface.c **** #endif /* MDIO_Interface_BASIC_MODE */
 464:Generated_Source\PSoC5/MDIO_Interface.c **** 
 465:Generated_Source\PSoC5/MDIO_Interface.c **** #if(MDIO_Interface_ADVANCED_MODE)
 466:Generated_Source\PSoC5/MDIO_Interface.c **** 
 467:Generated_Source\PSoC5/MDIO_Interface.c ****     /***************************************************************************
 468:Generated_Source\PSoC5/MDIO_Interface.c ****     * Function Name: MDIO_Interface_GetAddress
 469:Generated_Source\PSoC5/MDIO_Interface.c ****     ****************************************************************************
 470:Generated_Source\PSoC5/MDIO_Interface.c ****     * Summary:
 471:Generated_Source\PSoC5/MDIO_Interface.c ****     *  Returns the last address written by the MDIO host.
 472:Generated_Source\PSoC5/MDIO_Interface.c ****     *
 473:Generated_Source\PSoC5/MDIO_Interface.c ****     * Parameters:
 474:Generated_Source\PSoC5/MDIO_Interface.c ****     *  None.
 475:Generated_Source\PSoC5/MDIO_Interface.c ****     *
 476:Generated_Source\PSoC5/MDIO_Interface.c ****     * Return:
 477:Generated_Source\PSoC5/MDIO_Interface.c ****     *  16-bit address.
 478:Generated_Source\PSoC5/MDIO_Interface.c ****     *
 479:Generated_Source\PSoC5/MDIO_Interface.c ****     ***************************************************************************/
 480:Generated_Source\PSoC5/MDIO_Interface.c ****     uint16 MDIO_Interface_GetAddress(void)    
 481:Generated_Source\PSoC5/MDIO_Interface.c ****     {
 482:Generated_Source\PSoC5/MDIO_Interface.c ****         return(CY_GET_REG16(MDIO_Interface_LAST_ADDR_PTR));
 483:Generated_Source\PSoC5/MDIO_Interface.c ****     }
 484:Generated_Source\PSoC5/MDIO_Interface.c **** 
 485:Generated_Source\PSoC5/MDIO_Interface.c **** 
 486:Generated_Source\PSoC5/MDIO_Interface.c ****     /***************************************************************************
 487:Generated_Source\PSoC5/MDIO_Interface.c ****     * Function Name: MDIO_Interface_GetData
 488:Generated_Source\PSoC5/MDIO_Interface.c ****     ****************************************************************************
ARM GAS  C:\Users\kopusov.FT\AppData\Local\Temp\ccT1QhKH.s 			page 10


 489:Generated_Source\PSoC5/MDIO_Interface.c ****     * Summary:
 490:Generated_Source\PSoC5/MDIO_Interface.c ****     *  Returns numWords values starting from the given address. If any address
 491:Generated_Source\PSoC5/MDIO_Interface.c ****     *  does not belong to the allocated register space, it returns an error.
 492:Generated_Source\PSoC5/MDIO_Interface.c ****     *
 493:Generated_Source\PSoC5/MDIO_Interface.c ****     * Parameters:
 494:Generated_Source\PSoC5/MDIO_Interface.c ****     *  address : address to be accessed.
 495:Generated_Source\PSoC5/MDIO_Interface.c ****     *  regData : array with the read data.
 496:Generated_Source\PSoC5/MDIO_Interface.c ****     *  numWords: number of words to be read.
 497:Generated_Source\PSoC5/MDIO_Interface.c ****     *
 498:Generated_Source\PSoC5/MDIO_Interface.c ****     * Return:
 499:Generated_Source\PSoC5/MDIO_Interface.c ****     *  CYRET_SUCCESS  : Operation is successful.
 500:Generated_Source\PSoC5/MDIO_Interface.c ****     *  CYRET_BAD_PARAM: One or more invalid parameters.
 501:Generated_Source\PSoC5/MDIO_Interface.c ****     *  CYRET_TIMEOUT  : Operation timed out.
 502:Generated_Source\PSoC5/MDIO_Interface.c ****     *
 503:Generated_Source\PSoC5/MDIO_Interface.c ****     * Side Effects:
 504:Generated_Source\PSoC5/MDIO_Interface.c ****     *  The word count of zero will be interpreted as a request for indefinite
 505:Generated_Source\PSoC5/MDIO_Interface.c ****     *  transfer.
 506:Generated_Source\PSoC5/MDIO_Interface.c ****     *
 507:Generated_Source\PSoC5/MDIO_Interface.c ****     ****************************************************************************/
 508:Generated_Source\PSoC5/MDIO_Interface.c ****     uint8 MDIO_Interface_GetData(uint16 address, const uint16 * regData, uint16 numWords)
 509:Generated_Source\PSoC5/MDIO_Interface.c ****                                                             
 510:Generated_Source\PSoC5/MDIO_Interface.c ****     {
 511:Generated_Source\PSoC5/MDIO_Interface.c ****         uint8  result = CYRET_BAD_PARAM;
 512:Generated_Source\PSoC5/MDIO_Interface.c ****         uint8  i;
 513:Generated_Source\PSoC5/MDIO_Interface.c ****         uint16 idx;
 514:Generated_Source\PSoC5/MDIO_Interface.c ****         uint32 memAddr;
 515:Generated_Source\PSoC5/MDIO_Interface.c **** 
 516:Generated_Source\PSoC5/MDIO_Interface.c ****         for(i = 0u; (i < MDIO_Interface_NUMBER_OF_PAGES) && (result != CYRET_SUCCESS); i++)
 517:Generated_Source\PSoC5/MDIO_Interface.c ****         {
 518:Generated_Source\PSoC5/MDIO_Interface.c ****             /* Check if address belongs to one of register spaces */
 519:Generated_Source\PSoC5/MDIO_Interface.c ****             if((address >= MDIO_Interface_pageStartAddr[i]) && (address <= MDIO_Interface_pageEndAd
 520:Generated_Source\PSoC5/MDIO_Interface.c ****             {
 521:Generated_Source\PSoC5/MDIO_Interface.c ****                 /* Check whether there is enough data to be read */
 522:Generated_Source\PSoC5/MDIO_Interface.c ****                 #if(!MDIO_Interface_ALL_PAGES_16BIT)
 523:Generated_Source\PSoC5/MDIO_Interface.c ****                     #if(!MDIO_Interface_ALL_PAGES_8BIT)
 524:Generated_Source\PSoC5/MDIO_Interface.c ****                     if(MDIO_Interface_REG_SPACE_IS_8BIT(i))
 525:Generated_Source\PSoC5/MDIO_Interface.c ****                     #endif /* !MDIO_Interface_ALL_PAGES_8BIT */
 526:Generated_Source\PSoC5/MDIO_Interface.c ****                     {
 527:Generated_Source\PSoC5/MDIO_Interface.c ****                         numWords += numWords;
 528:Generated_Source\PSoC5/MDIO_Interface.c ****                     }
 529:Generated_Source\PSoC5/MDIO_Interface.c ****                 #endif /* !MDIO_Interface_ALL_PAGES_16BIT */
 530:Generated_Source\PSoC5/MDIO_Interface.c **** 
 531:Generated_Source\PSoC5/MDIO_Interface.c ****                 if(numWords <= ((MDIO_Interface_pageEndAddr[i] - address) + 1u))
 532:Generated_Source\PSoC5/MDIO_Interface.c ****                 {
 533:Generated_Source\PSoC5/MDIO_Interface.c ****                     idx = address - MDIO_Interface_pageStartAddr[i];
 534:Generated_Source\PSoC5/MDIO_Interface.c **** 
 535:Generated_Source\PSoC5/MDIO_Interface.c ****                     #if(!MDIO_Interface_ALL_PAGES_8BIT)
 536:Generated_Source\PSoC5/MDIO_Interface.c ****                         #if(!MDIO_Interface_ALL_PAGES_16BIT)
 537:Generated_Source\PSoC5/MDIO_Interface.c ****                         if(MDIO_Interface_REG_SPACE_IS_16BIT(i))
 538:Generated_Source\PSoC5/MDIO_Interface.c ****                         #endif /* !MDIO_Interface_ALL_PAGES_16BIT */
 539:Generated_Source\PSoC5/MDIO_Interface.c ****                         {
 540:Generated_Source\PSoC5/MDIO_Interface.c ****                             /* If 16-bit space is accessed */
 541:Generated_Source\PSoC5/MDIO_Interface.c ****                             idx += idx;
 542:Generated_Source\PSoC5/MDIO_Interface.c ****                             numWords += numWords; /* TD_SIZE is expected in bytes */
 543:Generated_Source\PSoC5/MDIO_Interface.c ****                         }
 544:Generated_Source\PSoC5/MDIO_Interface.c ****                     #endif /* !MDIO_Interface_ALL_PAGES_8BIT */
 545:Generated_Source\PSoC5/MDIO_Interface.c **** 
ARM GAS  C:\Users\kopusov.FT\AppData\Local\Temp\ccT1QhKH.s 			page 11


 546:Generated_Source\PSoC5/MDIO_Interface.c ****                     memAddr = MDIO_Interface_pageAddrList[i] + idx;
 547:Generated_Source\PSoC5/MDIO_Interface.c **** 
 548:Generated_Source\PSoC5/MDIO_Interface.c ****                     /* Configure DMA transfer. Return values are ignored because
 549:Generated_Source\PSoC5/MDIO_Interface.c ****                     * channel number and TD handle are allocated once during the
 550:Generated_Source\PSoC5/MDIO_Interface.c ****                     * component initialization procedure and do not change in run time.
 551:Generated_Source\PSoC5/MDIO_Interface.c ****                     */
 552:Generated_Source\PSoC5/MDIO_Interface.c ****                     MDIO_Interface_fwDMA1_Chan = MDIO_Interface_FwDMA1_DmaInitialize(
 553:Generated_Source\PSoC5/MDIO_Interface.c ****                         MDIO_Interface_FW_DMA_BYTES_PER_BURST, MDIO_Interface_FW_DMA_REQUEST_PER_BU
 554:Generated_Source\PSoC5/MDIO_Interface.c ****                         HI16(memAddr), HI16(CYDEV_SRAM_BASE));
 555:Generated_Source\PSoC5/MDIO_Interface.c ****                     (void) CyDmaTdSetConfiguration(MDIO_Interface_fwDMA1_TD[0u], numWords,
 556:Generated_Source\PSoC5/MDIO_Interface.c ****                         DMA_INVALID_TD, MDIO_Interface_FW_DMA1_CFG);
 557:Generated_Source\PSoC5/MDIO_Interface.c ****                     (void) CyDmaTdSetAddress(MDIO_Interface_fwDMA1_TD[0u], LO16(memAddr), LO16((uin
 558:Generated_Source\PSoC5/MDIO_Interface.c **** 
 559:Generated_Source\PSoC5/MDIO_Interface.c ****                     /* Clear DMA status in case if previous transfer failed */
 560:Generated_Source\PSoC5/MDIO_Interface.c ****                     MDIO_Interface_CLEAR_FW_DMA_STATUS;
 561:Generated_Source\PSoC5/MDIO_Interface.c **** 
 562:Generated_Source\PSoC5/MDIO_Interface.c ****                     /* Trigger DMA and wait for completion */
 563:Generated_Source\PSoC5/MDIO_Interface.c ****                     (void) CyDmaChSetRequest(MDIO_Interface_fwDMA1_Chan, CPU_REQ);
 564:Generated_Source\PSoC5/MDIO_Interface.c ****                     result = MDIO_Interface_DmaIsComplete(MDIO_Interface_FW_DMA1_MASK);
 565:Generated_Source\PSoC5/MDIO_Interface.c ****                 }
 566:Generated_Source\PSoC5/MDIO_Interface.c ****             }
 567:Generated_Source\PSoC5/MDIO_Interface.c ****         }
 568:Generated_Source\PSoC5/MDIO_Interface.c ****         return(result);
 569:Generated_Source\PSoC5/MDIO_Interface.c ****     }
 570:Generated_Source\PSoC5/MDIO_Interface.c **** 
 571:Generated_Source\PSoC5/MDIO_Interface.c ****     #if(!MDIO_Interface_ALL_PAGES_IN_FLASH)
 572:Generated_Source\PSoC5/MDIO_Interface.c **** 
 573:Generated_Source\PSoC5/MDIO_Interface.c ****         /***************************************************************************
 574:Generated_Source\PSoC5/MDIO_Interface.c ****         * Function Name: MDIO_Interface_SetData
 575:Generated_Source\PSoC5/MDIO_Interface.c ****         ****************************************************************************
 576:Generated_Source\PSoC5/MDIO_Interface.c ****         * Summary:
 577:Generated_Source\PSoC5/MDIO_Interface.c ****         *  Writes numWords values starting from the given address. If any address
 578:Generated_Source\PSoC5/MDIO_Interface.c ****         *  does not belong to the allocated register space, it returns an error.
 579:Generated_Source\PSoC5/MDIO_Interface.c ****         *
 580:Generated_Source\PSoC5/MDIO_Interface.c ****         * Parameters:
 581:Generated_Source\PSoC5/MDIO_Interface.c ****         *  address : address to be accessed.
 582:Generated_Source\PSoC5/MDIO_Interface.c ****         *  regData : array with the written data.
 583:Generated_Source\PSoC5/MDIO_Interface.c ****         *  numWords: number of words to be written.
 584:Generated_Source\PSoC5/MDIO_Interface.c ****         *
 585:Generated_Source\PSoC5/MDIO_Interface.c ****         * Return:
 586:Generated_Source\PSoC5/MDIO_Interface.c ****         *  CYRET_SUCCESS  : Operation is successful.
 587:Generated_Source\PSoC5/MDIO_Interface.c ****         *  CYRET_BAD_PARAM: One or more invalid parameters.
 588:Generated_Source\PSoC5/MDIO_Interface.c ****         *  CYRET_TIMEOUT  : Operation timed out.
 589:Generated_Source\PSoC5/MDIO_Interface.c ****         *
 590:Generated_Source\PSoC5/MDIO_Interface.c ****         * Side Effects:
 591:Generated_Source\PSoC5/MDIO_Interface.c ****         *  The word count of zero will be interpreted as a request for indefinite
 592:Generated_Source\PSoC5/MDIO_Interface.c ****         *  transfer.
 593:Generated_Source\PSoC5/MDIO_Interface.c ****         *
 594:Generated_Source\PSoC5/MDIO_Interface.c ****         ***************************************************************************/
 595:Generated_Source\PSoC5/MDIO_Interface.c ****         uint8 MDIO_Interface_SetData(uint16 address, const uint16 * regData, uint16 numWords)
 596:Generated_Source\PSoC5/MDIO_Interface.c ****                                                                 
 597:Generated_Source\PSoC5/MDIO_Interface.c ****         {
 598:Generated_Source\PSoC5/MDIO_Interface.c ****             uint8 result = CYRET_BAD_PARAM;
 599:Generated_Source\PSoC5/MDIO_Interface.c ****             uint8 i;
 600:Generated_Source\PSoC5/MDIO_Interface.c ****             uint16 idx;
 601:Generated_Source\PSoC5/MDIO_Interface.c ****             uint32 memAddr;
 602:Generated_Source\PSoC5/MDIO_Interface.c **** 
ARM GAS  C:\Users\kopusov.FT\AppData\Local\Temp\ccT1QhKH.s 			page 12


 603:Generated_Source\PSoC5/MDIO_Interface.c ****             for(i = 0u; (i < MDIO_Interface_NUMBER_OF_PAGES) && (result != CYRET_SUCCESS); i++)
 604:Generated_Source\PSoC5/MDIO_Interface.c ****             {
 605:Generated_Source\PSoC5/MDIO_Interface.c ****                 /* Check if address belongs to one of register spaces */
 606:Generated_Source\PSoC5/MDIO_Interface.c ****                 if((address >= MDIO_Interface_pageStartAddr[i]) && (address <= MDIO_Interface_pageE
 607:Generated_Source\PSoC5/MDIO_Interface.c ****                 {
 608:Generated_Source\PSoC5/MDIO_Interface.c ****                     #if(!MDIO_Interface_ALL_PAGES_IN_SRAM)
 609:Generated_Source\PSoC5/MDIO_Interface.c ****                     /* Check whether current space is writeable */
 610:Generated_Source\PSoC5/MDIO_Interface.c ****                     if(MDIO_Interface_REG_SPACE_IS_SRAM(i))
 611:Generated_Source\PSoC5/MDIO_Interface.c ****                     #endif /* !MDIO_Interface_ALL_PAGES_IN_SRAM */
 612:Generated_Source\PSoC5/MDIO_Interface.c ****                     {
 613:Generated_Source\PSoC5/MDIO_Interface.c ****                         /* Check whether there is enough space to be written */
 614:Generated_Source\PSoC5/MDIO_Interface.c ****                         #if(!MDIO_Interface_ALL_PAGES_16BIT)
 615:Generated_Source\PSoC5/MDIO_Interface.c ****                             #if(!MDIO_Interface_ALL_PAGES_8BIT)
 616:Generated_Source\PSoC5/MDIO_Interface.c ****                             if(MDIO_Interface_REG_SPACE_IS_8BIT(i))
 617:Generated_Source\PSoC5/MDIO_Interface.c ****                             #endif /* !MDIO_Interface_ALL_PAGES_8BIT */
 618:Generated_Source\PSoC5/MDIO_Interface.c ****                             {
 619:Generated_Source\PSoC5/MDIO_Interface.c ****                                 numWords += numWords;
 620:Generated_Source\PSoC5/MDIO_Interface.c ****                             }
 621:Generated_Source\PSoC5/MDIO_Interface.c ****                         #endif /* !MDIO_Interface_ALL_PAGES_16BIT */
 622:Generated_Source\PSoC5/MDIO_Interface.c **** 
 623:Generated_Source\PSoC5/MDIO_Interface.c ****                         if(numWords <= ((MDIO_Interface_pageEndAddr[i] - address) + 1u))
 624:Generated_Source\PSoC5/MDIO_Interface.c ****                         {
 625:Generated_Source\PSoC5/MDIO_Interface.c ****                             idx = address - MDIO_Interface_pageStartAddr[i];
 626:Generated_Source\PSoC5/MDIO_Interface.c **** 
 627:Generated_Source\PSoC5/MDIO_Interface.c ****                             #if(!MDIO_Interface_ALL_PAGES_8BIT)
 628:Generated_Source\PSoC5/MDIO_Interface.c ****                                 #if(!MDIO_Interface_ALL_PAGES_16BIT)
 629:Generated_Source\PSoC5/MDIO_Interface.c ****                                 if(MDIO_Interface_REG_SPACE_IS_16BIT(i))
 630:Generated_Source\PSoC5/MDIO_Interface.c ****                                 #endif /* !MDIO_Interface_ALL_PAGES_16BIT */
 631:Generated_Source\PSoC5/MDIO_Interface.c ****                                 {
 632:Generated_Source\PSoC5/MDIO_Interface.c ****                                     /* If a 16-bit space is accessed */
 633:Generated_Source\PSoC5/MDIO_Interface.c ****                                     idx += idx;
 634:Generated_Source\PSoC5/MDIO_Interface.c ****                                     numWords += numWords; /* TD_SIZE is expected in bytes */
 635:Generated_Source\PSoC5/MDIO_Interface.c ****                                 }
 636:Generated_Source\PSoC5/MDIO_Interface.c ****                             #endif /* !MDIO_Interface_ALL_PAGES_8BIT */
 637:Generated_Source\PSoC5/MDIO_Interface.c **** 
 638:Generated_Source\PSoC5/MDIO_Interface.c ****                             memAddr = MDIO_Interface_pageAddrList[i] + idx;
 639:Generated_Source\PSoC5/MDIO_Interface.c **** 
 640:Generated_Source\PSoC5/MDIO_Interface.c ****                             /* Configure DMA transfer. Return values are ignored because
 641:Generated_Source\PSoC5/MDIO_Interface.c ****                             * channel number and TD handle are allocated once during the
 642:Generated_Source\PSoC5/MDIO_Interface.c ****                             * component initialization procedure and do not change in run time.
 643:Generated_Source\PSoC5/MDIO_Interface.c ****                             */
 644:Generated_Source\PSoC5/MDIO_Interface.c ****                             MDIO_Interface_fwDMA1_Chan = MDIO_Interface_FwDMA1_DmaInitialize(
 645:Generated_Source\PSoC5/MDIO_Interface.c ****                                 MDIO_Interface_FW_DMA_BYTES_PER_BURST, MDIO_Interface_FW_DMA_REQUES
 646:Generated_Source\PSoC5/MDIO_Interface.c ****                                 HI16(CYDEV_SRAM_BASE), HI16(memAddr));
 647:Generated_Source\PSoC5/MDIO_Interface.c **** 
 648:Generated_Source\PSoC5/MDIO_Interface.c ****                             (void) CyDmaTdSetConfiguration(MDIO_Interface_fwDMA1_TD[0u], numWords,
 649:Generated_Source\PSoC5/MDIO_Interface.c ****                                 DMA_INVALID_TD, MDIO_Interface_FW_DMA1_CFG);
 650:Generated_Source\PSoC5/MDIO_Interface.c ****                             (void) CyDmaTdSetAddress(MDIO_Interface_fwDMA1_TD[0u], LO16((uint32)reg
 651:Generated_Source\PSoC5/MDIO_Interface.c ****                                                                                      LO16(memAddr))
 652:Generated_Source\PSoC5/MDIO_Interface.c **** 
 653:Generated_Source\PSoC5/MDIO_Interface.c ****                             /* Clear DMA status in case if previous transfer failed */
 654:Generated_Source\PSoC5/MDIO_Interface.c ****                             MDIO_Interface_CLEAR_FW_DMA_STATUS;
 655:Generated_Source\PSoC5/MDIO_Interface.c **** 
 656:Generated_Source\PSoC5/MDIO_Interface.c ****                             /* Trigger DMA and wait for completion */
 657:Generated_Source\PSoC5/MDIO_Interface.c ****                             (void) CyDmaChSetRequest(MDIO_Interface_fwDMA1_Chan, CPU_REQ);
 658:Generated_Source\PSoC5/MDIO_Interface.c ****                             result = MDIO_Interface_DmaIsComplete(MDIO_Interface_FW_DMA1_MASK);
 659:Generated_Source\PSoC5/MDIO_Interface.c ****                         }
ARM GAS  C:\Users\kopusov.FT\AppData\Local\Temp\ccT1QhKH.s 			page 13


 660:Generated_Source\PSoC5/MDIO_Interface.c ****                     }
 661:Generated_Source\PSoC5/MDIO_Interface.c ****                 }
 662:Generated_Source\PSoC5/MDIO_Interface.c ****             }
 663:Generated_Source\PSoC5/MDIO_Interface.c ****             return(result);
 664:Generated_Source\PSoC5/MDIO_Interface.c ****         }
 665:Generated_Source\PSoC5/MDIO_Interface.c **** 
 666:Generated_Source\PSoC5/MDIO_Interface.c **** 
 667:Generated_Source\PSoC5/MDIO_Interface.c ****         /***************************************************************************
 668:Generated_Source\PSoC5/MDIO_Interface.c ****         * Function Name: MDIO_Interface_SetBits
 669:Generated_Source\PSoC5/MDIO_Interface.c ****         ****************************************************************************
 670:Generated_Source\PSoC5/MDIO_Interface.c ****         * Summary:
 671:Generated_Source\PSoC5/MDIO_Interface.c ****         *  Set at the given address only the given bits. The operation should be an
 672:Generated_Source\PSoC5/MDIO_Interface.c ****         *  OR write.
 673:Generated_Source\PSoC5/MDIO_Interface.c ****         *
 674:Generated_Source\PSoC5/MDIO_Interface.c ****         * Parameters:
 675:Generated_Source\PSoC5/MDIO_Interface.c ****         *  address: address to be accessed.
 676:Generated_Source\PSoC5/MDIO_Interface.c ****         *  regBits: bits to be set.
 677:Generated_Source\PSoC5/MDIO_Interface.c ****         *
 678:Generated_Source\PSoC5/MDIO_Interface.c ****         * Return:
 679:Generated_Source\PSoC5/MDIO_Interface.c ****         *  CYRET_SUCCESS  : Operation is successful.
 680:Generated_Source\PSoC5/MDIO_Interface.c ****         *  CYRET_BAD_PARAM: One or more invalid parameters.
 681:Generated_Source\PSoC5/MDIO_Interface.c ****         *  CYRET_TIMEOUT  : Operation timed out.
 682:Generated_Source\PSoC5/MDIO_Interface.c ****         *
 683:Generated_Source\PSoC5/MDIO_Interface.c ****         ***************************************************************************/
 684:Generated_Source\PSoC5/MDIO_Interface.c ****         uint8 MDIO_Interface_SetBits(uint16 address, uint16 regBits) 
 685:Generated_Source\PSoC5/MDIO_Interface.c ****         {
 686:Generated_Source\PSoC5/MDIO_Interface.c ****             uint8  result = CYRET_BAD_PARAM;
 687:Generated_Source\PSoC5/MDIO_Interface.c ****             uint8  i;
 688:Generated_Source\PSoC5/MDIO_Interface.c ****             uint16 idx;
 689:Generated_Source\PSoC5/MDIO_Interface.c ****             uint32 memAddr;
 690:Generated_Source\PSoC5/MDIO_Interface.c ****             /* Assuming 16-bit register space by default */
 691:Generated_Source\PSoC5/MDIO_Interface.c ****             uint8  numWords = MDIO_Interface_NUM_OF_16BIT_REGS;
 692:Generated_Source\PSoC5/MDIO_Interface.c **** 
 693:Generated_Source\PSoC5/MDIO_Interface.c ****             for(i = 0u; (i < MDIO_Interface_NUMBER_OF_PAGES) && (result != CYRET_SUCCESS); i++)
 694:Generated_Source\PSoC5/MDIO_Interface.c ****             {
 695:Generated_Source\PSoC5/MDIO_Interface.c ****                 /* Check if address belongs to one of register spaces */
 696:Generated_Source\PSoC5/MDIO_Interface.c ****                 if((address >= MDIO_Interface_pageStartAddr[i]) && (address <= MDIO_Interface_pageE
 697:Generated_Source\PSoC5/MDIO_Interface.c ****                 {
 698:Generated_Source\PSoC5/MDIO_Interface.c ****                     #if(!MDIO_Interface_ALL_PAGES_IN_SRAM)
 699:Generated_Source\PSoC5/MDIO_Interface.c ****                     /* Check whether current space is writeable */
 700:Generated_Source\PSoC5/MDIO_Interface.c ****                     if(MDIO_Interface_REG_SPACE_IS_SRAM(i))
 701:Generated_Source\PSoC5/MDIO_Interface.c ****                     #endif /* !MDIO_Interface_ALL_PAGES_IN_SRAM */
 702:Generated_Source\PSoC5/MDIO_Interface.c ****                     {
 703:Generated_Source\PSoC5/MDIO_Interface.c ****                         /* Check whether there is enough space to be written */
 704:Generated_Source\PSoC5/MDIO_Interface.c ****                         #if(!MDIO_Interface_ALL_PAGES_16BIT)
 705:Generated_Source\PSoC5/MDIO_Interface.c ****                             #if(!MDIO_Interface_ALL_PAGES_8BIT)
 706:Generated_Source\PSoC5/MDIO_Interface.c ****                             if(MDIO_Interface_REG_SPACE_IS_8BIT(i))
 707:Generated_Source\PSoC5/MDIO_Interface.c ****                             #endif /* !MDIO_Interface_ALL_PAGES_8BIT */
 708:Generated_Source\PSoC5/MDIO_Interface.c ****                             {
 709:Generated_Source\PSoC5/MDIO_Interface.c ****                                 numWords = MDIO_Interface_NUM_OF_8BIT_REGS;
 710:Generated_Source\PSoC5/MDIO_Interface.c ****                             }
 711:Generated_Source\PSoC5/MDIO_Interface.c ****                         #endif /* !MDIO_Interface_ALL_PAGES_16BIT */
 712:Generated_Source\PSoC5/MDIO_Interface.c **** 
 713:Generated_Source\PSoC5/MDIO_Interface.c ****                         if(numWords <= ((MDIO_Interface_pageEndAddr[i] - address) + 1u))
 714:Generated_Source\PSoC5/MDIO_Interface.c ****                         {
 715:Generated_Source\PSoC5/MDIO_Interface.c ****                             idx = address - MDIO_Interface_pageStartAddr[i];
 716:Generated_Source\PSoC5/MDIO_Interface.c **** 
ARM GAS  C:\Users\kopusov.FT\AppData\Local\Temp\ccT1QhKH.s 			page 14


 717:Generated_Source\PSoC5/MDIO_Interface.c ****                             #if(!MDIO_Interface_ALL_PAGES_8BIT)
 718:Generated_Source\PSoC5/MDIO_Interface.c ****                                 #if(!MDIO_Interface_ALL_PAGES_16BIT)
 719:Generated_Source\PSoC5/MDIO_Interface.c ****                                 if(MDIO_Interface_REG_SPACE_IS_16BIT(i))
 720:Generated_Source\PSoC5/MDIO_Interface.c ****                                 #endif /* !MDIO_Interface_ALL_PAGES_16BIT */
 721:Generated_Source\PSoC5/MDIO_Interface.c ****                                 {
 722:Generated_Source\PSoC5/MDIO_Interface.c ****                                     /* If 16-bit space is accessed */
 723:Generated_Source\PSoC5/MDIO_Interface.c ****                                     idx += idx;
 724:Generated_Source\PSoC5/MDIO_Interface.c ****                                 }
 725:Generated_Source\PSoC5/MDIO_Interface.c ****                             #endif /* !MDIO_Interface_ALL_PAGES_8BIT */
 726:Generated_Source\PSoC5/MDIO_Interface.c **** 
 727:Generated_Source\PSoC5/MDIO_Interface.c ****                             memAddr = MDIO_Interface_pageAddrList[i] + idx;
 728:Generated_Source\PSoC5/MDIO_Interface.c **** 
 729:Generated_Source\PSoC5/MDIO_Interface.c ****                             /* Write bits to set to A1 reg of FwAlu datapath */
 730:Generated_Source\PSoC5/MDIO_Interface.c ****                             CY_SET_REG16(MDIO_Interface_REG_BITS_PTR, regBits);
 731:Generated_Source\PSoC5/MDIO_Interface.c **** 
 732:Generated_Source\PSoC5/MDIO_Interface.c ****                             /* Configure DMA transfer as follows:
 733:Generated_Source\PSoC5/MDIO_Interface.c ****                             * Two DMA channels, each channel uses one TD.
 734:Generated_Source\PSoC5/MDIO_Interface.c ****                             *  Ch1: from register memory to FwAlu;
 735:Generated_Source\PSoC5/MDIO_Interface.c ****                             *  Ch2: from FwAlu to register memory. Channel initialized
 736:Generated_Source\PSoC5/MDIO_Interface.c ****                             *       in DmaInit() API.
 737:Generated_Source\PSoC5/MDIO_Interface.c ****                             *
 738:Generated_Source\PSoC5/MDIO_Interface.c ****                             * Return values are ignored because channel number and
 739:Generated_Source\PSoC5/MDIO_Interface.c ****                             * TD handles are allocated once during the component
 740:Generated_Source\PSoC5/MDIO_Interface.c ****                             * initialization procedure and do not change in run time.
 741:Generated_Source\PSoC5/MDIO_Interface.c ****                             */
 742:Generated_Source\PSoC5/MDIO_Interface.c ****                             MDIO_Interface_fwDMA1_Chan = MDIO_Interface_FwDMA1_DmaInitialize(
 743:Generated_Source\PSoC5/MDIO_Interface.c ****                                 MDIO_Interface_FW_DMA_BYTES_PER_BURST, MDIO_Interface_FW_DMA_REQUES
 744:Generated_Source\PSoC5/MDIO_Interface.c ****                                 HI16(CYDEV_SRAM_BASE), HI16(CYDEV_PERIPH_BASE));
 745:Generated_Source\PSoC5/MDIO_Interface.c **** 
 746:Generated_Source\PSoC5/MDIO_Interface.c ****                             /* From register memory to FwAlu datapath */
 747:Generated_Source\PSoC5/MDIO_Interface.c ****                             (void) CyDmaTdSetAddress(MDIO_Interface_fwDMA1_TD[0u], LO16(memAddr),
 748:Generated_Source\PSoC5/MDIO_Interface.c ****                                 LO16((uint32)MDIO_Interface_REG_VAL_PTR));
 749:Generated_Source\PSoC5/MDIO_Interface.c **** 
 750:Generated_Source\PSoC5/MDIO_Interface.c ****                             /* Result of OR operation from FwAlu to register memory */
 751:Generated_Source\PSoC5/MDIO_Interface.c ****                             (void) CyDmaTdSetAddress(MDIO_Interface_fwDMA2_TD[0u],
 752:Generated_Source\PSoC5/MDIO_Interface.c ****                                 LO16((uint32)MDIO_Interface_REG_VAL_PTR), LO16(memAddr));
 753:Generated_Source\PSoC5/MDIO_Interface.c **** 
 754:Generated_Source\PSoC5/MDIO_Interface.c ****                             /* Configure fwDMA1_TD[0u]. fwDMA2_TD[0u] configured in DmaInit() API *
 755:Generated_Source\PSoC5/MDIO_Interface.c ****                             (void) CyDmaTdSetConfiguration(MDIO_Interface_fwDMA1_TD[0u],
 756:Generated_Source\PSoC5/MDIO_Interface.c ****                                 MDIO_Interface_FW_DMA_TD_SIZE, DMA_INVALID_TD,
 757:Generated_Source\PSoC5/MDIO_Interface.c ****                                 TD_INC_SRC_ADR | TD_SWAP_EN | MDIO_Interface_FwDMA1__TD_TERMOUT_EN)
 758:Generated_Source\PSoC5/MDIO_Interface.c **** 
 759:Generated_Source\PSoC5/MDIO_Interface.c ****                             /* Clear DMA status in case if previous transfer failed */
 760:Generated_Source\PSoC5/MDIO_Interface.c ****                             MDIO_Interface_CLEAR_FW_DMA_STATUS;
 761:Generated_Source\PSoC5/MDIO_Interface.c **** 
 762:Generated_Source\PSoC5/MDIO_Interface.c ****                             /* Trigger DMA and wait for completion */
 763:Generated_Source\PSoC5/MDIO_Interface.c ****                             MDIO_Interface_CONTROL_REG ^= MDIO_Interface_TRIG_DMA;
 764:Generated_Source\PSoC5/MDIO_Interface.c ****                             result = MDIO_Interface_DmaIsComplete(MDIO_Interface_FW_DMA2_MASK);
 765:Generated_Source\PSoC5/MDIO_Interface.c ****                         }
 766:Generated_Source\PSoC5/MDIO_Interface.c ****                     }
 767:Generated_Source\PSoC5/MDIO_Interface.c ****                 }
 768:Generated_Source\PSoC5/MDIO_Interface.c ****             }
 769:Generated_Source\PSoC5/MDIO_Interface.c ****             return(result);
 770:Generated_Source\PSoC5/MDIO_Interface.c ****         }
 771:Generated_Source\PSoC5/MDIO_Interface.c **** 
 772:Generated_Source\PSoC5/MDIO_Interface.c ****     #endif /* MDIO_Interface_ALL_PAGES_IN_FLASH */
 773:Generated_Source\PSoC5/MDIO_Interface.c **** 
ARM GAS  C:\Users\kopusov.FT\AppData\Local\Temp\ccT1QhKH.s 			page 15


 774:Generated_Source\PSoC5/MDIO_Interface.c **** 
 775:Generated_Source\PSoC5/MDIO_Interface.c ****     /***************************************************************************
 776:Generated_Source\PSoC5/MDIO_Interface.c ****     * Function Name: MDIO_Interface_GetConfiguration
 777:Generated_Source\PSoC5/MDIO_Interface.c ****     ****************************************************************************
 778:Generated_Source\PSoC5/MDIO_Interface.c ****     * Summary:
 779:Generated_Source\PSoC5/MDIO_Interface.c ****     *  Returns a pointer to the configuration array of the given regSpace.
 780:Generated_Source\PSoC5/MDIO_Interface.c ****     *
 781:Generated_Source\PSoC5/MDIO_Interface.c ****     * Parameters:
 782:Generated_Source\PSoC5/MDIO_Interface.c ****     *  uint8 regSpace: register space index.
 783:Generated_Source\PSoC5/MDIO_Interface.c ****     *
 784:Generated_Source\PSoC5/MDIO_Interface.c ****     * Return:
 785:Generated_Source\PSoC5/MDIO_Interface.c ****     *  Pointer to the configuration array if successful.
 786:Generated_Source\PSoC5/MDIO_Interface.c ****     *  NULL pointer if regSpace is invalid.
 787:Generated_Source\PSoC5/MDIO_Interface.c ****     *
 788:Generated_Source\PSoC5/MDIO_Interface.c ****     ***************************************************************************/
 789:Generated_Source\PSoC5/MDIO_Interface.c ****     uint8 * MDIO_Interface_GetConfiguration(uint8 regSpace)   
 790:Generated_Source\PSoC5/MDIO_Interface.c ****     {
 791:Generated_Source\PSoC5/MDIO_Interface.c ****         uint8 * config;
 792:Generated_Source\PSoC5/MDIO_Interface.c ****         config = NULL;
 793:Generated_Source\PSoC5/MDIO_Interface.c **** 
 794:Generated_Source\PSoC5/MDIO_Interface.c ****         if((regSpace > 0u) && (regSpace <= MDIO_Interface_NUMBER_OF_PAGES))
 795:Generated_Source\PSoC5/MDIO_Interface.c ****         {
 796:Generated_Source\PSoC5/MDIO_Interface.c ****             regSpace += regSpace;
 797:Generated_Source\PSoC5/MDIO_Interface.c ****             regSpace--;
 798:Generated_Source\PSoC5/MDIO_Interface.c ****             config = (uint8 *)MDIO_Interface_pageInfoList[regSpace];
 799:Generated_Source\PSoC5/MDIO_Interface.c ****         }
 800:Generated_Source\PSoC5/MDIO_Interface.c ****         return(config);
 801:Generated_Source\PSoC5/MDIO_Interface.c ****     }
 802:Generated_Source\PSoC5/MDIO_Interface.c **** 
 803:Generated_Source\PSoC5/MDIO_Interface.c **** 
 804:Generated_Source\PSoC5/MDIO_Interface.c ****     /***************************************************************************
 805:Generated_Source\PSoC5/MDIO_Interface.c ****     * Function Name: MDIO_Interface_DmaIsComplete
 806:Generated_Source\PSoC5/MDIO_Interface.c ****     ****************************************************************************
 807:Generated_Source\PSoC5/MDIO_Interface.c ****     *
 808:Generated_Source\PSoC5/MDIO_Interface.c ****     * Summary:
 809:Generated_Source\PSoC5/MDIO_Interface.c ****     *  Determines whether a specified DMA channel has completed the transfer.
 810:Generated_Source\PSoC5/MDIO_Interface.c ****     *
 811:Generated_Source\PSoC5/MDIO_Interface.c ****     * Parameters:
 812:Generated_Source\PSoC5/MDIO_Interface.c ****     *  channel: DMA channel to check.
 813:Generated_Source\PSoC5/MDIO_Interface.c ****     *
 814:Generated_Source\PSoC5/MDIO_Interface.c ****     * Return:
 815:Generated_Source\PSoC5/MDIO_Interface.c ****     *  CYRET_SUCCESS: transfer has completed.
 816:Generated_Source\PSoC5/MDIO_Interface.c ****     *  CYRET_TIMEOUT: transfer has not completed and 255 us timeout expired.
 817:Generated_Source\PSoC5/MDIO_Interface.c ****     *
 818:Generated_Source\PSoC5/MDIO_Interface.c ****     ***************************************************************************/
 819:Generated_Source\PSoC5/MDIO_Interface.c ****     static uint8 MDIO_Interface_DmaIsComplete(uint8 chMask)
 820:Generated_Source\PSoC5/MDIO_Interface.c ****     {
 821:Generated_Source\PSoC5/MDIO_Interface.c ****         uint8 timer;
 822:Generated_Source\PSoC5/MDIO_Interface.c **** 
 823:Generated_Source\PSoC5/MDIO_Interface.c ****         timer = MDIO_Interface_TIMEOUT_PERIOD;
 824:Generated_Source\PSoC5/MDIO_Interface.c **** 
 825:Generated_Source\PSoC5/MDIO_Interface.c ****         while(MDIO_Interface_DMA_ACTIVE(chMask) && (timer != 0u))
 826:Generated_Source\PSoC5/MDIO_Interface.c ****         {
 827:Generated_Source\PSoC5/MDIO_Interface.c ****             /* Channel is currently being serviced by DMAC and timeout period
 828:Generated_Source\PSoC5/MDIO_Interface.c ****             * is not elapsed.
 829:Generated_Source\PSoC5/MDIO_Interface.c ****             */
 830:Generated_Source\PSoC5/MDIO_Interface.c ****             timer--;
ARM GAS  C:\Users\kopusov.FT\AppData\Local\Temp\ccT1QhKH.s 			page 16


 831:Generated_Source\PSoC5/MDIO_Interface.c ****             CyDelayUs(1u);
 832:Generated_Source\PSoC5/MDIO_Interface.c ****         }
 833:Generated_Source\PSoC5/MDIO_Interface.c ****         return((timer != 0u) ? CYRET_SUCCESS : CYRET_TIMEOUT);
 834:Generated_Source\PSoC5/MDIO_Interface.c ****     }
 835:Generated_Source\PSoC5/MDIO_Interface.c **** 
 836:Generated_Source\PSoC5/MDIO_Interface.c **** 
 837:Generated_Source\PSoC5/MDIO_Interface.c ****     /***************************************************************************
 838:Generated_Source\PSoC5/MDIO_Interface.c ****     * Function Name: MDIO_Interface_DmaEnable
 839:Generated_Source\PSoC5/MDIO_Interface.c ****     ****************************************************************************
 840:Generated_Source\PSoC5/MDIO_Interface.c ****     *
 841:Generated_Source\PSoC5/MDIO_Interface.c ****     * Summary:
 842:Generated_Source\PSoC5/MDIO_Interface.c ****     *  Enables Address Analyzer DMAs.
 843:Generated_Source\PSoC5/MDIO_Interface.c ****     *
 844:Generated_Source\PSoC5/MDIO_Interface.c ****     * Parameters:
 845:Generated_Source\PSoC5/MDIO_Interface.c ****     *  None.
 846:Generated_Source\PSoC5/MDIO_Interface.c ****     *
 847:Generated_Source\PSoC5/MDIO_Interface.c ****     * Return:
 848:Generated_Source\PSoC5/MDIO_Interface.c ****     *  None.
 849:Generated_Source\PSoC5/MDIO_Interface.c ****     *
 850:Generated_Source\PSoC5/MDIO_Interface.c ****     * Reentrant:
 851:Generated_Source\PSoC5/MDIO_Interface.c ****     *  No.
 852:Generated_Source\PSoC5/MDIO_Interface.c ****     *
 853:Generated_Source\PSoC5/MDIO_Interface.c ****     ***************************************************************************/
 854:Generated_Source\PSoC5/MDIO_Interface.c ****     static void MDIO_Interface_DmaEnable(void)   
 855:Generated_Source\PSoC5/MDIO_Interface.c ****     {
  26              		.loc 1 855 0
  27              		.cfi_startproc
  28              		@ args = 0, pretend = 0, frame = 0
  29              		@ frame_needed = 0, uses_anonymous_args = 0
  30 0000 10B5     		push	{r4, lr}
  31              		.cfi_def_cfa_offset 8
  32              		.cfi_offset 4, -8
  33              		.cfi_offset 14, -4
 856:Generated_Source\PSoC5/MDIO_Interface.c ****         uint8 i;
 857:Generated_Source\PSoC5/MDIO_Interface.c **** 
 858:Generated_Source\PSoC5/MDIO_Interface.c ****         /* Set initial TDs and enable DMA channels */
 859:Generated_Source\PSoC5/MDIO_Interface.c ****         (void) CyDmaChSetInitialTd(MDIO_Interface_pageStartAddrDMA_Chan, MDIO_Interface_pageStartAd
  34              		.loc 1 859 0
  35 0002 1E4C     		ldr	r4, .L5
  36 0004 6078     		ldrb	r0, [r4, #1]	@ zero_extendqisi2
  37 0006 2178     		ldrb	r1, [r4]	@ zero_extendqisi2
  38 0008 FFF7FEFF 		bl	CyDmaChSetInitialTd
  39              	.LVL0:
 860:Generated_Source\PSoC5/MDIO_Interface.c ****         (void) CyDmaChSetInitialTd(MDIO_Interface_pageEndAddrDMA_Chan,   MDIO_Interface_pageEndAddr
  40              		.loc 1 860 0
  41 000c 6079     		ldrb	r0, [r4, #5]	@ zero_extendqisi2
  42 000e 2179     		ldrb	r1, [r4, #4]	@ zero_extendqisi2
  43 0010 FFF7FEFF 		bl	CyDmaChSetInitialTd
  44              	.LVL1:
 861:Generated_Source\PSoC5/MDIO_Interface.c ****         (void) CyDmaChSetInitialTd(MDIO_Interface_pageInfoDMA_Chan,      MDIO_Interface_pageInfoDMA
  45              		.loc 1 861 0
  46 0014 607A     		ldrb	r0, [r4, #9]	@ zero_extendqisi2
  47 0016 217A     		ldrb	r1, [r4, #8]	@ zero_extendqisi2
  48 0018 FFF7FEFF 		bl	CyDmaChSetInitialTd
  49              	.LVL2:
 862:Generated_Source\PSoC5/MDIO_Interface.c ****         (void) CyDmaChSetInitialTd(MDIO_Interface_regAddrDMA_Chan,       MDIO_Interface_regAddrDMA_
  50              		.loc 1 862 0
ARM GAS  C:\Users\kopusov.FT\AppData\Local\Temp\ccT1QhKH.s 			page 17


  51 001c E07C     		ldrb	r0, [r4, #19]	@ zero_extendqisi2
  52 001e 217B     		ldrb	r1, [r4, #12]	@ zero_extendqisi2
  53 0020 FFF7FEFF 		bl	CyDmaChSetInitialTd
  54              	.LVL3:
 863:Generated_Source\PSoC5/MDIO_Interface.c ****         (void) CyDmaChSetInitialTd(MDIO_Interface_rdDMA_Chan,            MDIO_Interface_rdDMA_TD[0u
  55              		.loc 1 863 0
  56 0024 607D     		ldrb	r0, [r4, #21]	@ zero_extendqisi2
  57 0026 217D     		ldrb	r1, [r4, #20]	@ zero_extendqisi2
  58 0028 FFF7FEFF 		bl	CyDmaChSetInitialTd
  59              	.LVL4:
 864:Generated_Source\PSoC5/MDIO_Interface.c ****         (void) CyDmaChSetInitialTd(MDIO_Interface_wrDMA_Chan,            MDIO_Interface_wrDMA_TD[0u
  60              		.loc 1 864 0
  61 002c 607E     		ldrb	r0, [r4, #25]	@ zero_extendqisi2
  62 002e 217E     		ldrb	r1, [r4, #24]	@ zero_extendqisi2
  63 0030 FFF7FEFF 		bl	CyDmaChSetInitialTd
  64              	.LVL5:
 865:Generated_Source\PSoC5/MDIO_Interface.c ****         (void) CyDmaChSetInitialTd(MDIO_Interface_cfgDMA1_Chan,          MDIO_Interface_cfgDMA1_TD[
  65              		.loc 1 865 0
  66 0034 607F     		ldrb	r0, [r4, #29]	@ zero_extendqisi2
  67 0036 217F     		ldrb	r1, [r4, #28]	@ zero_extendqisi2
  68 0038 FFF7FEFF 		bl	CyDmaChSetInitialTd
  69              	.LVL6:
 866:Generated_Source\PSoC5/MDIO_Interface.c ****         (void) CyDmaChSetInitialTd(MDIO_Interface_cfgDMA2_Chan,          MDIO_Interface_cfgDMA2_TD[
  70              		.loc 1 866 0
  71 003c 94F82200 		ldrb	r0, [r4, #34]	@ zero_extendqisi2
  72 0040 94F82010 		ldrb	r1, [r4, #32]	@ zero_extendqisi2
  73 0044 FFF7FEFF 		bl	CyDmaChSetInitialTd
  74              	.LVL7:
 867:Generated_Source\PSoC5/MDIO_Interface.c ****         (void) CyDmaChSetInitialTd(MDIO_Interface_fwDMA1_Chan,           MDIO_Interface_fwDMA1_TD[0
  75              		.loc 1 867 0
  76 0048 94F82500 		ldrb	r0, [r4, #37]	@ zero_extendqisi2
  77 004c 94F82410 		ldrb	r1, [r4, #36]	@ zero_extendqisi2
  78 0050 FFF7FEFF 		bl	CyDmaChSetInitialTd
  79              	.LVL8:
 868:Generated_Source\PSoC5/MDIO_Interface.c ****         (void) CyDmaChSetInitialTd(MDIO_Interface_fwDMA2_Chan,           MDIO_Interface_fwDMA2_TD[0
  80              		.loc 1 868 0
  81 0054 94F82900 		ldrb	r0, [r4, #41]	@ zero_extendqisi2
  82 0058 94F82810 		ldrb	r1, [r4, #40]	@ zero_extendqisi2
  83 005c FFF7FEFF 		bl	CyDmaChSetInitialTd
  84              	.LVL9:
 869:Generated_Source\PSoC5/MDIO_Interface.c **** 
 870:Generated_Source\PSoC5/MDIO_Interface.c ****         for(i = 0u; i < MDIO_Interface_NUMBER_OF_CHANNELS; i++)
  85              		.loc 1 870 0
  86 0060 0024     		movs	r4, #0
  87 0062 08E0     		b	.L2
  88              	.LVL10:
  89              	.L3:
 871:Generated_Source\PSoC5/MDIO_Interface.c ****         {
 872:Generated_Source\PSoC5/MDIO_Interface.c ****             (void) CyDmaChEnable(MDIO_Interface_dmaChannelList[i], 1u);
  90              		.loc 1 872 0 discriminator 3
  91 0064 054B     		ldr	r3, .L5
  92 0066 2344     		add	r3, r3, r4
  93 0068 93F82C00 		ldrb	r0, [r3, #44]	@ zero_extendqisi2
  94 006c 0121     		movs	r1, #1
  95 006e FFF7FEFF 		bl	CyDmaChEnable
  96              	.LVL11:
 870:Generated_Source\PSoC5/MDIO_Interface.c ****         {
ARM GAS  C:\Users\kopusov.FT\AppData\Local\Temp\ccT1QhKH.s 			page 18


  97              		.loc 1 870 0 discriminator 3
  98 0072 0134     		adds	r4, r4, #1
  99              	.LVL12:
 100 0074 E4B2     		uxtb	r4, r4
 101              	.LVL13:
 102              	.L2:
 870:Generated_Source\PSoC5/MDIO_Interface.c ****         {
 103              		.loc 1 870 0 is_stmt 0 discriminator 1
 104 0076 092C     		cmp	r4, #9
 105 0078 F4D9     		bls	.L3
 873:Generated_Source\PSoC5/MDIO_Interface.c ****         }
 874:Generated_Source\PSoC5/MDIO_Interface.c ****     }
 106              		.loc 1 874 0 is_stmt 1
 107 007a 10BD     		pop	{r4, pc}
 108              	.LVL14:
 109              	.L6:
 110              		.align	2
 111              	.L5:
 112 007c 00000000 		.word	.LANCHOR0
 113              		.cfi_endproc
 114              	.LFE15:
 115              		.size	MDIO_Interface_DmaEnable, .-MDIO_Interface_DmaEnable
 116              		.section	.text.MDIO_Interface_DmaInit,"ax",%progbits
 117              		.align	2
 118              		.thumb
 119              		.thumb_func
 120              		.type	MDIO_Interface_DmaInit, %function
 121              	MDIO_Interface_DmaInit:
 122              	.LFB17:
 875:Generated_Source\PSoC5/MDIO_Interface.c **** 
 876:Generated_Source\PSoC5/MDIO_Interface.c **** 
 877:Generated_Source\PSoC5/MDIO_Interface.c ****     /***************************************************************************
 878:Generated_Source\PSoC5/MDIO_Interface.c ****     * Function Name: MDIO_Interface_DmaDisable
 879:Generated_Source\PSoC5/MDIO_Interface.c ****     ****************************************************************************
 880:Generated_Source\PSoC5/MDIO_Interface.c ****     *
 881:Generated_Source\PSoC5/MDIO_Interface.c ****     * Summary:
 882:Generated_Source\PSoC5/MDIO_Interface.c ****     *  Disable Address Analyzer DMAs.
 883:Generated_Source\PSoC5/MDIO_Interface.c ****     *
 884:Generated_Source\PSoC5/MDIO_Interface.c ****     * Parameters:
 885:Generated_Source\PSoC5/MDIO_Interface.c ****     *  None.
 886:Generated_Source\PSoC5/MDIO_Interface.c ****     *
 887:Generated_Source\PSoC5/MDIO_Interface.c ****     * Return:
 888:Generated_Source\PSoC5/MDIO_Interface.c ****     *  None.
 889:Generated_Source\PSoC5/MDIO_Interface.c ****     *
 890:Generated_Source\PSoC5/MDIO_Interface.c ****     * Reentrant:
 891:Generated_Source\PSoC5/MDIO_Interface.c ****     *  No.
 892:Generated_Source\PSoC5/MDIO_Interface.c ****     *
 893:Generated_Source\PSoC5/MDIO_Interface.c ****     ***************************************************************************/
 894:Generated_Source\PSoC5/MDIO_Interface.c ****     static void MDIO_Interface_DmaDisable(void)   
 895:Generated_Source\PSoC5/MDIO_Interface.c ****     {
 896:Generated_Source\PSoC5/MDIO_Interface.c ****         uint8 i;
 897:Generated_Source\PSoC5/MDIO_Interface.c ****         uint8 channel;
 898:Generated_Source\PSoC5/MDIO_Interface.c **** 
 899:Generated_Source\PSoC5/MDIO_Interface.c ****         for(i = 0u; i < MDIO_Interface_NUMBER_OF_CHANNELS; i++)
 900:Generated_Source\PSoC5/MDIO_Interface.c ****         {
 901:Generated_Source\PSoC5/MDIO_Interface.c ****             channel = MDIO_Interface_dmaChannelList[i];
 902:Generated_Source\PSoC5/MDIO_Interface.c ****             (void) CyDmaChDisable(channel);
ARM GAS  C:\Users\kopusov.FT\AppData\Local\Temp\ccT1QhKH.s 			page 19


 903:Generated_Source\PSoC5/MDIO_Interface.c **** 
 904:Generated_Source\PSoC5/MDIO_Interface.c ****             /* Clear any potential DMA requests and reset TD pointers */
 905:Generated_Source\PSoC5/MDIO_Interface.c ****             while(0u != (CY_DMA_CH_STRUCT_PTR[channel].basic_status[0u] & CY_DMA_STATUS_TD_ACTIVE))
 906:Generated_Source\PSoC5/MDIO_Interface.c ****             {
 907:Generated_Source\PSoC5/MDIO_Interface.c ****                 ; /* Wait for to be cleared */
 908:Generated_Source\PSoC5/MDIO_Interface.c ****             }
 909:Generated_Source\PSoC5/MDIO_Interface.c **** 
 910:Generated_Source\PSoC5/MDIO_Interface.c ****             (void) CyDmaChSetRequest(channel, CY_DMA_CPU_TERM_CHAIN);
 911:Generated_Source\PSoC5/MDIO_Interface.c ****             (void) CyDmaChEnable    (channel, 1u);
 912:Generated_Source\PSoC5/MDIO_Interface.c **** 
 913:Generated_Source\PSoC5/MDIO_Interface.c ****             while(0u != (CY_DMA_CH_STRUCT_PTR[channel].basic_cfg[0u] & CY_DMA_STATUS_CHAIN_ACTIVE))
 914:Generated_Source\PSoC5/MDIO_Interface.c ****             {
 915:Generated_Source\PSoC5/MDIO_Interface.c ****                 ; /* Wait for to be cleared */
 916:Generated_Source\PSoC5/MDIO_Interface.c ****             }
 917:Generated_Source\PSoC5/MDIO_Interface.c ****         }
 918:Generated_Source\PSoC5/MDIO_Interface.c ****     }
 919:Generated_Source\PSoC5/MDIO_Interface.c **** 
 920:Generated_Source\PSoC5/MDIO_Interface.c **** 
 921:Generated_Source\PSoC5/MDIO_Interface.c ****     /***************************************************************************
 922:Generated_Source\PSoC5/MDIO_Interface.c ****     * Function Name: MDIO_Interface_DmaInit
 923:Generated_Source\PSoC5/MDIO_Interface.c ****     ****************************************************************************
 924:Generated_Source\PSoC5/MDIO_Interface.c ****     *
 925:Generated_Source\PSoC5/MDIO_Interface.c ****     * Summary:
 926:Generated_Source\PSoC5/MDIO_Interface.c ****     *  Inits Address Analyzer DMAs.
 927:Generated_Source\PSoC5/MDIO_Interface.c ****     *
 928:Generated_Source\PSoC5/MDIO_Interface.c ****     * Parameters:
 929:Generated_Source\PSoC5/MDIO_Interface.c ****     *  None.
 930:Generated_Source\PSoC5/MDIO_Interface.c ****     *
 931:Generated_Source\PSoC5/MDIO_Interface.c ****     * Return:
 932:Generated_Source\PSoC5/MDIO_Interface.c ****     *  None.
 933:Generated_Source\PSoC5/MDIO_Interface.c ****     *
 934:Generated_Source\PSoC5/MDIO_Interface.c ****     * Reentrant:
 935:Generated_Source\PSoC5/MDIO_Interface.c ****     *  No.
 936:Generated_Source\PSoC5/MDIO_Interface.c ****     *
 937:Generated_Source\PSoC5/MDIO_Interface.c ****     ***************************************************************************/
 938:Generated_Source\PSoC5/MDIO_Interface.c ****     static void MDIO_Interface_DmaInit(void)      
 939:Generated_Source\PSoC5/MDIO_Interface.c ****     {
 123              		.loc 1 939 0
 124              		.cfi_startproc
 125              		@ args = 0, pretend = 0, frame = 0
 126              		@ frame_needed = 0, uses_anonymous_args = 0
 127 0000 38B5     		push	{r3, r4, r5, lr}
 128              		.cfi_def_cfa_offset 16
 129              		.cfi_offset 3, -16
 130              		.cfi_offset 4, -12
 131              		.cfi_offset 5, -8
 132              		.cfi_offset 14, -4
 133              	.LVL15:
 940:Generated_Source\PSoC5/MDIO_Interface.c ****         uint8 idx;
 941:Generated_Source\PSoC5/MDIO_Interface.c ****         static uint32 MDIO_Interface_regConfig;
 942:Generated_Source\PSoC5/MDIO_Interface.c **** 
 943:Generated_Source\PSoC5/MDIO_Interface.c ****         /* For PSoC 3 the data is stored in the big endian ordering. However, the
 944:Generated_Source\PSoC5/MDIO_Interface.c ****         *  registers are laid out in the little endian order. The byte ordering must
 945:Generated_Source\PSoC5/MDIO_Interface.c ****         *  be considered when use a DMA to transfer between the memory and registers.
 946:Generated_Source\PSoC5/MDIO_Interface.c ****         *  The upper 16 bits of the address must be 0 for SRAM and CYDEV_FLS_BASE
 947:Generated_Source\PSoC5/MDIO_Interface.c ****         *  for Flash.
 948:Generated_Source\PSoC5/MDIO_Interface.c ****         */
ARM GAS  C:\Users\kopusov.FT\AppData\Local\Temp\ccT1QhKH.s 			page 20


 949:Generated_Source\PSoC5/MDIO_Interface.c ****         #if(CY_PSOC3)
 950:Generated_Source\PSoC5/MDIO_Interface.c ****             uint8 pageMask = 0x01u;
 951:Generated_Source\PSoC5/MDIO_Interface.c ****             for(idx = 0u; idx < MDIO_Interface_PAGE_INFO_SIZE; idx += 2u)
 952:Generated_Source\PSoC5/MDIO_Interface.c ****             {
 953:Generated_Source\PSoC5/MDIO_Interface.c ****                 MDIO_Interface_pageInfoList[idx] = (uint32)MDIO_Interface_pageInfoPtr[idx] &
 954:Generated_Source\PSoC5/MDIO_Interface.c ****                                                         MDIO_Interface_LO16_ADDR_MASK;
 955:Generated_Source\PSoC5/MDIO_Interface.c ****                 if(0u == (MDIO_Interface_PAGE_MEM_TYPE & pageMask))
 956:Generated_Source\PSoC5/MDIO_Interface.c ****                 {
 957:Generated_Source\PSoC5/MDIO_Interface.c ****                     MDIO_Interface_pageInfoList[idx] |= CYDEV_FLS_BASE;
 958:Generated_Source\PSoC5/MDIO_Interface.c ****                 }
 959:Generated_Source\PSoC5/MDIO_Interface.c ****                 MDIO_Interface_pageAddrList[idx>>1u] = MDIO_Interface_pageInfoList[idx];
 960:Generated_Source\PSoC5/MDIO_Interface.c ****                 MDIO_Interface_pageInfoList[idx] = CYSWAP_ENDIAN32(MDIO_Interface_pageInfoList[idx]
 961:Generated_Source\PSoC5/MDIO_Interface.c **** 
 962:Generated_Source\PSoC5/MDIO_Interface.c ****                 MDIO_Interface_pageInfoList[idx+1u] = (uint32)MDIO_Interface_pageInfoPtr[idx+1u] &
 963:Generated_Source\PSoC5/MDIO_Interface.c ****                                                         MDIO_Interface_LO16_ADDR_MASK;
 964:Generated_Source\PSoC5/MDIO_Interface.c ****                 if(0u == (MDIO_Interface_CFG_MEM_TYPE & pageMask))
 965:Generated_Source\PSoC5/MDIO_Interface.c ****                 {
 966:Generated_Source\PSoC5/MDIO_Interface.c ****                     MDIO_Interface_pageInfoList[idx+1u] |= CYDEV_FLS_BASE;
 967:Generated_Source\PSoC5/MDIO_Interface.c ****                 }
 968:Generated_Source\PSoC5/MDIO_Interface.c ****                 MDIO_Interface_pageInfoList[idx+1u] = CYSWAP_ENDIAN32(MDIO_Interface_pageInfoList[i
 969:Generated_Source\PSoC5/MDIO_Interface.c ****                 pageMask = (uint8)(pageMask << 1u);
 970:Generated_Source\PSoC5/MDIO_Interface.c ****             }
 971:Generated_Source\PSoC5/MDIO_Interface.c ****         #endif /* CY_PSOC3 */
 972:Generated_Source\PSoC5/MDIO_Interface.c **** 
 973:Generated_Source\PSoC5/MDIO_Interface.c ****         /* 0x1FFF8000-0x1FFFFFFF needs to use alias at 0x20008000-0x2000FFFF */
 974:Generated_Source\PSoC5/MDIO_Interface.c ****         #if(CY_PSOC5)
 975:Generated_Source\PSoC5/MDIO_Interface.c ****             for(idx = 0u; idx < MDIO_Interface_PAGE_INFO_SIZE; idx += 2u)
 134              		.loc 1 975 0
 135 0002 0023     		movs	r3, #0
 136 0004 2CE0     		b	.L8
 137              	.LVL16:
 138              	.L11:
 976:Generated_Source\PSoC5/MDIO_Interface.c ****             {
 977:Generated_Source\PSoC5/MDIO_Interface.c ****                 MDIO_Interface_pageInfoList[idx] = (uint32)MDIO_Interface_pageInfoPtr[idx];
 139              		.loc 1 977 0
 140 0006 1846     		mov	r0, r3
 141 0008 D54A     		ldr	r2, .L15
 142 000a 52F82320 		ldr	r2, [r2, r3, lsl #2]
 143 000e D549     		ldr	r1, .L15+4
 144 0010 01EB8301 		add	r1, r1, r3, lsl #2
 145 0014 8A63     		str	r2, [r1, #56]
 978:Generated_Source\PSoC5/MDIO_Interface.c ****                 if(MDIO_Interface_CPU_SRAM_BASE <= MDIO_Interface_pageInfoList[idx])
 146              		.loc 1 978 0
 147 0016 D449     		ldr	r1, .L15+8
 148 0018 8A42     		cmp	r2, r1
 149 001a 06D9     		bls	.L9
 979:Generated_Source\PSoC5/MDIO_Interface.c ****                 {
 980:Generated_Source\PSoC5/MDIO_Interface.c ****                     MDIO_Interface_pageInfoList[idx] &= MDIO_Interface_LO16_ADDR_MASK;
 150              		.loc 1 980 0
 151 001c 92B2     		uxth	r2, r2
 152 001e D149     		ldr	r1, .L15+4
 153 0020 01EB8301 		add	r1, r1, r3, lsl #2
 981:Generated_Source\PSoC5/MDIO_Interface.c ****                     MDIO_Interface_pageInfoList[idx] |= MDIO_Interface_DMA_SRAM_BASE;
 154              		.loc 1 981 0
 155 0024 42F00052 		orr	r2, r2, #536870912
 156 0028 8A63     		str	r2, [r1, #56]
 157              	.L9:
ARM GAS  C:\Users\kopusov.FT\AppData\Local\Temp\ccT1QhKH.s 			page 21


 982:Generated_Source\PSoC5/MDIO_Interface.c ****                 }
 983:Generated_Source\PSoC5/MDIO_Interface.c **** 
 984:Generated_Source\PSoC5/MDIO_Interface.c ****                 MDIO_Interface_pageAddrList[idx>>1u] = MDIO_Interface_pageInfoList[idx];
 158              		.loc 1 984 0
 159 002a 5908     		lsrs	r1, r3, #1
 160 002c CD4A     		ldr	r2, .L15+4
 161 002e 02EB8000 		add	r0, r2, r0, lsl #2
 162 0032 806B     		ldr	r0, [r0, #56]
 163 0034 02EB8101 		add	r1, r2, r1, lsl #2
 164 0038 8866     		str	r0, [r1, #104]
 985:Generated_Source\PSoC5/MDIO_Interface.c **** 
 986:Generated_Source\PSoC5/MDIO_Interface.c ****                 MDIO_Interface_pageInfoList[idx+1u] = (uint32)MDIO_Interface_pageInfoPtr[idx+1u];
 165              		.loc 1 986 0
 166 003a 581C     		adds	r0, r3, #1
 167 003c C849     		ldr	r1, .L15
 168 003e 51F82010 		ldr	r1, [r1, r0, lsl #2]
 169 0042 02EB8002 		add	r2, r2, r0, lsl #2
 170 0046 9163     		str	r1, [r2, #56]
 987:Generated_Source\PSoC5/MDIO_Interface.c ****                 if(MDIO_Interface_CPU_SRAM_BASE <= MDIO_Interface_pageInfoList[idx+1u])
 171              		.loc 1 987 0
 172 0048 C74A     		ldr	r2, .L15+8
 173 004a 9142     		cmp	r1, r2
 174 004c 06D9     		bls	.L10
 988:Generated_Source\PSoC5/MDIO_Interface.c ****                 {
 989:Generated_Source\PSoC5/MDIO_Interface.c ****                     MDIO_Interface_pageInfoList[idx+1u] &= MDIO_Interface_LO16_ADDR_MASK;
 175              		.loc 1 989 0
 176 004e 89B2     		uxth	r1, r1
 177 0050 C44A     		ldr	r2, .L15+4
 178 0052 02EB8000 		add	r0, r2, r0, lsl #2
 990:Generated_Source\PSoC5/MDIO_Interface.c ****                     MDIO_Interface_pageInfoList[idx+1u] |= MDIO_Interface_DMA_SRAM_BASE;
 179              		.loc 1 990 0
 180 0056 41F00051 		orr	r1, r1, #536870912
 181 005a 8163     		str	r1, [r0, #56]
 182              	.L10:
 975:Generated_Source\PSoC5/MDIO_Interface.c ****             {
 183              		.loc 1 975 0 discriminator 2
 184 005c 0233     		adds	r3, r3, #2
 185              	.LVL17:
 186 005e DBB2     		uxtb	r3, r3
 187              	.LVL18:
 188              	.L8:
 975:Generated_Source\PSoC5/MDIO_Interface.c ****             {
 189              		.loc 1 975 0 is_stmt 0 discriminator 1
 190 0060 0B2B     		cmp	r3, #11
 191 0062 D0D9     		bls	.L11
 991:Generated_Source\PSoC5/MDIO_Interface.c ****                 }
 992:Generated_Source\PSoC5/MDIO_Interface.c ****             }
 993:Generated_Source\PSoC5/MDIO_Interface.c ****         #endif /* CY_PSOC5 */
 994:Generated_Source\PSoC5/MDIO_Interface.c **** 
 995:Generated_Source\PSoC5/MDIO_Interface.c **** 
 996:Generated_Source\PSoC5/MDIO_Interface.c ****         /***********************************************************************
 997:Generated_Source\PSoC5/MDIO_Interface.c ****         *       Register space start and end address DMAs
 998:Generated_Source\PSoC5/MDIO_Interface.c ****         ***********************************************************************/
 999:Generated_Source\PSoC5/MDIO_Interface.c **** 
1000:Generated_Source\PSoC5/MDIO_Interface.c ****         /* Transfer register space start and end addresses from SRAM to UDB,
1001:Generated_Source\PSoC5/MDIO_Interface.c ****         *  two byte transfer, each transfer requires request.
1002:Generated_Source\PSoC5/MDIO_Interface.c ****         */
ARM GAS  C:\Users\kopusov.FT\AppData\Local\Temp\ccT1QhKH.s 			page 22


1003:Generated_Source\PSoC5/MDIO_Interface.c ****         MDIO_Interface_pageStartAddrDMA_Chan = MDIO_Interface_StartAddrDMA_DmaInitialize(
 192              		.loc 1 1003 0 is_stmt 1
 193 0064 0220     		movs	r0, #2
 194 0066 0121     		movs	r1, #1
 195 0068 41F6FF72 		movw	r2, #8191
 196 006c 4FF48043 		mov	r3, #16384
 197              	.LVL19:
 198 0070 FFF7FEFF 		bl	MDIO_Interface_StartAddrDMA_DmaInitialize
 199              	.LVL20:
 200 0074 BB4C     		ldr	r4, .L15+4
 201 0076 6070     		strb	r0, [r4, #1]
1004:Generated_Source\PSoC5/MDIO_Interface.c ****             MDIO_Interface_PAGE_ADDR_DMA_BYTES_PER_BURST, MDIO_Interface_PAGE_ADDR_DMA_REQUEST_PER_
1005:Generated_Source\PSoC5/MDIO_Interface.c ****             HI16(CYDEV_SRAM_BASE),   HI16(CYDEV_PERIPH_BASE));
1006:Generated_Source\PSoC5/MDIO_Interface.c **** 
1007:Generated_Source\PSoC5/MDIO_Interface.c ****         MDIO_Interface_pageEndAddrDMA_Chan   = MDIO_Interface_EndAddrDMA_DmaInitialize(
 202              		.loc 1 1007 0
 203 0078 0220     		movs	r0, #2
 204 007a 0121     		movs	r1, #1
 205 007c 41F6FF72 		movw	r2, #8191
 206 0080 4FF48043 		mov	r3, #16384
 207 0084 FFF7FEFF 		bl	MDIO_Interface_EndAddrDMA_DmaInitialize
 208              	.LVL21:
 209 0088 6071     		strb	r0, [r4, #5]
1008:Generated_Source\PSoC5/MDIO_Interface.c ****             MDIO_Interface_PAGE_ADDR_DMA_BYTES_PER_BURST, MDIO_Interface_PAGE_ADDR_DMA_REQUEST_PER_
1009:Generated_Source\PSoC5/MDIO_Interface.c ****             HI16(CYDEV_SRAM_BASE),   HI16(CYDEV_PERIPH_BASE));
1010:Generated_Source\PSoC5/MDIO_Interface.c **** 
1011:Generated_Source\PSoC5/MDIO_Interface.c ****         /* Update channel list with allocated channel numbers */
1012:Generated_Source\PSoC5/MDIO_Interface.c ****         MDIO_Interface_dmaChannelList[0u] = MDIO_Interface_pageStartAddrDMA_Chan;
 210              		.loc 1 1012 0
 211 008a 6378     		ldrb	r3, [r4, #1]	@ zero_extendqisi2
 212 008c 84F82C30 		strb	r3, [r4, #44]
1013:Generated_Source\PSoC5/MDIO_Interface.c ****         MDIO_Interface_dmaChannelList[1u] = MDIO_Interface_pageEndAddrDMA_Chan;
 213              		.loc 1 1013 0
 214 0090 84F82D00 		strb	r0, [r4, #45]
1014:Generated_Source\PSoC5/MDIO_Interface.c **** 
1015:Generated_Source\PSoC5/MDIO_Interface.c ****         MDIO_Interface_pageStartAddr_TD[0u] = CyDmaTdAllocate();
 215              		.loc 1 1015 0
 216 0094 FFF7FEFF 		bl	CyDmaTdAllocate
 217              	.LVL22:
 218 0098 2070     		strb	r0, [r4]
1016:Generated_Source\PSoC5/MDIO_Interface.c ****         MDIO_Interface_pageEndAddr_TD[0u]   = CyDmaTdAllocate();
 219              		.loc 1 1016 0
 220 009a FFF7FEFF 		bl	CyDmaTdAllocate
 221              	.LVL23:
 222 009e 2071     		strb	r0, [r4, #4]
1017:Generated_Source\PSoC5/MDIO_Interface.c **** 
1018:Generated_Source\PSoC5/MDIO_Interface.c ****         /* One TD looping on itself, increment source address, but not
1019:Generated_Source\PSoC5/MDIO_Interface.c ****         *  destination address.
1020:Generated_Source\PSoC5/MDIO_Interface.c ****         */
1021:Generated_Source\PSoC5/MDIO_Interface.c ****         (void) CyDmaTdSetConfiguration(MDIO_Interface_pageStartAddr_TD[0u], MDIO_Interface_PAGE_ADD
 223              		.loc 1 1021 0
 224 00a0 2278     		ldrb	r2, [r4]	@ zero_extendqisi2
 225 00a2 1046     		mov	r0, r2
 226 00a4 0C21     		movs	r1, #12
 227 00a6 0123     		movs	r3, #1
 228 00a8 FFF7FEFF 		bl	CyDmaTdSetConfiguration
 229              	.LVL24:
ARM GAS  C:\Users\kopusov.FT\AppData\Local\Temp\ccT1QhKH.s 			page 23


1022:Generated_Source\PSoC5/MDIO_Interface.c ****                                        MDIO_Interface_pageStartAddr_TD[0u], MDIO_Interface_PAGE_ADD
1023:Generated_Source\PSoC5/MDIO_Interface.c ****         (void) CyDmaTdSetConfiguration(MDIO_Interface_pageEndAddr_TD[0u],   MDIO_Interface_PAGE_ADD
 230              		.loc 1 1023 0
 231 00ac 2279     		ldrb	r2, [r4, #4]	@ zero_extendqisi2
 232 00ae 1046     		mov	r0, r2
 233 00b0 0C21     		movs	r1, #12
 234 00b2 0123     		movs	r3, #1
 235 00b4 FFF7FEFF 		bl	CyDmaTdSetConfiguration
 236              	.LVL25:
1024:Generated_Source\PSoC5/MDIO_Interface.c ****                                        MDIO_Interface_pageEndAddr_TD[0u],   MDIO_Interface_PAGE_ADD
1025:Generated_Source\PSoC5/MDIO_Interface.c **** 
1026:Generated_Source\PSoC5/MDIO_Interface.c ****         /* Move register space boundaries from regPageStartAddr and
1027:Generated_Source\PSoC5/MDIO_Interface.c ****         *  regPageEndAddr arrays in SRAM to address comparison block FIFO 0
1028:Generated_Source\PSoC5/MDIO_Interface.c ****         *  and FIFO 1 correspondingly.
1029:Generated_Source\PSoC5/MDIO_Interface.c ****         */
1030:Generated_Source\PSoC5/MDIO_Interface.c ****         (void) CyDmaTdSetAddress(MDIO_Interface_pageStartAddr_TD[0u], LO16((uint32)MDIO_Interface_p
 237              		.loc 1 1030 0
 238 00b8 AC4D     		ldr	r5, .L15+12
 239 00ba 2078     		ldrb	r0, [r4]	@ zero_extendqisi2
 240 00bc A9B2     		uxth	r1, r5
 241 00be 46F68402 		movw	r2, #26756
 242 00c2 FFF7FEFF 		bl	CyDmaTdSetAddress
 243              	.LVL26:
1031:Generated_Source\PSoC5/MDIO_Interface.c ****                                                                         LO16((uint32)MDIO_Interface
1032:Generated_Source\PSoC5/MDIO_Interface.c ****         (void) CyDmaTdSetAddress(MDIO_Interface_pageEndAddr_TD[0u],   LO16((uint32)MDIO_Interface_p
 244              		.loc 1 1032 0
 245 00c6 05F10C01 		add	r1, r5, #12
 246 00ca 2079     		ldrb	r0, [r4, #4]	@ zero_extendqisi2
 247 00cc 89B2     		uxth	r1, r1
 248 00ce 46F6A402 		movw	r2, #26788
 249 00d2 FFF7FEFF 		bl	CyDmaTdSetAddress
 250              	.LVL27:
1033:Generated_Source\PSoC5/MDIO_Interface.c ****                                                                         LO16((uint32)MDIO_Interface
1034:Generated_Source\PSoC5/MDIO_Interface.c **** 
1035:Generated_Source\PSoC5/MDIO_Interface.c **** 
1036:Generated_Source\PSoC5/MDIO_Interface.c ****         /***********************************************************************
1037:Generated_Source\PSoC5/MDIO_Interface.c ****         *                   Register page info DMA
1038:Generated_Source\PSoC5/MDIO_Interface.c ****         ***********************************************************************/
1039:Generated_Source\PSoC5/MDIO_Interface.c **** 
1040:Generated_Source\PSoC5/MDIO_Interface.c ****         /* Transfer the register page info from SRAM to the address calculation
1041:Generated_Source\PSoC5/MDIO_Interface.c ****         *  datapath, two byte transfer, all subsequent bursts after the first
1042:Generated_Source\PSoC5/MDIO_Interface.c ****         *  burst will be automatically requested and carried out.
1043:Generated_Source\PSoC5/MDIO_Interface.c ****         */
1044:Generated_Source\PSoC5/MDIO_Interface.c ****         MDIO_Interface_pageInfoDMA_Chan = MDIO_Interface_InfoDMA_DmaInitialize(
 251              		.loc 1 1044 0
 252 00d6 0220     		movs	r0, #2
 253 00d8 0021     		movs	r1, #0
 254 00da 41F6FF72 		movw	r2, #8191
 255 00de 4FF48043 		mov	r3, #16384
 256 00e2 FFF7FEFF 		bl	MDIO_Interface_InfoDMA_DmaInitialize
 257              	.LVL28:
 258 00e6 6072     		strb	r0, [r4, #9]
1045:Generated_Source\PSoC5/MDIO_Interface.c ****             MDIO_Interface_PAGE_INFO_DMA_BYTES_PER_BURST,  MDIO_Interface_PAGE_INFO_DMA_REQUEST_PER
1046:Generated_Source\PSoC5/MDIO_Interface.c ****             HI16(CYDEV_SRAM_BASE), HI16(CYDEV_PERIPH_BASE));
1047:Generated_Source\PSoC5/MDIO_Interface.c **** 
1048:Generated_Source\PSoC5/MDIO_Interface.c ****         /* Update channel list with allocated channel number */
1049:Generated_Source\PSoC5/MDIO_Interface.c ****         MDIO_Interface_dmaChannelList[2u] = MDIO_Interface_pageInfoDMA_Chan;
ARM GAS  C:\Users\kopusov.FT\AppData\Local\Temp\ccT1QhKH.s 			page 24


 259              		.loc 1 1049 0
 260 00e8 84F82E00 		strb	r0, [r4, #46]
1050:Generated_Source\PSoC5/MDIO_Interface.c **** 
1051:Generated_Source\PSoC5/MDIO_Interface.c ****         MDIO_Interface_pageInfoDMA_TD[0u] = CyDmaTdAllocate();
 261              		.loc 1 1051 0
 262 00ec FFF7FEFF 		bl	CyDmaTdAllocate
 263              	.LVL29:
 264 00f0 0246     		mov	r2, r0
 265 00f2 2072     		strb	r0, [r4, #8]
1052:Generated_Source\PSoC5/MDIO_Interface.c ****         /* One TD looping on itself, increment the source address, but not the
1053:Generated_Source\PSoC5/MDIO_Interface.c ****         *  destination address.
1054:Generated_Source\PSoC5/MDIO_Interface.c ****         */
1055:Generated_Source\PSoC5/MDIO_Interface.c ****         (void) CyDmaTdSetConfiguration(MDIO_Interface_pageInfoDMA_TD[0u], MDIO_Interface_PAGE_INFO_
 266              		.loc 1 1055 0
 267 00f4 0821     		movs	r1, #8
 268 00f6 0523     		movs	r3, #5
 269 00f8 FFF7FEFF 		bl	CyDmaTdSetConfiguration
 270              	.LVL30:
1056:Generated_Source\PSoC5/MDIO_Interface.c ****             MDIO_Interface_pageInfoDMA_TD[0u], TD_INC_SRC_ADR | MDIO_Interface_InfoDMA__TD_TERMOUT_
1057:Generated_Source\PSoC5/MDIO_Interface.c **** 
1058:Generated_Source\PSoC5/MDIO_Interface.c ****         /* Move the register page info from the SRAM to the address calculation
1059:Generated_Source\PSoC5/MDIO_Interface.c ****         *  datapath FIFO 0. The source address of this TD is set to 0, since it
1060:Generated_Source\PSoC5/MDIO_Interface.c ****         *  is configured later in run-time by the AddrDMA DMA.
1061:Generated_Source\PSoC5/MDIO_Interface.c ****         */
1062:Generated_Source\PSoC5/MDIO_Interface.c ****         (void) CyDmaTdSetAddress(MDIO_Interface_pageInfoDMA_TD[0u], LO16((uint32)0u),
 271              		.loc 1 1062 0
 272 00fc 207A     		ldrb	r0, [r4, #8]	@ zero_extendqisi2
 273 00fe 0021     		movs	r1, #0
 274 0100 46F68802 		movw	r2, #26760
 275 0104 FFF7FEFF 		bl	CyDmaTdSetAddress
 276              	.LVL31:
1063:Generated_Source\PSoC5/MDIO_Interface.c ****                                     LO16((uint32)MDIO_Interface_PAGE_INFO_PTR));
1064:Generated_Source\PSoC5/MDIO_Interface.c **** 
1065:Generated_Source\PSoC5/MDIO_Interface.c **** 
1066:Generated_Source\PSoC5/MDIO_Interface.c ****         /***********************************************************************
1067:Generated_Source\PSoC5/MDIO_Interface.c ****         *                          Read DMA
1068:Generated_Source\PSoC5/MDIO_Interface.c ****         ***********************************************************************/
1069:Generated_Source\PSoC5/MDIO_Interface.c **** 
1070:Generated_Source\PSoC5/MDIO_Interface.c ****         /* Transfer the register data from SRAM/Flash to FIFO 0 of the MDIO
1071:Generated_Source\PSoC5/MDIO_Interface.c ****         *  frame processing block. The source address is set to 0u, since it
1072:Generated_Source\PSoC5/MDIO_Interface.c ****         *  is updated in run-time by Address DMA.
1073:Generated_Source\PSoC5/MDIO_Interface.c ****         */
1074:Generated_Source\PSoC5/MDIO_Interface.c ****         MDIO_Interface_rdDMA_Chan = MDIO_Interface_RdDMA_DmaInitialize(
 277              		.loc 1 1074 0
 278 0108 0220     		movs	r0, #2
 279 010a 0121     		movs	r1, #1
 280 010c 0022     		movs	r2, #0
 281 010e 4FF48043 		mov	r3, #16384
 282 0112 FFF7FEFF 		bl	MDIO_Interface_RdDMA_DmaInitialize
 283              	.LVL32:
 284 0116 6075     		strb	r0, [r4, #21]
1075:Generated_Source\PSoC5/MDIO_Interface.c ****             MDIO_Interface_REG_MEM_DMA_BYTES_PER_BURST, MDIO_Interface_REG_MEM_DMA_REQUEST_PER_BURS
1076:Generated_Source\PSoC5/MDIO_Interface.c ****             0u, HI16(CYDEV_PERIPH_BASE));
1077:Generated_Source\PSoC5/MDIO_Interface.c **** 
1078:Generated_Source\PSoC5/MDIO_Interface.c ****         /* Update channel list with allocated channel number */
1079:Generated_Source\PSoC5/MDIO_Interface.c ****         MDIO_Interface_dmaChannelList[3u] = MDIO_Interface_rdDMA_Chan;
 285              		.loc 1 1079 0
ARM GAS  C:\Users\kopusov.FT\AppData\Local\Temp\ccT1QhKH.s 			page 25


 286 0118 84F82F00 		strb	r0, [r4, #47]
1080:Generated_Source\PSoC5/MDIO_Interface.c **** 
1081:Generated_Source\PSoC5/MDIO_Interface.c ****         MDIO_Interface_rdDMA_TD[0u] = CyDmaTdAllocate();
 287              		.loc 1 1081 0
 288 011c FFF7FEFF 		bl	CyDmaTdAllocate
 289              	.LVL33:
 290 0120 0246     		mov	r2, r0
 291 0122 2075     		strb	r0, [r4, #20]
1082:Generated_Source\PSoC5/MDIO_Interface.c **** 
1083:Generated_Source\PSoC5/MDIO_Interface.c ****         /* One TD looping on itself, increment source address, but not
1084:Generated_Source\PSoC5/MDIO_Interface.c ****         *  destination address.
1085:Generated_Source\PSoC5/MDIO_Interface.c ****         */
1086:Generated_Source\PSoC5/MDIO_Interface.c ****         (void) CyDmaTdSetConfiguration(MDIO_Interface_rdDMA_TD[0u], MDIO_Interface_REG_MEM_DMA_TD_S
 292              		.loc 1 1086 0
 293 0124 0221     		movs	r1, #2
 294 0126 8123     		movs	r3, #129
 295 0128 FFF7FEFF 		bl	CyDmaTdSetConfiguration
 296              	.LVL34:
1087:Generated_Source\PSoC5/MDIO_Interface.c ****                     MDIO_Interface_rdDMA_TD[0u], MDIO_Interface_RdDMA__TD_TERMOUT_EN | TD_INC_SRC_A
1088:Generated_Source\PSoC5/MDIO_Interface.c **** 
1089:Generated_Source\PSoC5/MDIO_Interface.c ****         /* Move the register data from the SRAM or Flash to the FIFO 0 register
1090:Generated_Source\PSoC5/MDIO_Interface.c ****         *  of the frame processing block. The source address of this TD is set
1091:Generated_Source\PSoC5/MDIO_Interface.c ****         *  to 0, since it is configured later in run-time by the AddrDMA DMA.
1092:Generated_Source\PSoC5/MDIO_Interface.c ****         */
1093:Generated_Source\PSoC5/MDIO_Interface.c ****         (void) CyDmaTdSetAddress(MDIO_Interface_rdDMA_TD[0u], LO16((uint32)0u),
 297              		.loc 1 1093 0
 298 012c 207D     		ldrb	r0, [r4, #20]	@ zero_extendqisi2
 299 012e 0021     		movs	r1, #0
 300 0130 46F69422 		movw	r2, #27284
 301 0134 FFF7FEFF 		bl	CyDmaTdSetAddress
 302              	.LVL35:
1094:Generated_Source\PSoC5/MDIO_Interface.c ****                                                                 LO16((uint32)MDIO_Interface_FP_FIFO
1095:Generated_Source\PSoC5/MDIO_Interface.c **** 
1096:Generated_Source\PSoC5/MDIO_Interface.c **** 
1097:Generated_Source\PSoC5/MDIO_Interface.c ****         /***********************************************************************
1098:Generated_Source\PSoC5/MDIO_Interface.c ****         *                           Write DMA
1099:Generated_Source\PSoC5/MDIO_Interface.c ****         ***********************************************************************/
1100:Generated_Source\PSoC5/MDIO_Interface.c **** 
1101:Generated_Source\PSoC5/MDIO_Interface.c ****         /* Transfer the register data from the FIFO 1 of the MDIO frame processing
1102:Generated_Source\PSoC5/MDIO_Interface.c ****         *  block to the register memory in SRAM.
1103:Generated_Source\PSoC5/MDIO_Interface.c ****         */
1104:Generated_Source\PSoC5/MDIO_Interface.c ****         MDIO_Interface_wrDMA_Chan = MDIO_Interface_WrDMA_DmaInitialize(
 303              		.loc 1 1104 0
 304 0138 0220     		movs	r0, #2
 305 013a 0121     		movs	r1, #1
 306 013c 4FF48042 		mov	r2, #16384
 307 0140 41F6FF73 		movw	r3, #8191
 308 0144 FFF7FEFF 		bl	MDIO_Interface_WrDMA_DmaInitialize
 309              	.LVL36:
 310 0148 6076     		strb	r0, [r4, #25]
1105:Generated_Source\PSoC5/MDIO_Interface.c ****             MDIO_Interface_REG_MEM_DMA_BYTES_PER_BURST, MDIO_Interface_REG_MEM_DMA_REQUEST_PER_BURS
1106:Generated_Source\PSoC5/MDIO_Interface.c ****             HI16(CYDEV_PERIPH_BASE), HI16(CYDEV_SRAM_BASE));
1107:Generated_Source\PSoC5/MDIO_Interface.c **** 
1108:Generated_Source\PSoC5/MDIO_Interface.c ****         /* Update channel list with allocated channel number */
1109:Generated_Source\PSoC5/MDIO_Interface.c ****         MDIO_Interface_dmaChannelList[4u] = MDIO_Interface_wrDMA_Chan;
 311              		.loc 1 1109 0
 312 014a 84F83000 		strb	r0, [r4, #48]
ARM GAS  C:\Users\kopusov.FT\AppData\Local\Temp\ccT1QhKH.s 			page 26


1110:Generated_Source\PSoC5/MDIO_Interface.c **** 
1111:Generated_Source\PSoC5/MDIO_Interface.c ****         MDIO_Interface_wrDMA_TD[0u] = CyDmaTdAllocate();
 313              		.loc 1 1111 0
 314 014e FFF7FEFF 		bl	CyDmaTdAllocate
 315              	.LVL37:
 316 0152 0246     		mov	r2, r0
 317 0154 2076     		strb	r0, [r4, #24]
1112:Generated_Source\PSoC5/MDIO_Interface.c **** 
1113:Generated_Source\PSoC5/MDIO_Interface.c ****         /* One TD looping on itself, increment destination address, but not
1114:Generated_Source\PSoC5/MDIO_Interface.c ****         *  source address.
1115:Generated_Source\PSoC5/MDIO_Interface.c ****         */
1116:Generated_Source\PSoC5/MDIO_Interface.c ****         (void) CyDmaTdSetConfiguration(MDIO_Interface_wrDMA_TD[0u], MDIO_Interface_REG_MEM_DMA_TD_S
 318              		.loc 1 1116 0
 319 0156 0221     		movs	r1, #2
 320 0158 8623     		movs	r3, #134
 321 015a FFF7FEFF 		bl	CyDmaTdSetConfiguration
 322              	.LVL38:
1117:Generated_Source\PSoC5/MDIO_Interface.c ****                     MDIO_Interface_wrDMA_TD[0u], MDIO_Interface_WrDMA__TD_TERMOUT_EN | TD_INC_DST_A
1118:Generated_Source\PSoC5/MDIO_Interface.c **** 
1119:Generated_Source\PSoC5/MDIO_Interface.c ****         /* Move the register data from the FIFO 1 register of the frame processing
1120:Generated_Source\PSoC5/MDIO_Interface.c ****         *  block to the register memory in SRAM. The destination address of this
1121:Generated_Source\PSoC5/MDIO_Interface.c ****         *  TD is set to 0, since it is configured later in run-time by the
1122:Generated_Source\PSoC5/MDIO_Interface.c ****         *  AddrDMA DMA.
1123:Generated_Source\PSoC5/MDIO_Interface.c ****         */
1124:Generated_Source\PSoC5/MDIO_Interface.c ****         (void) CyDmaTdSetAddress(MDIO_Interface_wrDMA_TD[0u], LO16((uint32)MDIO_Interface_FP_FIFO1_
 323              		.loc 1 1124 0
 324 015e 207E     		ldrb	r0, [r4, #24]	@ zero_extendqisi2
 325 0160 46F6B421 		movw	r1, #27316
 326 0164 0022     		movs	r2, #0
 327 0166 FFF7FEFF 		bl	CyDmaTdSetAddress
 328              	.LVL39:
1125:Generated_Source\PSoC5/MDIO_Interface.c ****                                                                 LO16((uint32)0u));
1126:Generated_Source\PSoC5/MDIO_Interface.c **** 
1127:Generated_Source\PSoC5/MDIO_Interface.c **** 
1128:Generated_Source\PSoC5/MDIO_Interface.c ****         /***********************************************************************
1129:Generated_Source\PSoC5/MDIO_Interface.c ****         *               Register configuration DMAs
1130:Generated_Source\PSoC5/MDIO_Interface.c ****         ***********************************************************************/
1131:Generated_Source\PSoC5/MDIO_Interface.c **** 
1132:Generated_Source\PSoC5/MDIO_Interface.c ****         /* CfgDMA1 transfers the register configuration data (mask and attributes)
1133:Generated_Source\PSoC5/MDIO_Interface.c ****         * from the configuration memory in Flash/SRAM to the fixed memory
1134:Generated_Source\PSoC5/MDIO_Interface.c ****         * location. Then the CfgDMA2 moves the configuration from this location
1135:Generated_Source\PSoC5/MDIO_Interface.c ****         * into the UDB array. The source address of CfgDMA1 is set to 0u, since
1136:Generated_Source\PSoC5/MDIO_Interface.c ****         * it is updated in run-time by Address DMA.
1137:Generated_Source\PSoC5/MDIO_Interface.c ****         */
1138:Generated_Source\PSoC5/MDIO_Interface.c ****         MDIO_Interface_cfgDMA1_Chan = MDIO_Interface_CfgDMA1_DmaInitialize(
 329              		.loc 1 1138 0
 330 016a 0420     		movs	r0, #4
 331 016c 0021     		movs	r1, #0
 332 016e 0A46     		mov	r2, r1
 333 0170 41F6FF73 		movw	r3, #8191
 334 0174 FFF7FEFF 		bl	MDIO_Interface_CfgDMA1_DmaInitialize
 335              	.LVL40:
 336 0178 6077     		strb	r0, [r4, #29]
1139:Generated_Source\PSoC5/MDIO_Interface.c ****             MDIO_Interface_CFG_DMA1_BYTES_PER_BURST, MDIO_Interface_CFG_DMA1_REQUEST_PER_BURST,
1140:Generated_Source\PSoC5/MDIO_Interface.c ****             HI16(0u), HI16(CYDEV_SRAM_BASE));
1141:Generated_Source\PSoC5/MDIO_Interface.c **** 
1142:Generated_Source\PSoC5/MDIO_Interface.c ****         MDIO_Interface_cfgDMA2_Chan = MDIO_Interface_CfgDMA2_DmaInitialize(
ARM GAS  C:\Users\kopusov.FT\AppData\Local\Temp\ccT1QhKH.s 			page 27


 337              		.loc 1 1142 0
 338 017a 0120     		movs	r0, #1
 339 017c 0021     		movs	r1, #0
 340 017e 41F6FF72 		movw	r2, #8191
 341 0182 4FF48043 		mov	r3, #16384
 342 0186 FFF7FEFF 		bl	MDIO_Interface_CfgDMA2_DmaInitialize
 343              	.LVL41:
 344 018a 84F82200 		strb	r0, [r4, #34]
1143:Generated_Source\PSoC5/MDIO_Interface.c ****             MDIO_Interface_CFG_DMA2_BYTES_PER_BURST, MDIO_Interface_CFG_DMA2_REQUEST_PER_BURST,
1144:Generated_Source\PSoC5/MDIO_Interface.c ****             HI16(CYDEV_SRAM_BASE), HI16(CYDEV_PERIPH_BASE));
1145:Generated_Source\PSoC5/MDIO_Interface.c **** 
1146:Generated_Source\PSoC5/MDIO_Interface.c ****         /* Update channel list with allocated channel number */
1147:Generated_Source\PSoC5/MDIO_Interface.c ****         MDIO_Interface_dmaChannelList[5u] = MDIO_Interface_cfgDMA1_Chan;
 345              		.loc 1 1147 0
 346 018e 637F     		ldrb	r3, [r4, #29]	@ zero_extendqisi2
 347 0190 84F83130 		strb	r3, [r4, #49]
1148:Generated_Source\PSoC5/MDIO_Interface.c ****         MDIO_Interface_dmaChannelList[6u] = MDIO_Interface_cfgDMA2_Chan;
 348              		.loc 1 1148 0
 349 0194 84F83200 		strb	r0, [r4, #50]
1149:Generated_Source\PSoC5/MDIO_Interface.c **** 
1150:Generated_Source\PSoC5/MDIO_Interface.c ****         MDIO_Interface_cfgDMA1_TD[0u] = CyDmaTdAllocate();
 350              		.loc 1 1150 0
 351 0198 FFF7FEFF 		bl	CyDmaTdAllocate
 352              	.LVL42:
 353 019c 2077     		strb	r0, [r4, #28]
1151:Generated_Source\PSoC5/MDIO_Interface.c ****         MDIO_Interface_cfgDMA2_TD[0u] = CyDmaTdAllocate();
 354              		.loc 1 1151 0
 355 019e FFF7FEFF 		bl	CyDmaTdAllocate
 356              	.LVL43:
 357 01a2 84F82000 		strb	r0, [r4, #32]
1152:Generated_Source\PSoC5/MDIO_Interface.c ****         MDIO_Interface_cfgDMA2_TD[1u] = CyDmaTdAllocate();
 358              		.loc 1 1152 0
 359 01a6 FFF7FEFF 		bl	CyDmaTdAllocate
 360              	.LVL44:
 361 01aa 84F82100 		strb	r0, [r4, #33]
1153:Generated_Source\PSoC5/MDIO_Interface.c **** 
1154:Generated_Source\PSoC5/MDIO_Interface.c ****         /* TD looped on itself, increment source and destination
1155:Generated_Source\PSoC5/MDIO_Interface.c ****         *  address address. Increment is required for PSoC3 if data
1156:Generated_Source\PSoC5/MDIO_Interface.c ****         *  is not aligned.
1157:Generated_Source\PSoC5/MDIO_Interface.c ****         */
1158:Generated_Source\PSoC5/MDIO_Interface.c ****         (void) CyDmaTdSetConfiguration(MDIO_Interface_cfgDMA1_TD[0u], MDIO_Interface_CFG_DMA1_TD_SI
 362              		.loc 1 1158 0
 363 01ae 227F     		ldrb	r2, [r4, #28]	@ zero_extendqisi2
 364 01b0 1046     		mov	r0, r2
 365 01b2 0421     		movs	r1, #4
 366 01b4 0723     		movs	r3, #7
 367 01b6 FFF7FEFF 		bl	CyDmaTdSetConfiguration
 368              	.LVL45:
1159:Generated_Source\PSoC5/MDIO_Interface.c ****             MDIO_Interface_cfgDMA1_TD[0u], MDIO_Interface_CFG_DMA1_CFG);
1160:Generated_Source\PSoC5/MDIO_Interface.c **** 
1161:Generated_Source\PSoC5/MDIO_Interface.c ****         /* Two TD chain. Last TD in chain looped on first one. */
1162:Generated_Source\PSoC5/MDIO_Interface.c ****         (void) CyDmaTdSetConfiguration(MDIO_Interface_cfgDMA2_TD[0u], MDIO_Interface_CFG_DMA2_TD1_S
 369              		.loc 1 1162 0
 370 01ba 94F82000 		ldrb	r0, [r4, #32]	@ zero_extendqisi2
 371 01be 0221     		movs	r1, #2
 372 01c0 94F82120 		ldrb	r2, [r4, #33]	@ zero_extendqisi2
 373 01c4 2323     		movs	r3, #35
ARM GAS  C:\Users\kopusov.FT\AppData\Local\Temp\ccT1QhKH.s 			page 28


 374 01c6 FFF7FEFF 		bl	CyDmaTdSetConfiguration
 375              	.LVL46:
1163:Generated_Source\PSoC5/MDIO_Interface.c ****                                 MDIO_Interface_cfgDMA2_TD[1u], TD_INC_SRC_ADR | TD_INC_DST_ADR | TD
1164:Generated_Source\PSoC5/MDIO_Interface.c ****         (void) CyDmaTdSetConfiguration(MDIO_Interface_cfgDMA2_TD[1u], MDIO_Interface_CFG_DMA2_TD2_S
 376              		.loc 1 1164 0
 377 01ca 94F82100 		ldrb	r0, [r4, #33]	@ zero_extendqisi2
 378 01ce 0121     		movs	r1, #1
 379 01d0 94F82020 		ldrb	r2, [r4, #32]	@ zero_extendqisi2
 380 01d4 0023     		movs	r3, #0
 381 01d6 FFF7FEFF 		bl	CyDmaTdSetConfiguration
 382              	.LVL47:
1165:Generated_Source\PSoC5/MDIO_Interface.c ****                                 MDIO_Interface_cfgDMA2_TD[0u], MDIO_Interface_CfgDMA2__TD_TERMOUT_E
1166:Generated_Source\PSoC5/MDIO_Interface.c **** 
1167:Generated_Source\PSoC5/MDIO_Interface.c ****         /* Move the register configuration from Flash or SRAM into the fixed
1168:Generated_Source\PSoC5/MDIO_Interface.c ****         *  memory location in SRAM. The source address of this TD is set to 0,
1169:Generated_Source\PSoC5/MDIO_Interface.c ****         *  since it is configured later in run-time by AddrDMA DMA.
1170:Generated_Source\PSoC5/MDIO_Interface.c ****         */
1171:Generated_Source\PSoC5/MDIO_Interface.c ****         (void) CyDmaTdSetAddress(MDIO_Interface_cfgDMA1_TD[0u], LO16((uint32)0u),
 383              		.loc 1 1171 0
 384 01da 04F18005 		add	r5, r4, #128
 385 01de ADB2     		uxth	r5, r5
 386 01e0 207F     		ldrb	r0, [r4, #28]	@ zero_extendqisi2
 387 01e2 0021     		movs	r1, #0
 388 01e4 2A46     		mov	r2, r5
 389 01e6 FFF7FEFF 		bl	CyDmaTdSetAddress
 390              	.LVL48:
1172:Generated_Source\PSoC5/MDIO_Interface.c ****                                                                   LO16((uint32)&MDIO_Interface_regC
1173:Generated_Source\PSoC5/MDIO_Interface.c **** 
1174:Generated_Source\PSoC5/MDIO_Interface.c ****         /* Move register mask from memory to D1 register of MDIO frame
1175:Generated_Source\PSoC5/MDIO_Interface.c ****         *  processing datapath.
1176:Generated_Source\PSoC5/MDIO_Interface.c ****         */
1177:Generated_Source\PSoC5/MDIO_Interface.c ****         (void) CyDmaTdSetAddress(MDIO_Interface_cfgDMA2_TD[0u], LO16((uint32)&MDIO_Interface_regCon
 391              		.loc 1 1177 0
 392 01ea 94F82000 		ldrb	r0, [r4, #32]	@ zero_extendqisi2
 393 01ee 2946     		mov	r1, r5
 394 01f0 46F23A52 		movw	r2, #25914
 395 01f4 FFF7FEFF 		bl	CyDmaTdSetAddress
 396              	.LVL49:
1178:Generated_Source\PSoC5/MDIO_Interface.c ****                                                                   LO16((uint32)MDIO_Interface_REG_M
1179:Generated_Source\PSoC5/MDIO_Interface.c **** 
1180:Generated_Source\PSoC5/MDIO_Interface.c ****         /* Move register attributes from memory to regCfg control register
1181:Generated_Source\PSoC5/MDIO_Interface.c ****         *  of Address analyzer block.
1182:Generated_Source\PSoC5/MDIO_Interface.c ****         */
1183:Generated_Source\PSoC5/MDIO_Interface.c ****         (void) CyDmaTdSetAddress(MDIO_Interface_cfgDMA2_TD[1u],
 397              		.loc 1 1183 0
 398 01f8 A91C     		adds	r1, r5, #2
 399 01fa 94F82100 		ldrb	r0, [r4, #33]	@ zero_extendqisi2
 400 01fe 89B2     		uxth	r1, r1
 401 0200 46F27442 		movw	r2, #25716
 402 0204 FFF7FEFF 		bl	CyDmaTdSetAddress
 403              	.LVL50:
1184:Generated_Source\PSoC5/MDIO_Interface.c ****                         LO16((uint32)&MDIO_Interface_regConfig + MDIO_Interface_CTRL_BITS_OFFSET),
1185:Generated_Source\PSoC5/MDIO_Interface.c ****                         LO16((uint32)MDIO_Interface_REG_ATTR_PTR));
1186:Generated_Source\PSoC5/MDIO_Interface.c **** 
1187:Generated_Source\PSoC5/MDIO_Interface.c **** 
1188:Generated_Source\PSoC5/MDIO_Interface.c ****         /***********************************************************************
1189:Generated_Source\PSoC5/MDIO_Interface.c ****         *               Register physical memory address DMA
ARM GAS  C:\Users\kopusov.FT\AppData\Local\Temp\ccT1QhKH.s 			page 29


1190:Generated_Source\PSoC5/MDIO_Interface.c ****         ***********************************************************************/
1191:Generated_Source\PSoC5/MDIO_Interface.c **** 
1192:Generated_Source\PSoC5/MDIO_Interface.c ****         /* Transfer data between UDB registers and DMAC config memory,
1193:Generated_Source\PSoC5/MDIO_Interface.c ****         *  two byte transfer, each transfer requires request.
1194:Generated_Source\PSoC5/MDIO_Interface.c ****         */
1195:Generated_Source\PSoC5/MDIO_Interface.c ****         MDIO_Interface_regAddrDMA_Chan  = MDIO_Interface_AddrDMA_DmaInitialize(
 404              		.loc 1 1195 0
 405 0208 0220     		movs	r0, #2
 406 020a 0121     		movs	r1, #1
 407 020c 4FF48042 		mov	r2, #16384
 408 0210 1346     		mov	r3, r2
 409 0212 FFF7FEFF 		bl	MDIO_Interface_AddrDMA_DmaInitialize
 410              	.LVL51:
 411 0216 E074     		strb	r0, [r4, #19]
1196:Generated_Source\PSoC5/MDIO_Interface.c ****             MDIO_Interface_REG_MEM_DMA_BYTES_PER_BURST,  MDIO_Interface_REG_MEM_DMA_REQUEST_PER_BUR
1197:Generated_Source\PSoC5/MDIO_Interface.c ****             HI16(CYDEV_PERIPH_BASE), HI16(CYDEV_PERIPH_BASE));
1198:Generated_Source\PSoC5/MDIO_Interface.c **** 
1199:Generated_Source\PSoC5/MDIO_Interface.c ****         /* Update channel list with allocated channel number */
1200:Generated_Source\PSoC5/MDIO_Interface.c ****         MDIO_Interface_dmaChannelList[7u] = MDIO_Interface_regAddrDMA_Chan;
 412              		.loc 1 1200 0
 413 0218 84F83300 		strb	r0, [r4, #51]
 414              	.LVL52:
1201:Generated_Source\PSoC5/MDIO_Interface.c **** 
1202:Generated_Source\PSoC5/MDIO_Interface.c ****         for(idx = 0u; idx < MDIO_Interface_REG_MEM_ADDR_DMA_TD_NUM; idx++)
 415              		.loc 1 1202 0
 416 021c 0024     		movs	r4, #0
 417 021e 06E0     		b	.L12
 418              	.LVL53:
 419              	.L13:
1203:Generated_Source\PSoC5/MDIO_Interface.c ****         {
1204:Generated_Source\PSoC5/MDIO_Interface.c ****             MDIO_Interface_regAddrDMA_TD[idx] = CyDmaTdAllocate();
 420              		.loc 1 1204 0 discriminator 3
 421 0220 FFF7FEFF 		bl	CyDmaTdAllocate
 422              	.LVL54:
 423 0224 4F4B     		ldr	r3, .L15+4
 424 0226 2344     		add	r3, r3, r4
 425 0228 1873     		strb	r0, [r3, #12]
1202:Generated_Source\PSoC5/MDIO_Interface.c ****         {
 426              		.loc 1 1202 0 discriminator 3
 427 022a 0134     		adds	r4, r4, #1
 428              	.LVL55:
 429 022c E4B2     		uxtb	r4, r4
 430              	.LVL56:
 431              	.L12:
1202:Generated_Source\PSoC5/MDIO_Interface.c ****         {
 432              		.loc 1 1202 0 is_stmt 0 discriminator 1
 433 022e 062C     		cmp	r4, #6
 434 0230 F6D9     		bls	.L13
1205:Generated_Source\PSoC5/MDIO_Interface.c ****         }
1206:Generated_Source\PSoC5/MDIO_Interface.c **** 
1207:Generated_Source\PSoC5/MDIO_Interface.c ****         /* Configure TD chain */
1208:Generated_Source\PSoC5/MDIO_Interface.c ****         (void) CyDmaTdSetConfiguration(MDIO_Interface_regAddrDMA_TD[0u], MDIO_Interface_REG_MEM_DMA
 435              		.loc 1 1208 0 is_stmt 1
 436 0232 4C4C     		ldr	r4, .L15+4
 437              	.LVL57:
 438 0234 207B     		ldrb	r0, [r4, #12]	@ zero_extendqisi2
 439 0236 0221     		movs	r1, #2
ARM GAS  C:\Users\kopusov.FT\AppData\Local\Temp\ccT1QhKH.s 			page 30


 440 0238 627B     		ldrb	r2, [r4, #13]	@ zero_extendqisi2
 441 023a 2023     		movs	r3, #32
 442 023c FFF7FEFF 		bl	CyDmaTdSetConfiguration
 443              	.LVL58:
1209:Generated_Source\PSoC5/MDIO_Interface.c ****                                        MDIO_Interface_regAddrDMA_TD[1u], TD_AUTO_EXEC_NEXT);
1210:Generated_Source\PSoC5/MDIO_Interface.c **** 
1211:Generated_Source\PSoC5/MDIO_Interface.c ****         (void) CyDmaTdSetConfiguration(MDIO_Interface_regAddrDMA_TD[1u], MDIO_Interface_REG_MEM_DMA
 444              		.loc 1 1211 0
 445 0240 607B     		ldrb	r0, [r4, #13]	@ zero_extendqisi2
 446 0242 0221     		movs	r1, #2
 447 0244 A27B     		ldrb	r2, [r4, #14]	@ zero_extendqisi2
 448 0246 0423     		movs	r3, #4
 449 0248 FFF7FEFF 		bl	CyDmaTdSetConfiguration
 450              	.LVL59:
1212:Generated_Source\PSoC5/MDIO_Interface.c ****                                        MDIO_Interface_regAddrDMA_TD[2u], MDIO_Interface_AddrDMA__TD
1213:Generated_Source\PSoC5/MDIO_Interface.c **** 
1214:Generated_Source\PSoC5/MDIO_Interface.c ****         (void) CyDmaTdSetConfiguration(MDIO_Interface_regAddrDMA_TD[2u], MDIO_Interface_REG_MEM_DMA
 451              		.loc 1 1214 0
 452 024c A07B     		ldrb	r0, [r4, #14]	@ zero_extendqisi2
 453 024e 0221     		movs	r1, #2
 454 0250 E27B     		ldrb	r2, [r4, #15]	@ zero_extendqisi2
 455 0252 2023     		movs	r3, #32
 456 0254 FFF7FEFF 		bl	CyDmaTdSetConfiguration
 457              	.LVL60:
1215:Generated_Source\PSoC5/MDIO_Interface.c ****                                        MDIO_Interface_regAddrDMA_TD[3u], TD_AUTO_EXEC_NEXT);
1216:Generated_Source\PSoC5/MDIO_Interface.c **** 
1217:Generated_Source\PSoC5/MDIO_Interface.c ****         (void) CyDmaTdSetConfiguration(MDIO_Interface_regAddrDMA_TD[3u], MDIO_Interface_REG_MEM_DMA
 458              		.loc 1 1217 0
 459 0258 E07B     		ldrb	r0, [r4, #15]	@ zero_extendqisi2
 460 025a 0221     		movs	r1, #2
 461 025c 227C     		ldrb	r2, [r4, #16]	@ zero_extendqisi2
 462 025e 0423     		movs	r3, #4
 463 0260 FFF7FEFF 		bl	CyDmaTdSetConfiguration
 464              	.LVL61:
1218:Generated_Source\PSoC5/MDIO_Interface.c ****                                        MDIO_Interface_regAddrDMA_TD[4u], MDIO_Interface_AddrDMA__TD
1219:Generated_Source\PSoC5/MDIO_Interface.c **** 
1220:Generated_Source\PSoC5/MDIO_Interface.c ****         (void) CyDmaTdSetConfiguration(MDIO_Interface_regAddrDMA_TD[4u], MDIO_Interface_REG_MEM_DMA
 465              		.loc 1 1220 0
 466 0264 207C     		ldrb	r0, [r4, #16]	@ zero_extendqisi2
 467 0266 0221     		movs	r1, #2
 468 0268 627C     		ldrb	r2, [r4, #17]	@ zero_extendqisi2
 469 026a 0423     		movs	r3, #4
 470 026c FFF7FEFF 		bl	CyDmaTdSetConfiguration
 471              	.LVL62:
1221:Generated_Source\PSoC5/MDIO_Interface.c ****                                        MDIO_Interface_regAddrDMA_TD[5u], MDIO_Interface_AddrDMA__TD
1222:Generated_Source\PSoC5/MDIO_Interface.c **** 
1223:Generated_Source\PSoC5/MDIO_Interface.c ****         (void) CyDmaTdSetConfiguration(MDIO_Interface_regAddrDMA_TD[5u], MDIO_Interface_REG_MEM_DMA
 472              		.loc 1 1223 0
 473 0270 607C     		ldrb	r0, [r4, #17]	@ zero_extendqisi2
 474 0272 0221     		movs	r1, #2
 475 0274 A27C     		ldrb	r2, [r4, #18]	@ zero_extendqisi2
 476 0276 0423     		movs	r3, #4
 477 0278 FFF7FEFF 		bl	CyDmaTdSetConfiguration
 478              	.LVL63:
1224:Generated_Source\PSoC5/MDIO_Interface.c ****                                        MDIO_Interface_regAddrDMA_TD[6u], MDIO_Interface_AddrDMA__TD
1225:Generated_Source\PSoC5/MDIO_Interface.c **** 
1226:Generated_Source\PSoC5/MDIO_Interface.c ****         (void) CyDmaTdSetConfiguration(MDIO_Interface_regAddrDMA_TD[6u], MDIO_Interface_REG_MEM_DMA
ARM GAS  C:\Users\kopusov.FT\AppData\Local\Temp\ccT1QhKH.s 			page 31


 479              		.loc 1 1226 0
 480 027c A07C     		ldrb	r0, [r4, #18]	@ zero_extendqisi2
 481 027e 0221     		movs	r1, #2
 482 0280 227B     		ldrb	r2, [r4, #12]	@ zero_extendqisi2
 483 0282 0423     		movs	r3, #4
 484 0284 FFF7FEFF 		bl	CyDmaTdSetConfiguration
 485              	.LVL64:
1227:Generated_Source\PSoC5/MDIO_Interface.c ****                                        MDIO_Interface_regAddrDMA_TD[0u], MDIO_Interface_AddrDMA__TD
1228:Generated_Source\PSoC5/MDIO_Interface.c **** 
1229:Generated_Source\PSoC5/MDIO_Interface.c ****         /* Transfer address of register space info (register space memory
1230:Generated_Source\PSoC5/MDIO_Interface.c ****         *  base address and register space config base address) from address
1231:Generated_Source\PSoC5/MDIO_Interface.c ****         *  calculation datapath to source address of InfoDMA TD.
1232:Generated_Source\PSoC5/MDIO_Interface.c ****         */
1233:Generated_Source\PSoC5/MDIO_Interface.c ****         (void) CyDmaTdSetAddress(MDIO_Interface_regAddrDMA_TD[0u], LO16((uint32)MDIO_Interface_INFO
1234:Generated_Source\PSoC5/MDIO_Interface.c ****                                 LO16((uint32)&CY_DMA_TDMEM_STRUCT_PTR[MDIO_Interface_pageInfoDMA_TD
 486              		.loc 1 1234 0
 487 0288 227A     		ldrb	r2, [r4, #8]	@ zero_extendqisi2
 488 028a D200     		lsls	r2, r2, #3
1233:Generated_Source\PSoC5/MDIO_Interface.c ****                                 LO16((uint32)&CY_DMA_TDMEM_STRUCT_PTR[MDIO_Interface_pageInfoDMA_TD
 489              		.loc 1 1233 0
 490 028c 207B     		ldrb	r0, [r4, #12]	@ zero_extendqisi2
 491 028e 46F60801 		movw	r1, #26632
 492 0292 02F5F042 		add	r2, r2, #30720
 493 0296 0432     		adds	r2, r2, #4
 494 0298 FFF7FEFF 		bl	CyDmaTdSetAddress
 495              	.LVL65:
1235:Generated_Source\PSoC5/MDIO_Interface.c **** 
1236:Generated_Source\PSoC5/MDIO_Interface.c ****         /* Move register index from A0 register of address
1237:Generated_Source\PSoC5/MDIO_Interface.c ****         *  comparison datapath to address calculation datapath.
1238:Generated_Source\PSoC5/MDIO_Interface.c ****         */
1239:Generated_Source\PSoC5/MDIO_Interface.c ****         (void) CyDmaTdSetAddress(MDIO_Interface_regAddrDMA_TD[1u], LO16((uint32)MDIO_Interface_REG_
 496              		.loc 1 1239 0
 497 029c 607B     		ldrb	r0, [r4, #13]	@ zero_extendqisi2
 498 029e 46F60401 		movw	r1, #26628
 499 02a2 46F62802 		movw	r2, #26664
 500 02a6 FFF7FEFF 		bl	CyDmaTdSetAddress
 501              	.LVL66:
1240:Generated_Source\PSoC5/MDIO_Interface.c ****                                                                      LO16((uint32)MDIO_Interface_RE
1241:Generated_Source\PSoC5/MDIO_Interface.c **** 
1242:Generated_Source\PSoC5/MDIO_Interface.c ****         /* Move lower 16 bits of register address from the A0 of
1243:Generated_Source\PSoC5/MDIO_Interface.c ****         *  address calculation datapath to source address of RdDMA TD
1244:Generated_Source\PSoC5/MDIO_Interface.c ****         *  and destination address of WrDMA TD.
1245:Generated_Source\PSoC5/MDIO_Interface.c ****         */
1246:Generated_Source\PSoC5/MDIO_Interface.c ****         (void) CyDmaTdSetAddress(MDIO_Interface_regAddrDMA_TD[2u], LO16((uint32)MDIO_Interface_REG_
1247:Generated_Source\PSoC5/MDIO_Interface.c ****                                 LO16((uint32)&CY_DMA_TDMEM_STRUCT_PTR[MDIO_Interface_rdDMA_TD[0u]].
 502              		.loc 1 1247 0
 503 02aa 227D     		ldrb	r2, [r4, #20]	@ zero_extendqisi2
 504 02ac D200     		lsls	r2, r2, #3
1246:Generated_Source\PSoC5/MDIO_Interface.c ****                                 LO16((uint32)&CY_DMA_TDMEM_STRUCT_PTR[MDIO_Interface_rdDMA_TD[0u]].
 505              		.loc 1 1246 0
 506 02ae A07B     		ldrb	r0, [r4, #14]	@ zero_extendqisi2
 507 02b0 46F60801 		movw	r1, #26632
 508 02b4 02F5F042 		add	r2, r2, #30720
 509 02b8 0432     		adds	r2, r2, #4
 510 02ba FFF7FEFF 		bl	CyDmaTdSetAddress
 511              	.LVL67:
1248:Generated_Source\PSoC5/MDIO_Interface.c ****         (void) CyDmaTdSetAddress(MDIO_Interface_regAddrDMA_TD[3u], LO16((uint32)MDIO_Interface_REG_
ARM GAS  C:\Users\kopusov.FT\AppData\Local\Temp\ccT1QhKH.s 			page 32


1249:Generated_Source\PSoC5/MDIO_Interface.c ****                                 LO16((uint32)&CY_DMA_TDMEM_STRUCT_PTR[MDIO_Interface_wrDMA_TD[0u]].
 512              		.loc 1 1249 0
 513 02be 227E     		ldrb	r2, [r4, #24]	@ zero_extendqisi2
 514 02c0 D200     		lsls	r2, r2, #3
1248:Generated_Source\PSoC5/MDIO_Interface.c ****         (void) CyDmaTdSetAddress(MDIO_Interface_regAddrDMA_TD[3u], LO16((uint32)MDIO_Interface_REG_
 515              		.loc 1 1248 0
 516 02c2 E07B     		ldrb	r0, [r4, #15]	@ zero_extendqisi2
 517 02c4 46F60801 		movw	r1, #26632
 518 02c8 02F5F042 		add	r2, r2, #30720
 519 02cc 0632     		adds	r2, r2, #6
 520 02ce FFF7FEFF 		bl	CyDmaTdSetAddress
 521              	.LVL68:
1250:Generated_Source\PSoC5/MDIO_Interface.c **** 
1251:Generated_Source\PSoC5/MDIO_Interface.c ****         /* Move upper 16 bits of register address from A0 of the
1252:Generated_Source\PSoC5/MDIO_Interface.c ****         *  address calculation datapath to upper 16-bit source address of
1253:Generated_Source\PSoC5/MDIO_Interface.c ****         *  RdDMA TD.
1254:Generated_Source\PSoC5/MDIO_Interface.c ****         */
1255:Generated_Source\PSoC5/MDIO_Interface.c ****         (void) CyDmaTdSetAddress(MDIO_Interface_regAddrDMA_TD[4u], LO16((uint32)MDIO_Interface_REG_
1256:Generated_Source\PSoC5/MDIO_Interface.c ****                                 LO16((uint32)&CY_DMA_CFGMEM_STRUCT_PTR[MDIO_Interface_rdDMA_Chan].C
 522              		.loc 1 1256 0
 523 02d2 627D     		ldrb	r2, [r4, #21]	@ zero_extendqisi2
 524 02d4 D200     		lsls	r2, r2, #3
1255:Generated_Source\PSoC5/MDIO_Interface.c ****                                 LO16((uint32)&CY_DMA_CFGMEM_STRUCT_PTR[MDIO_Interface_rdDMA_Chan].C
 525              		.loc 1 1255 0
 526 02d6 207C     		ldrb	r0, [r4, #16]	@ zero_extendqisi2
 527 02d8 46F60801 		movw	r1, #26632
 528 02dc 02F5EC42 		add	r2, r2, #30208
 529 02e0 0432     		adds	r2, r2, #4
 530 02e2 FFF7FEFF 		bl	CyDmaTdSetAddress
 531              	.LVL69:
1257:Generated_Source\PSoC5/MDIO_Interface.c **** 
1258:Generated_Source\PSoC5/MDIO_Interface.c ****         /* Move lower and upper 16 bits of register config address
1259:Generated_Source\PSoC5/MDIO_Interface.c ****         *  from A0 of address calculation datapath to source address
1260:Generated_Source\PSoC5/MDIO_Interface.c ****         *  of CfgDMA1 TD.
1261:Generated_Source\PSoC5/MDIO_Interface.c ****         */
1262:Generated_Source\PSoC5/MDIO_Interface.c ****         (void) CyDmaTdSetAddress(MDIO_Interface_regAddrDMA_TD[5u], LO16((uint32)MDIO_Interface_REG_
1263:Generated_Source\PSoC5/MDIO_Interface.c ****                                 LO16((uint32)&CY_DMA_TDMEM_STRUCT_PTR[MDIO_Interface_cfgDMA1_TD[0u]
 532              		.loc 1 1263 0
 533 02e6 227F     		ldrb	r2, [r4, #28]	@ zero_extendqisi2
 534 02e8 D200     		lsls	r2, r2, #3
1262:Generated_Source\PSoC5/MDIO_Interface.c ****                                 LO16((uint32)&CY_DMA_TDMEM_STRUCT_PTR[MDIO_Interface_cfgDMA1_TD[0u]
 535              		.loc 1 1262 0
 536 02ea 607C     		ldrb	r0, [r4, #17]	@ zero_extendqisi2
 537 02ec 46F60801 		movw	r1, #26632
 538 02f0 02F5F042 		add	r2, r2, #30720
 539 02f4 0432     		adds	r2, r2, #4
 540 02f6 FFF7FEFF 		bl	CyDmaTdSetAddress
 541              	.LVL70:
1264:Generated_Source\PSoC5/MDIO_Interface.c ****         (void) CyDmaTdSetAddress(MDIO_Interface_regAddrDMA_TD[6u], LO16((uint32)MDIO_Interface_REG_
1265:Generated_Source\PSoC5/MDIO_Interface.c ****                                 LO16((uint32)&CY_DMA_CFGMEM_STRUCT_PTR[MDIO_Interface_cfgDMA1_Chan]
 542              		.loc 1 1265 0
 543 02fa 627F     		ldrb	r2, [r4, #29]	@ zero_extendqisi2
 544 02fc D200     		lsls	r2, r2, #3
1264:Generated_Source\PSoC5/MDIO_Interface.c ****         (void) CyDmaTdSetAddress(MDIO_Interface_regAddrDMA_TD[6u], LO16((uint32)MDIO_Interface_REG_
 545              		.loc 1 1264 0
 546 02fe A07C     		ldrb	r0, [r4, #18]	@ zero_extendqisi2
 547 0300 46F60801 		movw	r1, #26632
ARM GAS  C:\Users\kopusov.FT\AppData\Local\Temp\ccT1QhKH.s 			page 33


 548 0304 02F5EC42 		add	r2, r2, #30208
 549 0308 0432     		adds	r2, r2, #4
 550 030a FFF7FEFF 		bl	CyDmaTdSetAddress
 551              	.LVL71:
1266:Generated_Source\PSoC5/MDIO_Interface.c **** 
1267:Generated_Source\PSoC5/MDIO_Interface.c **** 
1268:Generated_Source\PSoC5/MDIO_Interface.c ****         /***********************************************************************
1269:Generated_Source\PSoC5/MDIO_Interface.c ****         *               Firmware DMA (Used from APIs)
1270:Generated_Source\PSoC5/MDIO_Interface.c ****         ***********************************************************************/
1271:Generated_Source\PSoC5/MDIO_Interface.c **** 
1272:Generated_Source\PSoC5/MDIO_Interface.c ****         /* Partial configuration of FwDMA1 and FwDMA2 DMA. The rest configuration is done
1273:Generated_Source\PSoC5/MDIO_Interface.c ****         *  in the SetData, GetData and SetBits APIs.
1274:Generated_Source\PSoC5/MDIO_Interface.c ****         */
1275:Generated_Source\PSoC5/MDIO_Interface.c ****         MDIO_Interface_fwDMA1_Chan = MDIO_Interface_FwDMA1_DmaInitialize(
 552              		.loc 1 1275 0
 553 030e 0220     		movs	r0, #2
 554 0310 0021     		movs	r1, #0
 555 0312 41F6FF72 		movw	r2, #8191
 556 0316 1346     		mov	r3, r2
 557 0318 FFF7FEFF 		bl	MDIO_Interface_FwDMA1_DmaInitialize
 558              	.LVL72:
 559 031c 84F82500 		strb	r0, [r4, #37]
1276:Generated_Source\PSoC5/MDIO_Interface.c ****             MDIO_Interface_FW_DMA_BYTES_PER_BURST, MDIO_Interface_FW_DMA_REQUEST_PER_BURST,
1277:Generated_Source\PSoC5/MDIO_Interface.c ****             HI16(CYDEV_SRAM_BASE), HI16(CYDEV_SRAM_BASE));
1278:Generated_Source\PSoC5/MDIO_Interface.c **** 
1279:Generated_Source\PSoC5/MDIO_Interface.c ****         MDIO_Interface_fwDMA1_TD[0u] = CyDmaTdAllocate();
 560              		.loc 1 1279 0
 561 0320 FFF7FEFF 		bl	CyDmaTdAllocate
 562              	.LVL73:
 563 0324 84F82400 		strb	r0, [r4, #36]
1280:Generated_Source\PSoC5/MDIO_Interface.c **** 
1281:Generated_Source\PSoC5/MDIO_Interface.c ****         MDIO_Interface_fwDMA2_Chan = MDIO_Interface_FwDMA2_DmaInitialize(
 564              		.loc 1 1281 0
 565 0328 0220     		movs	r0, #2
 566 032a 0021     		movs	r1, #0
 567 032c 4FF48042 		mov	r2, #16384
 568 0330 41F6FF73 		movw	r3, #8191
 569 0334 FFF7FEFF 		bl	MDIO_Interface_FwDMA2_DmaInitialize
 570              	.LVL74:
 571 0338 84F82900 		strb	r0, [r4, #41]
1282:Generated_Source\PSoC5/MDIO_Interface.c ****             MDIO_Interface_FW_DMA_BYTES_PER_BURST, MDIO_Interface_FW_DMA_REQUEST_PER_BURST,
1283:Generated_Source\PSoC5/MDIO_Interface.c ****             HI16(CYDEV_PERIPH_BASE), HI16(CYDEV_SRAM_BASE));
1284:Generated_Source\PSoC5/MDIO_Interface.c **** 
1285:Generated_Source\PSoC5/MDIO_Interface.c ****         MDIO_Interface_fwDMA2_TD[0u] = CyDmaTdAllocate();
 572              		.loc 1 1285 0
 573 033c FFF7FEFF 		bl	CyDmaTdAllocate
 574              	.LVL75:
 575 0340 84F82800 		strb	r0, [r4, #40]
1286:Generated_Source\PSoC5/MDIO_Interface.c ****         (void) CyDmaTdSetConfiguration(MDIO_Interface_fwDMA2_TD[0u], MDIO_Interface_FW_DMA_TD_SIZE,
 576              		.loc 1 1286 0
 577 0344 0221     		movs	r1, #2
 578 0346 FF22     		movs	r2, #255
 579 0348 8523     		movs	r3, #133
 580 034a FFF7FEFF 		bl	CyDmaTdSetConfiguration
 581              	.LVL76:
1287:Generated_Source\PSoC5/MDIO_Interface.c ****             DMA_INVALID_TD, TD_SWAP_EN | TD_INC_SRC_ADR | MDIO_Interface_FwDMA2__TD_TERMOUT_EN);
1288:Generated_Source\PSoC5/MDIO_Interface.c **** 
ARM GAS  C:\Users\kopusov.FT\AppData\Local\Temp\ccT1QhKH.s 			page 34


1289:Generated_Source\PSoC5/MDIO_Interface.c ****         /* Update channel list with allocated channel numbers */
1290:Generated_Source\PSoC5/MDIO_Interface.c ****         MDIO_Interface_dmaChannelList[8u] = MDIO_Interface_fwDMA1_Chan;
 582              		.loc 1 1290 0
 583 034e 94F82530 		ldrb	r3, [r4, #37]	@ zero_extendqisi2
 584 0352 84F83430 		strb	r3, [r4, #52]
1291:Generated_Source\PSoC5/MDIO_Interface.c ****         MDIO_Interface_dmaChannelList[9u] = MDIO_Interface_fwDMA2_Chan;
 585              		.loc 1 1291 0
 586 0356 94F82930 		ldrb	r3, [r4, #41]	@ zero_extendqisi2
 587 035a 84F83530 		strb	r3, [r4, #53]
 588 035e 38BD     		pop	{r3, r4, r5, pc}
 589              	.L16:
 590              		.align	2
 591              	.L15:
 592 0360 00000000 		.word	MDIO_Interface_pageInfoPtr
 593 0364 00000000 		.word	.LANCHOR0
 594 0368 FFFFFE1F 		.word	536805375
 595 036c 00000000 		.word	.LANCHOR1
 596              		.cfi_endproc
 597              	.LFE17:
 598              		.size	MDIO_Interface_DmaInit, .-MDIO_Interface_DmaInit
 599              		.section	.text.MDIO_Interface_DmaDisable,"ax",%progbits
 600              		.align	2
 601              		.thumb
 602              		.thumb_func
 603              		.type	MDIO_Interface_DmaDisable, %function
 604              	MDIO_Interface_DmaDisable:
 605              	.LFB16:
 895:Generated_Source\PSoC5/MDIO_Interface.c ****         uint8 i;
 606              		.loc 1 895 0
 607              		.cfi_startproc
 608              		@ args = 0, pretend = 0, frame = 0
 609              		@ frame_needed = 0, uses_anonymous_args = 0
 610 0000 70B5     		push	{r4, r5, r6, lr}
 611              		.cfi_def_cfa_offset 16
 612              		.cfi_offset 4, -16
 613              		.cfi_offset 5, -12
 614              		.cfi_offset 6, -8
 615              		.cfi_offset 14, -4
 616              	.LVL77:
 899:Generated_Source\PSoC5/MDIO_Interface.c ****         {
 617              		.loc 1 899 0
 618 0002 0026     		movs	r6, #0
 619 0004 1BE0     		b	.L18
 620              	.LVL78:
 621              	.L21:
 901:Generated_Source\PSoC5/MDIO_Interface.c ****             (void) CyDmaChDisable(channel);
 622              		.loc 1 901 0
 623 0006 0F4B     		ldr	r3, .L23
 624 0008 3344     		add	r3, r3, r6
 625 000a 93F82C50 		ldrb	r5, [r3, #44]	@ zero_extendqisi2
 626              	.LVL79:
 902:Generated_Source\PSoC5/MDIO_Interface.c **** 
 627              		.loc 1 902 0
 628 000e 2846     		mov	r0, r5
 629 0010 FFF7FEFF 		bl	CyDmaChDisable
 630              	.LVL80:
 631              	.L19:
ARM GAS  C:\Users\kopusov.FT\AppData\Local\Temp\ccT1QhKH.s 			page 35


 905:Generated_Source\PSoC5/MDIO_Interface.c ****             {
 632              		.loc 1 905 0 discriminator 1
 633 0014 0C4C     		ldr	r4, .L23+4
 634 0016 04EB0514 		add	r4, r4, r5, lsl #4
 635 001a 237A     		ldrb	r3, [r4, #8]	@ zero_extendqisi2
 636 001c 13F0020F 		tst	r3, #2
 637 0020 F8D1     		bne	.L19
 910:Generated_Source\PSoC5/MDIO_Interface.c ****             (void) CyDmaChEnable    (channel, 1u);
 638              		.loc 1 910 0
 639 0022 2846     		mov	r0, r5
 640 0024 0421     		movs	r1, #4
 641 0026 FFF7FEFF 		bl	CyDmaChSetRequest
 642              	.LVL81:
 911:Generated_Source\PSoC5/MDIO_Interface.c **** 
 643              		.loc 1 911 0
 644 002a 2846     		mov	r0, r5
 645 002c 0121     		movs	r1, #1
 646 002e FFF7FEFF 		bl	CyDmaChEnable
 647              	.LVL82:
 648              	.L20:
 913:Generated_Source\PSoC5/MDIO_Interface.c ****             {
 649              		.loc 1 913 0 discriminator 1
 650 0032 2378     		ldrb	r3, [r4]	@ zero_extendqisi2
 651 0034 13F0010F 		tst	r3, #1
 652 0038 FBD1     		bne	.L20
 899:Generated_Source\PSoC5/MDIO_Interface.c ****         {
 653              		.loc 1 899 0 discriminator 2
 654 003a 0136     		adds	r6, r6, #1
 655              	.LVL83:
 656 003c F6B2     		uxtb	r6, r6
 657              	.LVL84:
 658              	.L18:
 899:Generated_Source\PSoC5/MDIO_Interface.c ****         {
 659              		.loc 1 899 0 is_stmt 0 discriminator 1
 660 003e 092E     		cmp	r6, #9
 661 0040 E1D9     		bls	.L21
 918:Generated_Source\PSoC5/MDIO_Interface.c **** 
 662              		.loc 1 918 0 is_stmt 1
 663 0042 70BD     		pop	{r4, r5, r6, pc}
 664              	.LVL85:
 665              	.L24:
 666              		.align	2
 667              	.L23:
 668 0044 00000000 		.word	.LANCHOR0
 669 0048 10700040 		.word	1073770512
 670              		.cfi_endproc
 671              	.LFE16:
 672              		.size	MDIO_Interface_DmaDisable, .-MDIO_Interface_DmaDisable
 673              		.section	.text.MDIO_Interface_DmaIsComplete,"ax",%progbits
 674              		.align	2
 675              		.thumb
 676              		.thumb_func
 677              		.type	MDIO_Interface_DmaIsComplete, %function
 678              	MDIO_Interface_DmaIsComplete:
 679              	.LFB14:
 820:Generated_Source\PSoC5/MDIO_Interface.c ****         uint8 timer;
 680              		.loc 1 820 0
ARM GAS  C:\Users\kopusov.FT\AppData\Local\Temp\ccT1QhKH.s 			page 36


 681              		.cfi_startproc
 682              		@ args = 0, pretend = 0, frame = 0
 683              		@ frame_needed = 0, uses_anonymous_args = 0
 684              	.LVL86:
 685 0000 38B5     		push	{r3, r4, r5, lr}
 686              		.cfi_def_cfa_offset 16
 687              		.cfi_offset 3, -16
 688              		.cfi_offset 4, -12
 689              		.cfi_offset 5, -8
 690              		.cfi_offset 14, -4
 691 0002 0546     		mov	r5, r0
 692              	.LVL87:
 823:Generated_Source\PSoC5/MDIO_Interface.c **** 
 693              		.loc 1 823 0
 694 0004 FF24     		movs	r4, #255
 825:Generated_Source\PSoC5/MDIO_Interface.c ****         {
 695              		.loc 1 825 0
 696 0006 04E0     		b	.L26
 697              	.LVL88:
 698              	.L28:
 830:Generated_Source\PSoC5/MDIO_Interface.c ****             CyDelayUs(1u);
 699              		.loc 1 830 0
 700 0008 013C     		subs	r4, r4, #1
 701              	.LVL89:
 702 000a E4B2     		uxtb	r4, r4
 703              	.LVL90:
 831:Generated_Source\PSoC5/MDIO_Interface.c ****         }
 704              		.loc 1 831 0
 705 000c 0120     		movs	r0, #1
 706 000e FFF7FEFF 		bl	CyDelayUs
 707              	.LVL91:
 708              	.L26:
 825:Generated_Source\PSoC5/MDIO_Interface.c ****         {
 709              		.loc 1 825 0
 710 0012 054B     		ldr	r3, .L32
 711 0014 1B78     		ldrb	r3, [r3]	@ zero_extendqisi2
 712 0016 2B42     		tst	r3, r5
 713 0018 01D1     		bne	.L27
 825:Generated_Source\PSoC5/MDIO_Interface.c ****         {
 714              		.loc 1 825 0 is_stmt 0 discriminator 1
 715 001a 002C     		cmp	r4, #0
 716 001c F4D1     		bne	.L28
 717              	.L27:
 833:Generated_Source\PSoC5/MDIO_Interface.c ****     }
 718              		.loc 1 833 0 is_stmt 1
 719 001e 0CB1     		cbz	r4, .L30
 720 0020 0020     		movs	r0, #0
 721 0022 38BD     		pop	{r3, r4, r5, pc}
 722              	.LVL92:
 723              	.L30:
 724 0024 1020     		movs	r0, #16
 834:Generated_Source\PSoC5/MDIO_Interface.c **** 
 725              		.loc 1 834 0
 726 0026 38BD     		pop	{r3, r4, r5, pc}
 727              	.LVL93:
 728              	.L33:
 729              		.align	2
ARM GAS  C:\Users\kopusov.FT\AppData\Local\Temp\ccT1QhKH.s 			page 37


 730              	.L32:
 731 0028 6A650040 		.word	1073767786
 732              		.cfi_endproc
 733              	.LFE14:
 734              		.size	MDIO_Interface_DmaIsComplete, .-MDIO_Interface_DmaIsComplete
 735              		.section	.text.MDIO_Interface_EnableInt,"ax",%progbits
 736              		.align	2
 737              		.global	MDIO_Interface_EnableInt
 738              		.thumb
 739              		.thumb_func
 740              		.type	MDIO_Interface_EnableInt, %function
 741              	MDIO_Interface_EnableInt:
 742              	.LFB4:
 302:Generated_Source\PSoC5/MDIO_Interface.c ****     MDIO_Interface_CONTROL_REG |= MDIO_Interface_INT_EN;
 743              		.loc 1 302 0
 744              		.cfi_startproc
 745              		@ args = 0, pretend = 0, frame = 0
 746              		@ frame_needed = 0, uses_anonymous_args = 0
 747              		@ link register save eliminated.
 303:Generated_Source\PSoC5/MDIO_Interface.c **** }
 748              		.loc 1 303 0
 749 0000 024A     		ldr	r2, .L35
 750 0002 1378     		ldrb	r3, [r2]	@ zero_extendqisi2
 751 0004 43F00203 		orr	r3, r3, #2
 752 0008 1370     		strb	r3, [r2]
 753 000a 7047     		bx	lr
 754              	.L36:
 755              		.align	2
 756              	.L35:
 757 000c 7B650040 		.word	1073767803
 758              		.cfi_endproc
 759              	.LFE4:
 760              		.size	MDIO_Interface_EnableInt, .-MDIO_Interface_EnableInt
 761              		.section	.text.MDIO_Interface_Enable,"ax",%progbits
 762              		.align	2
 763              		.global	MDIO_Interface_Enable
 764              		.thumb
 765              		.thumb_func
 766              		.type	MDIO_Interface_Enable, %function
 767              	MDIO_Interface_Enable:
 768              	.LFB0:
 118:Generated_Source\PSoC5/MDIO_Interface.c ****     uint8 enableInterrupts;
 769              		.loc 1 118 0
 770              		.cfi_startproc
 771              		@ args = 0, pretend = 0, frame = 0
 772              		@ frame_needed = 0, uses_anonymous_args = 0
 773 0000 08B5     		push	{r3, lr}
 774              		.cfi_def_cfa_offset 8
 775              		.cfi_offset 3, -8
 776              		.cfi_offset 14, -4
 121:Generated_Source\PSoC5/MDIO_Interface.c **** 
 777              		.loc 1 121 0
 778 0002 FFF7FEFF 		bl	CyEnterCriticalSection
 779              	.LVL94:
 124:Generated_Source\PSoC5/MDIO_Interface.c ****     CyExitCriticalSection(enableInterrupts);
 780              		.loc 1 124 0
 781 0006 084A     		ldr	r2, .L39
ARM GAS  C:\Users\kopusov.FT\AppData\Local\Temp\ccT1QhKH.s 			page 38


 782 0008 1378     		ldrb	r3, [r2]	@ zero_extendqisi2
 783 000a 43F02003 		orr	r3, r3, #32
 784 000e 1370     		strb	r3, [r2]
 125:Generated_Source\PSoC5/MDIO_Interface.c **** 
 785              		.loc 1 125 0
 786 0010 FFF7FEFF 		bl	CyExitCriticalSection
 787              	.LVL95:
 128:Generated_Source\PSoC5/MDIO_Interface.c ****     #endif /* MDIO_Interface_ADVANCED_MODE */
 788              		.loc 1 128 0
 789 0014 FFF7FEFF 		bl	MDIO_Interface_DmaEnable
 790              	.LVL96:
 132:Generated_Source\PSoC5/MDIO_Interface.c **** 
 791              		.loc 1 132 0
 792 0018 FFF7FEFF 		bl	MDIO_Interface_EnableInt
 793              	.LVL97:
 135:Generated_Source\PSoC5/MDIO_Interface.c **** }
 794              		.loc 1 135 0
 795 001c 034A     		ldr	r2, .L39+4
 796 001e 1378     		ldrb	r3, [r2]	@ zero_extendqisi2
 797 0020 43F00103 		orr	r3, r3, #1
 798 0024 1370     		strb	r3, [r2]
 799 0026 08BD     		pop	{r3, pc}
 800              	.L40:
 801              		.align	2
 802              	.L39:
 803 0028 98650040 		.word	1073767832
 804 002c 7B650040 		.word	1073767803
 805              		.cfi_endproc
 806              	.LFE0:
 807              		.size	MDIO_Interface_Enable, .-MDIO_Interface_Enable
 808              		.section	.text.MDIO_Interface_DisableInt,"ax",%progbits
 809              		.align	2
 810              		.global	MDIO_Interface_DisableInt
 811              		.thumb
 812              		.thumb_func
 813              		.type	MDIO_Interface_DisableInt, %function
 814              	MDIO_Interface_DisableInt:
 815              	.LFB5:
 322:Generated_Source\PSoC5/MDIO_Interface.c ****     MDIO_Interface_CONTROL_REG &= (uint8) ~MDIO_Interface_INT_EN;
 816              		.loc 1 322 0
 817              		.cfi_startproc
 818              		@ args = 0, pretend = 0, frame = 0
 819              		@ frame_needed = 0, uses_anonymous_args = 0
 820              		@ link register save eliminated.
 323:Generated_Source\PSoC5/MDIO_Interface.c **** }
 821              		.loc 1 323 0
 822 0000 024A     		ldr	r2, .L42
 823 0002 1378     		ldrb	r3, [r2]	@ zero_extendqisi2
 824 0004 03F0FD03 		and	r3, r3, #253
 825 0008 1370     		strb	r3, [r2]
 826 000a 7047     		bx	lr
 827              	.L43:
 828              		.align	2
 829              	.L42:
 830 000c 7B650040 		.word	1073767803
 831              		.cfi_endproc
 832              	.LFE5:
ARM GAS  C:\Users\kopusov.FT\AppData\Local\Temp\ccT1QhKH.s 			page 39


 833              		.size	MDIO_Interface_DisableInt, .-MDIO_Interface_DisableInt
 834              		.section	.text.MDIO_Interface_Stop,"ax",%progbits
 835              		.align	2
 836              		.global	MDIO_Interface_Stop
 837              		.thumb
 838              		.thumb_func
 839              		.type	MDIO_Interface_Stop, %function
 840              	MDIO_Interface_Stop:
 841              	.LFB3:
 253:Generated_Source\PSoC5/MDIO_Interface.c ****     uint8 enableInterrupts;
 842              		.loc 1 253 0
 843              		.cfi_startproc
 844              		@ args = 0, pretend = 0, frame = 0
 845              		@ frame_needed = 0, uses_anonymous_args = 0
 846 0000 08B5     		push	{r3, lr}
 847              		.cfi_def_cfa_offset 8
 848              		.cfi_offset 3, -8
 849              		.cfi_offset 14, -4
 256:Generated_Source\PSoC5/MDIO_Interface.c **** 
 850              		.loc 1 256 0
 851 0002 1C4A     		ldr	r2, .L46
 852 0004 1378     		ldrb	r3, [r2]	@ zero_extendqisi2
 853 0006 03F0FE03 		and	r3, r3, #254
 854 000a 1370     		strb	r3, [r2]
 259:Generated_Source\PSoC5/MDIO_Interface.c **** 
 855              		.loc 1 259 0
 856 000c FFF7FEFF 		bl	MDIO_Interface_DisableInt
 857              	.LVL98:
 263:Generated_Source\PSoC5/MDIO_Interface.c ****     #endif /* MDIO_Interface_ADVANCED_MODE */
 858              		.loc 1 263 0
 859 0010 FFF7FEFF 		bl	MDIO_Interface_DmaDisable
 860              	.LVL99:
 266:Generated_Source\PSoC5/MDIO_Interface.c ****     /* Disable Bit counter */
 861              		.loc 1 266 0
 862 0014 FFF7FEFF 		bl	CyEnterCriticalSection
 863              	.LVL100:
 268:Generated_Source\PSoC5/MDIO_Interface.c **** 
 864              		.loc 1 268 0
 865 0018 174A     		ldr	r2, .L46+4
 866 001a 1378     		ldrb	r3, [r2]	@ zero_extendqisi2
 867 001c 03F0DF03 		and	r3, r3, #223
 868 0020 1370     		strb	r3, [r2]
 272:Generated_Source\PSoC5/MDIO_Interface.c ****         MDIO_Interface_AC_AUX_CTL0_REG &= (uint8) ~MDIO_Interface_FX_CLEAR;
 869              		.loc 1 272 0
 870 0022 164B     		ldr	r3, .L46+8
 871 0024 1A78     		ldrb	r2, [r3]	@ zero_extendqisi2
 872 0026 42F00302 		orr	r2, r2, #3
 873 002a 1A70     		strb	r2, [r3]
 273:Generated_Source\PSoC5/MDIO_Interface.c ****         MDIO_Interface_AC_AUX_CTL1_REG |= MDIO_Interface_FX_CLEAR;
 874              		.loc 1 273 0
 875 002c 1A78     		ldrb	r2, [r3]	@ zero_extendqisi2
 876 002e 02F0FC02 		and	r2, r2, #252
 877 0032 1A70     		strb	r2, [r3]
 274:Generated_Source\PSoC5/MDIO_Interface.c ****         MDIO_Interface_AC_AUX_CTL1_REG &= (uint8) ~MDIO_Interface_FX_CLEAR;
 878              		.loc 1 274 0
 879 0034 0133     		adds	r3, r3, #1
 880 0036 1A78     		ldrb	r2, [r3]	@ zero_extendqisi2
ARM GAS  C:\Users\kopusov.FT\AppData\Local\Temp\ccT1QhKH.s 			page 40


 881 0038 42F00302 		orr	r2, r2, #3
 882 003c 1A70     		strb	r2, [r3]
 275:Generated_Source\PSoC5/MDIO_Interface.c ****     #endif /* MDIO_Interface_ADVANCED_MODE */
 883              		.loc 1 275 0
 884 003e 1A78     		ldrb	r2, [r3]	@ zero_extendqisi2
 885 0040 02F0FC02 		and	r2, r2, #252
 886 0044 1A70     		strb	r2, [r3]
 279:Generated_Source\PSoC5/MDIO_Interface.c ****     MDIO_Interface_FP_AUX_CTL0_REG &= (uint8) ~MDIO_Interface_F1_CLEAR;
 887              		.loc 1 279 0
 888 0046 03F20713 		addw	r3, r3, #263
 889 004a 1A78     		ldrb	r2, [r3]	@ zero_extendqisi2
 890 004c 42F00202 		orr	r2, r2, #2
 891 0050 1A70     		strb	r2, [r3]
 280:Generated_Source\PSoC5/MDIO_Interface.c ****     MDIO_Interface_FP_AUX_CTL1_REG |= MDIO_Interface_F1_CLEAR;
 892              		.loc 1 280 0
 893 0052 1A78     		ldrb	r2, [r3]	@ zero_extendqisi2
 894 0054 02F0FD02 		and	r2, r2, #253
 895 0058 1A70     		strb	r2, [r3]
 281:Generated_Source\PSoC5/MDIO_Interface.c ****     MDIO_Interface_FP_AUX_CTL1_REG &= (uint8) ~MDIO_Interface_F1_CLEAR;
 896              		.loc 1 281 0
 897 005a 0133     		adds	r3, r3, #1
 898 005c 1A78     		ldrb	r2, [r3]	@ zero_extendqisi2
 899 005e 42F00202 		orr	r2, r2, #2
 900 0062 1A70     		strb	r2, [r3]
 282:Generated_Source\PSoC5/MDIO_Interface.c ****     CyExitCriticalSection(enableInterrupts);
 901              		.loc 1 282 0
 902 0064 1A78     		ldrb	r2, [r3]	@ zero_extendqisi2
 903 0066 02F0FD02 		and	r2, r2, #253
 904 006a 1A70     		strb	r2, [r3]
 283:Generated_Source\PSoC5/MDIO_Interface.c **** }
 905              		.loc 1 283 0
 906 006c FFF7FEFF 		bl	CyExitCriticalSection
 907              	.LVL101:
 908 0070 08BD     		pop	{r3, pc}
 909              	.L47:
 910 0072 00BF     		.align	2
 911              	.L46:
 912 0074 7B650040 		.word	1073767803
 913 0078 98650040 		.word	1073767832
 914 007c 92640040 		.word	1073767570
 915              		.cfi_endproc
 916              	.LFE3:
 917              		.size	MDIO_Interface_Stop, .-MDIO_Interface_Stop
 918              		.section	.text.MDIO_Interface_SetDevAddress,"ax",%progbits
 919              		.align	2
 920              		.global	MDIO_Interface_SetDevAddress
 921              		.thumb
 922              		.thumb_func
 923              		.type	MDIO_Interface_SetDevAddress, %function
 924              	MDIO_Interface_SetDevAddress:
 925              	.LFB6:
 346:Generated_Source\PSoC5/MDIO_Interface.c ****     /* Update the address pattern with the device address */
 926              		.loc 1 346 0
 927              		.cfi_startproc
 928              		@ args = 0, pretend = 0, frame = 0
 929              		@ frame_needed = 0, uses_anonymous_args = 0
 930              		@ link register save eliminated.
ARM GAS  C:\Users\kopusov.FT\AppData\Local\Temp\ccT1QhKH.s 			page 41


 931              	.LVL102:
 348:Generated_Source\PSoC5/MDIO_Interface.c ****                  (uint16)((uint16)MDIO_Interface_phyAddress << MDIO_Interface_PHYADDR_POS) | devAdd
 932              		.loc 1 348 0
 933 0000 054A     		ldr	r2, .L49
 934 0002 92F88430 		ldrb	r3, [r2, #132]	@ zero_extendqisi2
 935 0006 40EA4313 		orr	r3, r0, r3, lsl #5
 936 000a 43F44043 		orr	r3, r3, #49152
 937 000e 0349     		ldr	r1, .L49+4
 938 0010 0B80     		strh	r3, [r1]	@ movhi
 350:Generated_Source\PSoC5/MDIO_Interface.c **** }
 939              		.loc 1 350 0
 940 0012 82F88500 		strb	r0, [r2, #133]
 941 0016 7047     		bx	lr
 942              	.L50:
 943              		.align	2
 944              	.L49:
 945 0018 00000000 		.word	.LANCHOR0
 946 001c 546A0040 		.word	1073769044
 947              		.cfi_endproc
 948              	.LFE6:
 949              		.size	MDIO_Interface_SetDevAddress, .-MDIO_Interface_SetDevAddress
 950              		.section	.text.MDIO_Interface_SetPhyAddress,"ax",%progbits
 951              		.align	2
 952              		.global	MDIO_Interface_SetPhyAddress
 953              		.thumb
 954              		.thumb_func
 955              		.type	MDIO_Interface_SetPhyAddress, %function
 956              	MDIO_Interface_SetPhyAddress:
 957              	.LFB7:
 370:Generated_Source\PSoC5/MDIO_Interface.c ****     phyAddr &= MDIO_Interface_PHYADDR_MASK;
 958              		.loc 1 370 0
 959              		.cfi_startproc
 960              		@ args = 0, pretend = 0, frame = 0
 961              		@ frame_needed = 0, uses_anonymous_args = 0
 962              		@ link register save eliminated.
 963              	.LVL103:
 371:Generated_Source\PSoC5/MDIO_Interface.c **** 
 964              		.loc 1 371 0
 965 0000 00F01F00 		and	r0, r0, #31
 966              	.LVL104:
 374:Generated_Source\PSoC5/MDIO_Interface.c ****                  (uint16)((uint16) phyAddr << MDIO_Interface_PHYADDR_POS) | MDIO_Interface_devAddre
 967              		.loc 1 374 0
 968 0004 054A     		ldr	r2, .L52
 969 0006 92F88530 		ldrb	r3, [r2, #133]	@ zero_extendqisi2
 970 000a 43EA4013 		orr	r3, r3, r0, lsl #5
 971 000e 43F44043 		orr	r3, r3, #49152
 972 0012 0349     		ldr	r1, .L52+4
 973 0014 0B80     		strh	r3, [r1]	@ movhi
 377:Generated_Source\PSoC5/MDIO_Interface.c **** }
 974              		.loc 1 377 0
 975 0016 82F88400 		strb	r0, [r2, #132]
 976 001a 7047     		bx	lr
 977              	.L53:
 978              		.align	2
 979              	.L52:
 980 001c 00000000 		.word	.LANCHOR0
 981 0020 546A0040 		.word	1073769044
ARM GAS  C:\Users\kopusov.FT\AppData\Local\Temp\ccT1QhKH.s 			page 42


 982              		.cfi_endproc
 983              	.LFE7:
 984              		.size	MDIO_Interface_SetPhyAddress, .-MDIO_Interface_SetPhyAddress
 985              		.section	.text.MDIO_Interface_UpdatePhyAddress,"ax",%progbits
 986              		.align	2
 987              		.global	MDIO_Interface_UpdatePhyAddress
 988              		.thumb
 989              		.thumb_func
 990              		.type	MDIO_Interface_UpdatePhyAddress, %function
 991              	MDIO_Interface_UpdatePhyAddress:
 992              	.LFB8:
 400:Generated_Source\PSoC5/MDIO_Interface.c ****     #if(MDIO_Interface_PHYADDR_HARDWARE)
 993              		.loc 1 400 0
 994              		.cfi_startproc
 995              		@ args = 0, pretend = 0, frame = 0
 996              		@ frame_needed = 0, uses_anonymous_args = 0
 997 0000 08B5     		push	{r3, lr}
 998              		.cfi_def_cfa_offset 8
 999              		.cfi_offset 3, -8
 1000              		.cfi_offset 14, -4
 404:Generated_Source\PSoC5/MDIO_Interface.c ****     #endif /* MDIO_Interface_PHYADDR_HARDWARE */
 1001              		.loc 1 404 0
 1002 0002 0020     		movs	r0, #0
 1003 0004 FFF7FEFF 		bl	MDIO_Interface_SetPhyAddress
 1004              	.LVL105:
 1005 0008 08BD     		pop	{r3, pc}
 1006              		.cfi_endproc
 1007              	.LFE8:
 1008              		.size	MDIO_Interface_UpdatePhyAddress, .-MDIO_Interface_UpdatePhyAddress
 1009 000a 00BF     		.section	.text.MDIO_Interface_Init,"ax",%progbits
 1010              		.align	2
 1011              		.global	MDIO_Interface_Init
 1012              		.thumb
 1013              		.thumb_func
 1014              		.type	MDIO_Interface_Init, %function
 1015              	MDIO_Interface_Init:
 1016              	.LFB1:
 160:Generated_Source\PSoC5/MDIO_Interface.c ****     #if(MDIO_Interface_ADVANCED_MODE)
 1017              		.loc 1 160 0
 1018              		.cfi_startproc
 1019              		@ args = 0, pretend = 0, frame = 0
 1020              		@ frame_needed = 0, uses_anonymous_args = 0
 1021 0000 08B5     		push	{r3, lr}
 1022              		.cfi_def_cfa_offset 8
 1023              		.cfi_offset 3, -8
 1024              		.cfi_offset 14, -4
 167:Generated_Source\PSoC5/MDIO_Interface.c ****     /* Set physical address */
 1025              		.loc 1 167 0
 1026 0002 0120     		movs	r0, #1
 1027 0004 FFF7FEFF 		bl	MDIO_Interface_SetDevAddress
 1028              	.LVL106:
 169:Generated_Source\PSoC5/MDIO_Interface.c **** 
 1029              		.loc 1 169 0
 1030 0008 FFF7FEFF 		bl	MDIO_Interface_UpdatePhyAddress
 1031              	.LVL107:
 171:Generated_Source\PSoC5/MDIO_Interface.c ****     /* Set Read FIFO in Single Buffer Mode */
 1032              		.loc 1 171 0
ARM GAS  C:\Users\kopusov.FT\AppData\Local\Temp\ccT1QhKH.s 			page 43


 1033 000c FFF7FEFF 		bl	CyEnterCriticalSection
 1034              	.LVL108:
 173:Generated_Source\PSoC5/MDIO_Interface.c ****     MDIO_Interface_FP_AUX_CTL1_REG |= MDIO_Interface_F0_CLEAR;
 1035              		.loc 1 173 0
 1036 0010 144A     		ldr	r2, .L59
 1037 0012 1378     		ldrb	r3, [r2]	@ zero_extendqisi2
 1038 0014 43F00103 		orr	r3, r3, #1
 1039 0018 1370     		strb	r3, [r2]
 174:Generated_Source\PSoC5/MDIO_Interface.c ****     CyExitCriticalSection(enableInterrupts);
 1040              		.loc 1 174 0
 1041 001a 0132     		adds	r2, r2, #1
 1042 001c 1378     		ldrb	r3, [r2]	@ zero_extendqisi2
 1043 001e 43F00103 		orr	r3, r3, #1
 1044 0022 1370     		strb	r3, [r2]
 175:Generated_Source\PSoC5/MDIO_Interface.c **** 
 1045              		.loc 1 175 0
 1046 0024 FFF7FEFF 		bl	CyExitCriticalSection
 1047              	.LVL109:
 178:Generated_Source\PSoC5/MDIO_Interface.c **** 
 1048              		.loc 1 178 0
 1049 0028 1E22     		movs	r2, #30
 1050 002a 0F4B     		ldr	r3, .L59+4
 1051 002c 1A70     		strb	r2, [r3]
 183:Generated_Source\PSoC5/MDIO_Interface.c ****         /* Set lower 16-bit address of page info array */
 1052              		.loc 1 183 0
 1053 002e 0822     		movs	r2, #8
 1054 0030 03F53873 		add	r3, r3, #736
 1055 0034 1A80     		strh	r2, [r3]	@ movhi
 185:Generated_Source\PSoC5/MDIO_Interface.c ****         /* Set memory type of each register page */
 1056              		.loc 1 185 0
 1057 0036 0D4A     		ldr	r2, .L59+8
 1058 0038 02F13803 		add	r3, r2, #56
 1059 003c 9BB2     		uxth	r3, r3
 1060 003e 0C49     		ldr	r1, .L59+12
 1061 0040 0B80     		strh	r3, [r1]	@ movhi
 187:Generated_Source\PSoC5/MDIO_Interface.c ****         /* Set data width of each register page */
 1062              		.loc 1 187 0
 1063 0042 3F23     		movs	r3, #63
 1064 0044 A1F2CF31 		subw	r1, r1, #975
 1065 0048 0B70     		strb	r3, [r1]
 189:Generated_Source\PSoC5/MDIO_Interface.c ****         /* Initialize Address analyzer DMAs */
 1066              		.loc 1 189 0
 1067 004a 0131     		adds	r1, r1, #1
 1068 004c 0B70     		strb	r3, [r1]
 191:Generated_Source\PSoC5/MDIO_Interface.c ****         {
 1069              		.loc 1 191 0
 1070 004e 92F88630 		ldrb	r3, [r2, #134]	@ zero_extendqisi2
 1071 0052 2BB9     		cbnz	r3, .L56
 193:Generated_Source\PSoC5/MDIO_Interface.c ****             MDIO_Interface_dmaInitDone = 1u;
 1072              		.loc 1 193 0
 1073 0054 FFF7FEFF 		bl	MDIO_Interface_DmaInit
 1074              	.LVL110:
 194:Generated_Source\PSoC5/MDIO_Interface.c ****         }
 1075              		.loc 1 194 0
 1076 0058 0122     		movs	r2, #1
 1077 005a 044B     		ldr	r3, .L59+8
 1078 005c 83F88620 		strb	r2, [r3, #134]
ARM GAS  C:\Users\kopusov.FT\AppData\Local\Temp\ccT1QhKH.s 			page 44


 1079              	.L56:
 1080 0060 08BD     		pop	{r3, pc}
 1081              	.L60:
 1082 0062 00BF     		.align	2
 1083              	.L59:
 1084 0064 9A650040 		.word	1073767834
 1085 0068 88650040 		.word	1073767816
 1086 006c 00000000 		.word	.LANCHOR0
 1087 0070 48680040 		.word	1073768520
 1088              		.cfi_endproc
 1089              	.LFE1:
 1090              		.size	MDIO_Interface_Init, .-MDIO_Interface_Init
 1091              		.section	.text.MDIO_Interface_Start,"ax",%progbits
 1092              		.align	2
 1093              		.global	MDIO_Interface_Start
 1094              		.thumb
 1095              		.thumb_func
 1096              		.type	MDIO_Interface_Start, %function
 1097              	MDIO_Interface_Start:
 1098              	.LFB2:
 224:Generated_Source\PSoC5/MDIO_Interface.c ****     if(0u == MDIO_Interface_initVar)
 1099              		.loc 1 224 0
 1100              		.cfi_startproc
 1101              		@ args = 0, pretend = 0, frame = 0
 1102              		@ frame_needed = 0, uses_anonymous_args = 0
 1103 0000 08B5     		push	{r3, lr}
 1104              		.cfi_def_cfa_offset 8
 1105              		.cfi_offset 3, -8
 1106              		.cfi_offset 14, -4
 225:Generated_Source\PSoC5/MDIO_Interface.c ****     {
 1107              		.loc 1 225 0
 1108 0002 064B     		ldr	r3, .L64
 1109 0004 93F88730 		ldrb	r3, [r3, #135]	@ zero_extendqisi2
 1110 0008 2BB9     		cbnz	r3, .L62
 227:Generated_Source\PSoC5/MDIO_Interface.c ****         MDIO_Interface_initVar = 1u;
 1111              		.loc 1 227 0
 1112 000a FFF7FEFF 		bl	MDIO_Interface_Init
 1113              	.LVL111:
 228:Generated_Source\PSoC5/MDIO_Interface.c ****     }
 1114              		.loc 1 228 0
 1115 000e 0122     		movs	r2, #1
 1116 0010 024B     		ldr	r3, .L64
 1117 0012 83F88720 		strb	r2, [r3, #135]
 1118              	.L62:
 231:Generated_Source\PSoC5/MDIO_Interface.c **** }
 1119              		.loc 1 231 0
 1120 0016 FFF7FEFF 		bl	MDIO_Interface_Enable
 1121              	.LVL112:
 1122 001a 08BD     		pop	{r3, pc}
 1123              	.L65:
 1124              		.align	2
 1125              	.L64:
 1126 001c 00000000 		.word	.LANCHOR0
 1127              		.cfi_endproc
 1128              	.LFE2:
 1129              		.size	MDIO_Interface_Start, .-MDIO_Interface_Start
 1130              		.section	.text.MDIO_Interface_GetAddress,"ax",%progbits
ARM GAS  C:\Users\kopusov.FT\AppData\Local\Temp\ccT1QhKH.s 			page 45


 1131              		.align	2
 1132              		.global	MDIO_Interface_GetAddress
 1133              		.thumb
 1134              		.thumb_func
 1135              		.type	MDIO_Interface_GetAddress, %function
 1136              	MDIO_Interface_GetAddress:
 1137              	.LFB9:
 481:Generated_Source\PSoC5/MDIO_Interface.c ****         return(CY_GET_REG16(MDIO_Interface_LAST_ADDR_PTR));
 1138              		.loc 1 481 0
 1139              		.cfi_startproc
 1140              		@ args = 0, pretend = 0, frame = 0
 1141              		@ frame_needed = 0, uses_anonymous_args = 0
 1142              		@ link register save eliminated.
 482:Generated_Source\PSoC5/MDIO_Interface.c ****     }
 1143              		.loc 1 482 0
 1144 0000 014B     		ldr	r3, .L67
 1145 0002 1888     		ldrh	r0, [r3]
 483:Generated_Source\PSoC5/MDIO_Interface.c **** 
 1146              		.loc 1 483 0
 1147 0004 80B2     		uxth	r0, r0
 1148 0006 7047     		bx	lr
 1149              	.L68:
 1150              		.align	2
 1151              	.L67:
 1152 0008 24680040 		.word	1073768484
 1153              		.cfi_endproc
 1154              	.LFE9:
 1155              		.size	MDIO_Interface_GetAddress, .-MDIO_Interface_GetAddress
 1156              		.section	.text.MDIO_Interface_GetData,"ax",%progbits
 1157              		.align	2
 1158              		.global	MDIO_Interface_GetData
 1159              		.thumb
 1160              		.thumb_func
 1161              		.type	MDIO_Interface_GetData, %function
 1162              	MDIO_Interface_GetData:
 1163              	.LFB10:
 510:Generated_Source\PSoC5/MDIO_Interface.c ****         uint8  result = CYRET_BAD_PARAM;
 1164              		.loc 1 510 0
 1165              		.cfi_startproc
 1166              		@ args = 0, pretend = 0, frame = 0
 1167              		@ frame_needed = 0, uses_anonymous_args = 0
 1168              	.LVL113:
 1169 0000 2DE9F843 		push	{r3, r4, r5, r6, r7, r8, r9, lr}
 1170              		.cfi_def_cfa_offset 32
 1171              		.cfi_offset 3, -32
 1172              		.cfi_offset 4, -28
 1173              		.cfi_offset 5, -24
 1174              		.cfi_offset 6, -20
 1175              		.cfi_offset 7, -16
 1176              		.cfi_offset 8, -12
 1177              		.cfi_offset 9, -8
 1178              		.cfi_offset 14, -4
 1179 0004 0646     		mov	r6, r0
 1180 0006 8846     		mov	r8, r1
 1181 0008 1746     		mov	r7, r2
 1182              	.LVL114:
 516:Generated_Source\PSoC5/MDIO_Interface.c ****         {
ARM GAS  C:\Users\kopusov.FT\AppData\Local\Temp\ccT1QhKH.s 			page 46


 1183              		.loc 1 516 0
 1184 000a 0024     		movs	r4, #0
 511:Generated_Source\PSoC5/MDIO_Interface.c ****         uint8  i;
 1185              		.loc 1 511 0
 1186 000c 0120     		movs	r0, #1
 1187              	.LVL115:
 516:Generated_Source\PSoC5/MDIO_Interface.c ****         {
 1188              		.loc 1 516 0
 1189 000e 3DE0     		b	.L70
 1190              	.LVL116:
 1191              	.L73:
 519:Generated_Source\PSoC5/MDIO_Interface.c ****             {
 1192              		.loc 1 519 0
 1193 0010 214B     		ldr	r3, .L75
 1194 0012 33F81430 		ldrh	r3, [r3, r4, lsl #1]
 1195 0016 B342     		cmp	r3, r6
 1196 0018 36D8     		bhi	.L71
 519:Generated_Source\PSoC5/MDIO_Interface.c ****             {
 1197              		.loc 1 519 0 is_stmt 0 discriminator 1
 1198 001a 1F4A     		ldr	r2, .L75
 1199 001c 02EB4402 		add	r2, r2, r4, lsl #1
 1200 0020 9289     		ldrh	r2, [r2, #12]
 1201 0022 B242     		cmp	r2, r6
 1202 0024 30D3     		bcc	.L71
 531:Generated_Source\PSoC5/MDIO_Interface.c ****                 {
 1203              		.loc 1 531 0 is_stmt 1
 1204 0026 921B     		subs	r2, r2, r6
 1205 0028 0132     		adds	r2, r2, #1
 1206 002a 9742     		cmp	r7, r2
 1207 002c 2CD8     		bhi	.L71
 533:Generated_Source\PSoC5/MDIO_Interface.c **** 
 1208              		.loc 1 533 0
 1209 002e F31A     		subs	r3, r6, r3
 1210 0030 9BB2     		uxth	r3, r3
 1211              	.LVL117:
 541:Generated_Source\PSoC5/MDIO_Interface.c ****                             numWords += numWords; /* TD_SIZE is expected in bytes */
 1212              		.loc 1 541 0
 1213 0032 5D00     		lsls	r5, r3, #1
 1214 0034 ABB2     		uxth	r3, r5
 1215              	.LVL118:
 542:Generated_Source\PSoC5/MDIO_Interface.c ****                         }
 1216              		.loc 1 542 0
 1217 0036 7F00     		lsls	r7, r7, #1
 1218              	.LVL119:
 1219 0038 BFB2     		uxth	r7, r7
 1220              	.LVL120:
 546:Generated_Source\PSoC5/MDIO_Interface.c **** 
 1221              		.loc 1 546 0
 1222 003a DFF86490 		ldr	r9, .L75+8
 1223 003e 09EB8401 		add	r1, r9, r4, lsl #2
 1224 0042 8D6E     		ldr	r5, [r1, #104]
 1225 0044 1D44     		add	r5, r5, r3
 1226              	.LVL121:
 552:Generated_Source\PSoC5/MDIO_Interface.c ****                         MDIO_Interface_FW_DMA_BYTES_PER_BURST, MDIO_Interface_FW_DMA_REQUEST_PER_BU
 1227              		.loc 1 552 0
 1228 0046 0220     		movs	r0, #2
 1229              	.LVL122:
ARM GAS  C:\Users\kopusov.FT\AppData\Local\Temp\ccT1QhKH.s 			page 47


 1230 0048 0021     		movs	r1, #0
 1231 004a 2A0C     		lsrs	r2, r5, #16
 1232 004c 41F6FF73 		movw	r3, #8191
 1233              	.LVL123:
 1234 0050 FFF7FEFF 		bl	MDIO_Interface_FwDMA1_DmaInitialize
 1235              	.LVL124:
 1236 0054 89F82500 		strb	r0, [r9, #37]
 555:Generated_Source\PSoC5/MDIO_Interface.c ****                         DMA_INVALID_TD, MDIO_Interface_FW_DMA1_CFG);
 1237              		.loc 1 555 0
 1238 0058 99F82400 		ldrb	r0, [r9, #36]	@ zero_extendqisi2
 1239 005c 3946     		mov	r1, r7
 1240 005e FF22     		movs	r2, #255
 1241 0060 8723     		movs	r3, #135
 1242 0062 FFF7FEFF 		bl	CyDmaTdSetConfiguration
 1243              	.LVL125:
 557:Generated_Source\PSoC5/MDIO_Interface.c **** 
 1244              		.loc 1 557 0
 1245 0066 99F82400 		ldrb	r0, [r9, #36]	@ zero_extendqisi2
 1246 006a A9B2     		uxth	r1, r5
 1247 006c 1FFA88F2 		uxth	r2, r8
 1248 0070 FFF7FEFF 		bl	CyDmaTdSetAddress
 1249              	.LVL126:
 560:Generated_Source\PSoC5/MDIO_Interface.c **** 
 1250              		.loc 1 560 0
 1251 0074 094B     		ldr	r3, .L75+4
 1252 0076 1B78     		ldrb	r3, [r3]	@ zero_extendqisi2
 563:Generated_Source\PSoC5/MDIO_Interface.c ****                     result = MDIO_Interface_DmaIsComplete(MDIO_Interface_FW_DMA1_MASK);
 1253              		.loc 1 563 0
 1254 0078 99F82500 		ldrb	r0, [r9, #37]	@ zero_extendqisi2
 1255 007c 0121     		movs	r1, #1
 1256 007e FFF7FEFF 		bl	CyDmaChSetRequest
 1257              	.LVL127:
 564:Generated_Source\PSoC5/MDIO_Interface.c ****                 }
 1258              		.loc 1 564 0
 1259 0082 0120     		movs	r0, #1
 1260 0084 FFF7FEFF 		bl	MDIO_Interface_DmaIsComplete
 1261              	.LVL128:
 1262              	.L71:
 516:Generated_Source\PSoC5/MDIO_Interface.c ****         {
 1263              		.loc 1 516 0 discriminator 2
 1264 0088 0134     		adds	r4, r4, #1
 1265              	.LVL129:
 1266 008a E4B2     		uxtb	r4, r4
 1267              	.LVL130:
 1268              	.L70:
 516:Generated_Source\PSoC5/MDIO_Interface.c ****         {
 1269              		.loc 1 516 0 is_stmt 0 discriminator 1
 1270 008c 052C     		cmp	r4, #5
 1271 008e 01D8     		bhi	.L72
 516:Generated_Source\PSoC5/MDIO_Interface.c ****         {
 1272              		.loc 1 516 0 discriminator 3
 1273 0090 0028     		cmp	r0, #0
 1274 0092 BDD1     		bne	.L73
 1275              	.L72:
 569:Generated_Source\PSoC5/MDIO_Interface.c **** 
 1276              		.loc 1 569 0 is_stmt 1
 1277 0094 BDE8F883 		pop	{r3, r4, r5, r6, r7, r8, r9, pc}
ARM GAS  C:\Users\kopusov.FT\AppData\Local\Temp\ccT1QhKH.s 			page 48


 1278              	.LVL131:
 1279              	.L76:
 1280              		.align	2
 1281              	.L75:
 1282 0098 00000000 		.word	.LANCHOR1
 1283 009c 6A650040 		.word	1073767786
 1284 00a0 00000000 		.word	.LANCHOR0
 1285              		.cfi_endproc
 1286              	.LFE10:
 1287              		.size	MDIO_Interface_GetData, .-MDIO_Interface_GetData
 1288              		.section	.text.MDIO_Interface_SetData,"ax",%progbits
 1289              		.align	2
 1290              		.global	MDIO_Interface_SetData
 1291              		.thumb
 1292              		.thumb_func
 1293              		.type	MDIO_Interface_SetData, %function
 1294              	MDIO_Interface_SetData:
 1295              	.LFB11:
 597:Generated_Source\PSoC5/MDIO_Interface.c ****             uint8 result = CYRET_BAD_PARAM;
 1296              		.loc 1 597 0
 1297              		.cfi_startproc
 1298              		@ args = 0, pretend = 0, frame = 0
 1299              		@ frame_needed = 0, uses_anonymous_args = 0
 1300              	.LVL132:
 1301 0000 2DE9F843 		push	{r3, r4, r5, r6, r7, r8, r9, lr}
 1302              		.cfi_def_cfa_offset 32
 1303              		.cfi_offset 3, -32
 1304              		.cfi_offset 4, -28
 1305              		.cfi_offset 5, -24
 1306              		.cfi_offset 6, -20
 1307              		.cfi_offset 7, -16
 1308              		.cfi_offset 8, -12
 1309              		.cfi_offset 9, -8
 1310              		.cfi_offset 14, -4
 1311 0004 0646     		mov	r6, r0
 1312 0006 8846     		mov	r8, r1
 1313 0008 1746     		mov	r7, r2
 1314              	.LVL133:
 603:Generated_Source\PSoC5/MDIO_Interface.c ****             {
 1315              		.loc 1 603 0
 1316 000a 0024     		movs	r4, #0
 598:Generated_Source\PSoC5/MDIO_Interface.c ****             uint8 i;
 1317              		.loc 1 598 0
 1318 000c 0120     		movs	r0, #1
 1319              	.LVL134:
 603:Generated_Source\PSoC5/MDIO_Interface.c ****             {
 1320              		.loc 1 603 0
 1321 000e 3DE0     		b	.L78
 1322              	.LVL135:
 1323              	.L81:
 606:Generated_Source\PSoC5/MDIO_Interface.c ****                 {
 1324              		.loc 1 606 0
 1325 0010 214B     		ldr	r3, .L83
 1326 0012 33F81430 		ldrh	r3, [r3, r4, lsl #1]
 1327 0016 B342     		cmp	r3, r6
 1328 0018 36D8     		bhi	.L79
 606:Generated_Source\PSoC5/MDIO_Interface.c ****                 {
ARM GAS  C:\Users\kopusov.FT\AppData\Local\Temp\ccT1QhKH.s 			page 49


 1329              		.loc 1 606 0 is_stmt 0 discriminator 1
 1330 001a 1F4A     		ldr	r2, .L83
 1331 001c 02EB4402 		add	r2, r2, r4, lsl #1
 1332 0020 9289     		ldrh	r2, [r2, #12]
 1333 0022 B242     		cmp	r2, r6
 1334 0024 30D3     		bcc	.L79
 623:Generated_Source\PSoC5/MDIO_Interface.c ****                         {
 1335              		.loc 1 623 0 is_stmt 1
 1336 0026 921B     		subs	r2, r2, r6
 1337 0028 0132     		adds	r2, r2, #1
 1338 002a 9742     		cmp	r7, r2
 1339 002c 2CD8     		bhi	.L79
 625:Generated_Source\PSoC5/MDIO_Interface.c **** 
 1340              		.loc 1 625 0
 1341 002e F31A     		subs	r3, r6, r3
 1342 0030 9BB2     		uxth	r3, r3
 1343              	.LVL136:
 633:Generated_Source\PSoC5/MDIO_Interface.c ****                                     numWords += numWords; /* TD_SIZE is expected in bytes */
 1344              		.loc 1 633 0
 1345 0032 5D00     		lsls	r5, r3, #1
 1346 0034 ABB2     		uxth	r3, r5
 1347              	.LVL137:
 634:Generated_Source\PSoC5/MDIO_Interface.c ****                                 }
 1348              		.loc 1 634 0
 1349 0036 7F00     		lsls	r7, r7, #1
 1350              	.LVL138:
 1351 0038 BFB2     		uxth	r7, r7
 1352              	.LVL139:
 638:Generated_Source\PSoC5/MDIO_Interface.c **** 
 1353              		.loc 1 638 0
 1354 003a DFF86490 		ldr	r9, .L83+8
 1355 003e 09EB8401 		add	r1, r9, r4, lsl #2
 1356 0042 8D6E     		ldr	r5, [r1, #104]
 1357 0044 1D44     		add	r5, r5, r3
 1358              	.LVL140:
 644:Generated_Source\PSoC5/MDIO_Interface.c ****                                 MDIO_Interface_FW_DMA_BYTES_PER_BURST, MDIO_Interface_FW_DMA_REQUES
 1359              		.loc 1 644 0
 1360 0046 0220     		movs	r0, #2
 1361              	.LVL141:
 1362 0048 0021     		movs	r1, #0
 1363 004a 41F6FF72 		movw	r2, #8191
 1364 004e 2B0C     		lsrs	r3, r5, #16
 1365              	.LVL142:
 1366 0050 FFF7FEFF 		bl	MDIO_Interface_FwDMA1_DmaInitialize
 1367              	.LVL143:
 1368 0054 89F82500 		strb	r0, [r9, #37]
 648:Generated_Source\PSoC5/MDIO_Interface.c ****                                 DMA_INVALID_TD, MDIO_Interface_FW_DMA1_CFG);
 1369              		.loc 1 648 0
 1370 0058 99F82400 		ldrb	r0, [r9, #36]	@ zero_extendqisi2
 1371 005c 3946     		mov	r1, r7
 1372 005e FF22     		movs	r2, #255
 1373 0060 8723     		movs	r3, #135
 1374 0062 FFF7FEFF 		bl	CyDmaTdSetConfiguration
 1375              	.LVL144:
 650:Generated_Source\PSoC5/MDIO_Interface.c ****                                                                                      LO16(memAddr))
 1376              		.loc 1 650 0
 1377 0066 99F82400 		ldrb	r0, [r9, #36]	@ zero_extendqisi2
ARM GAS  C:\Users\kopusov.FT\AppData\Local\Temp\ccT1QhKH.s 			page 50


 1378 006a 1FFA88F1 		uxth	r1, r8
 1379 006e AAB2     		uxth	r2, r5
 1380 0070 FFF7FEFF 		bl	CyDmaTdSetAddress
 1381              	.LVL145:
 654:Generated_Source\PSoC5/MDIO_Interface.c **** 
 1382              		.loc 1 654 0
 1383 0074 094B     		ldr	r3, .L83+4
 1384 0076 1B78     		ldrb	r3, [r3]	@ zero_extendqisi2
 657:Generated_Source\PSoC5/MDIO_Interface.c ****                             result = MDIO_Interface_DmaIsComplete(MDIO_Interface_FW_DMA1_MASK);
 1385              		.loc 1 657 0
 1386 0078 99F82500 		ldrb	r0, [r9, #37]	@ zero_extendqisi2
 1387 007c 0121     		movs	r1, #1
 1388 007e FFF7FEFF 		bl	CyDmaChSetRequest
 1389              	.LVL146:
 658:Generated_Source\PSoC5/MDIO_Interface.c ****                         }
 1390              		.loc 1 658 0
 1391 0082 0120     		movs	r0, #1
 1392 0084 FFF7FEFF 		bl	MDIO_Interface_DmaIsComplete
 1393              	.LVL147:
 1394              	.L79:
 603:Generated_Source\PSoC5/MDIO_Interface.c ****             {
 1395              		.loc 1 603 0 discriminator 2
 1396 0088 0134     		adds	r4, r4, #1
 1397              	.LVL148:
 1398 008a E4B2     		uxtb	r4, r4
 1399              	.LVL149:
 1400              	.L78:
 603:Generated_Source\PSoC5/MDIO_Interface.c ****             {
 1401              		.loc 1 603 0 is_stmt 0 discriminator 1
 1402 008c 052C     		cmp	r4, #5
 1403 008e 01D8     		bhi	.L80
 603:Generated_Source\PSoC5/MDIO_Interface.c ****             {
 1404              		.loc 1 603 0 discriminator 3
 1405 0090 0028     		cmp	r0, #0
 1406 0092 BDD1     		bne	.L81
 1407              	.L80:
 664:Generated_Source\PSoC5/MDIO_Interface.c **** 
 1408              		.loc 1 664 0 is_stmt 1
 1409 0094 BDE8F883 		pop	{r3, r4, r5, r6, r7, r8, r9, pc}
 1410              	.LVL150:
 1411              	.L84:
 1412              		.align	2
 1413              	.L83:
 1414 0098 00000000 		.word	.LANCHOR1
 1415 009c 6A650040 		.word	1073767786
 1416 00a0 00000000 		.word	.LANCHOR0
 1417              		.cfi_endproc
 1418              	.LFE11:
 1419              		.size	MDIO_Interface_SetData, .-MDIO_Interface_SetData
 1420              		.section	.text.MDIO_Interface_SetBits,"ax",%progbits
 1421              		.align	2
 1422              		.global	MDIO_Interface_SetBits
 1423              		.thumb
 1424              		.thumb_func
 1425              		.type	MDIO_Interface_SetBits, %function
 1426              	MDIO_Interface_SetBits:
 1427              	.LFB12:
ARM GAS  C:\Users\kopusov.FT\AppData\Local\Temp\ccT1QhKH.s 			page 51


 685:Generated_Source\PSoC5/MDIO_Interface.c ****             uint8  result = CYRET_BAD_PARAM;
 1428              		.loc 1 685 0
 1429              		.cfi_startproc
 1430              		@ args = 0, pretend = 0, frame = 0
 1431              		@ frame_needed = 0, uses_anonymous_args = 0
 1432              	.LVL151:
 1433 0000 2DE9F041 		push	{r4, r5, r6, r7, r8, lr}
 1434              		.cfi_def_cfa_offset 24
 1435              		.cfi_offset 4, -24
 1436              		.cfi_offset 5, -20
 1437              		.cfi_offset 6, -16
 1438              		.cfi_offset 7, -12
 1439              		.cfi_offset 8, -8
 1440              		.cfi_offset 14, -4
 1441 0004 0646     		mov	r6, r0
 1442 0006 0F46     		mov	r7, r1
 1443              	.LVL152:
 693:Generated_Source\PSoC5/MDIO_Interface.c ****             {
 1444              		.loc 1 693 0
 1445 0008 0024     		movs	r4, #0
 686:Generated_Source\PSoC5/MDIO_Interface.c ****             uint8  i;
 1446              		.loc 1 686 0
 1447 000a 0120     		movs	r0, #1
 1448              	.LVL153:
 693:Generated_Source\PSoC5/MDIO_Interface.c ****             {
 1449              		.loc 1 693 0
 1450 000c 46E0     		b	.L86
 1451              	.LVL154:
 1452              	.L89:
 696:Generated_Source\PSoC5/MDIO_Interface.c ****                 {
 1453              		.loc 1 696 0
 1454 000e 264B     		ldr	r3, .L91
 1455 0010 33F81430 		ldrh	r3, [r3, r4, lsl #1]
 1456 0014 B342     		cmp	r3, r6
 1457 0016 3FD8     		bhi	.L87
 696:Generated_Source\PSoC5/MDIO_Interface.c ****                 {
 1458              		.loc 1 696 0 is_stmt 0 discriminator 1
 1459 0018 234A     		ldr	r2, .L91
 1460 001a 02EB4402 		add	r2, r2, r4, lsl #1
 1461 001e 9289     		ldrh	r2, [r2, #12]
 1462 0020 B242     		cmp	r2, r6
 1463 0022 39D3     		bcc	.L87
 713:Generated_Source\PSoC5/MDIO_Interface.c ****                         {
 1464              		.loc 1 713 0 is_stmt 1
 1465 0024 921B     		subs	r2, r2, r6
 1466 0026 B2F1FF3F 		cmp	r2, #-1
 1467 002a 35D0     		beq	.L87
 715:Generated_Source\PSoC5/MDIO_Interface.c **** 
 1468              		.loc 1 715 0
 1469 002c F51A     		subs	r5, r6, r3
 1470 002e ADB2     		uxth	r5, r5
 1471              	.LVL155:
 723:Generated_Source\PSoC5/MDIO_Interface.c ****                                 }
 1472              		.loc 1 723 0
 1473 0030 6D00     		lsls	r5, r5, #1
 1474              	.LVL156:
 1475 0032 ABB2     		uxth	r3, r5
ARM GAS  C:\Users\kopusov.FT\AppData\Local\Temp\ccT1QhKH.s 			page 52


 1476              	.LVL157:
 727:Generated_Source\PSoC5/MDIO_Interface.c **** 
 1477              		.loc 1 727 0
 1478 0034 DFF88080 		ldr	r8, .L91+16
 1479 0038 08EB8401 		add	r1, r8, r4, lsl #2
 1480 003c 8D6E     		ldr	r5, [r1, #104]
 1481 003e 1D44     		add	r5, r5, r3
 1482              	.LVL158:
 730:Generated_Source\PSoC5/MDIO_Interface.c **** 
 1483              		.loc 1 730 0
 1484 0040 1A4B     		ldr	r3, .L91+4
 1485              	.LVL159:
 1486 0042 1F80     		strh	r7, [r3]	@ movhi
 1487              	.LVL160:
 742:Generated_Source\PSoC5/MDIO_Interface.c ****                                 MDIO_Interface_FW_DMA_BYTES_PER_BURST, MDIO_Interface_FW_DMA_REQUES
 1488              		.loc 1 742 0
 1489 0044 0220     		movs	r0, #2
 1490              	.LVL161:
 1491 0046 0021     		movs	r1, #0
 1492 0048 41F6FF72 		movw	r2, #8191
 1493 004c 4FF48043 		mov	r3, #16384
 1494 0050 FFF7FEFF 		bl	MDIO_Interface_FwDMA1_DmaInitialize
 1495              	.LVL162:
 1496 0054 88F82500 		strb	r0, [r8, #37]
 747:Generated_Source\PSoC5/MDIO_Interface.c ****                                 LO16((uint32)MDIO_Interface_REG_VAL_PTR));
 1497              		.loc 1 747 0
 1498 0058 ADB2     		uxth	r5, r5
 1499              	.LVL163:
 1500 005a 98F82400 		ldrb	r0, [r8, #36]	@ zero_extendqisi2
 1501 005e 2946     		mov	r1, r5
 1502 0060 46F61022 		movw	r2, #27152
 1503 0064 FFF7FEFF 		bl	CyDmaTdSetAddress
 1504              	.LVL164:
 751:Generated_Source\PSoC5/MDIO_Interface.c ****                                 LO16((uint32)MDIO_Interface_REG_VAL_PTR), LO16(memAddr));
 1505              		.loc 1 751 0
 1506 0068 98F82800 		ldrb	r0, [r8, #40]	@ zero_extendqisi2
 1507 006c 46F61021 		movw	r1, #27152
 1508 0070 2A46     		mov	r2, r5
 1509 0072 FFF7FEFF 		bl	CyDmaTdSetAddress
 1510              	.LVL165:
 755:Generated_Source\PSoC5/MDIO_Interface.c ****                                 MDIO_Interface_FW_DMA_TD_SIZE, DMA_INVALID_TD,
 1511              		.loc 1 755 0
 1512 0076 98F82400 		ldrb	r0, [r8, #36]	@ zero_extendqisi2
 1513 007a 0221     		movs	r1, #2
 1514 007c FF22     		movs	r2, #255
 1515 007e 8523     		movs	r3, #133
 1516 0080 FFF7FEFF 		bl	CyDmaTdSetConfiguration
 1517              	.LVL166:
 760:Generated_Source\PSoC5/MDIO_Interface.c **** 
 1518              		.loc 1 760 0
 1519 0084 0A4B     		ldr	r3, .L91+8
 1520 0086 1B78     		ldrb	r3, [r3]	@ zero_extendqisi2
 763:Generated_Source\PSoC5/MDIO_Interface.c ****                             result = MDIO_Interface_DmaIsComplete(MDIO_Interface_FW_DMA2_MASK);
 1521              		.loc 1 763 0
 1522 0088 0A4A     		ldr	r2, .L91+12
 1523 008a 1378     		ldrb	r3, [r2]	@ zero_extendqisi2
 1524 008c 83F00403 		eor	r3, r3, #4
ARM GAS  C:\Users\kopusov.FT\AppData\Local\Temp\ccT1QhKH.s 			page 53


 1525 0090 1370     		strb	r3, [r2]
 764:Generated_Source\PSoC5/MDIO_Interface.c ****                         }
 1526              		.loc 1 764 0
 1527 0092 0220     		movs	r0, #2
 1528 0094 FFF7FEFF 		bl	MDIO_Interface_DmaIsComplete
 1529              	.LVL167:
 1530              	.L87:
 693:Generated_Source\PSoC5/MDIO_Interface.c ****             {
 1531              		.loc 1 693 0 discriminator 2
 1532 0098 0134     		adds	r4, r4, #1
 1533              	.LVL168:
 1534 009a E4B2     		uxtb	r4, r4
 1535              	.LVL169:
 1536              	.L86:
 693:Generated_Source\PSoC5/MDIO_Interface.c ****             {
 1537              		.loc 1 693 0 is_stmt 0 discriminator 1
 1538 009c 052C     		cmp	r4, #5
 1539 009e 01D8     		bhi	.L88
 693:Generated_Source\PSoC5/MDIO_Interface.c ****             {
 1540              		.loc 1 693 0 discriminator 3
 1541 00a0 0028     		cmp	r0, #0
 1542 00a2 B4D1     		bne	.L89
 1543              	.L88:
 770:Generated_Source\PSoC5/MDIO_Interface.c **** 
 1544              		.loc 1 770 0 is_stmt 1
 1545 00a4 BDE8F081 		pop	{r4, r5, r6, r7, r8, pc}
 1546              	.LVL170:
 1547              	.L92:
 1548              		.align	2
 1549              	.L91:
 1550 00a8 00000000 		.word	.LANCHOR1
 1551 00ac 306A0040 		.word	1073769008
 1552 00b0 6A650040 		.word	1073767786
 1553 00b4 7B650040 		.word	1073767803
 1554 00b8 00000000 		.word	.LANCHOR0
 1555              		.cfi_endproc
 1556              	.LFE12:
 1557              		.size	MDIO_Interface_SetBits, .-MDIO_Interface_SetBits
 1558              		.section	.text.MDIO_Interface_GetConfiguration,"ax",%progbits
 1559              		.align	2
 1560              		.global	MDIO_Interface_GetConfiguration
 1561              		.thumb
 1562              		.thumb_func
 1563              		.type	MDIO_Interface_GetConfiguration, %function
 1564              	MDIO_Interface_GetConfiguration:
 1565              	.LFB13:
 790:Generated_Source\PSoC5/MDIO_Interface.c ****         uint8 * config;
 1566              		.loc 1 790 0
 1567              		.cfi_startproc
 1568              		@ args = 0, pretend = 0, frame = 0
 1569              		@ frame_needed = 0, uses_anonymous_args = 0
 1570              		@ link register save eliminated.
 1571              	.LVL171:
 794:Generated_Source\PSoC5/MDIO_Interface.c ****         {
 1572              		.loc 1 794 0
 1573 0000 431E     		subs	r3, r0, #1
 1574 0002 DBB2     		uxtb	r3, r3
ARM GAS  C:\Users\kopusov.FT\AppData\Local\Temp\ccT1QhKH.s 			page 54


 1575 0004 052B     		cmp	r3, #5
 1576 0006 08D8     		bhi	.L95
 796:Generated_Source\PSoC5/MDIO_Interface.c ****             regSpace--;
 1577              		.loc 1 796 0
 1578 0008 4000     		lsls	r0, r0, #1
 1579              	.LVL172:
 797:Generated_Source\PSoC5/MDIO_Interface.c ****             config = (uint8 *)MDIO_Interface_pageInfoList[regSpace];
 1580              		.loc 1 797 0
 1581 000a 0138     		subs	r0, r0, #1
 1582              	.LVL173:
 1583 000c 00F0FF00 		and	r0, r0, #255
 1584              	.LVL174:
 798:Generated_Source\PSoC5/MDIO_Interface.c ****         }
 1585              		.loc 1 798 0
 1586 0010 034B     		ldr	r3, .L96
 1587 0012 03EB8000 		add	r0, r3, r0, lsl #2
 1588              	.LVL175:
 1589 0016 806B     		ldr	r0, [r0, #56]
 1590              	.LVL176:
 1591 0018 7047     		bx	lr
 1592              	.LVL177:
 1593              	.L95:
 792:Generated_Source\PSoC5/MDIO_Interface.c **** 
 1594              		.loc 1 792 0
 1595 001a 0020     		movs	r0, #0
 1596              	.LVL178:
 801:Generated_Source\PSoC5/MDIO_Interface.c **** 
 1597              		.loc 1 801 0
 1598 001c 7047     		bx	lr
 1599              	.L97:
 1600 001e 00BF     		.align	2
 1601              	.L96:
 1602 0020 00000000 		.word	.LANCHOR0
 1603              		.cfi_endproc
 1604              	.LFE13:
 1605              		.size	MDIO_Interface_GetConfiguration, .-MDIO_Interface_GetConfiguration
 1606              		.global	MDIO_Interface_initVar
 1607              		.data
 1608              		.align	2
 1609              		.set	.LANCHOR1,. + 0
 1610              		.type	MDIO_Interface_pageStartAddr, %object
 1611              		.size	MDIO_Interface_pageStartAddr, 12
 1612              	MDIO_Interface_pageStartAddr:
 1613 0000 0080     		.short	-32768
 1614 0002 0084     		.short	-31744
 1615 0004 0088     		.short	-30720
 1616 0006 00A0     		.short	-24576
 1617 0008 00A2     		.short	-24064
 1618 000a 00A4     		.short	-23552
 1619              		.type	MDIO_Interface_pageEndAddr, %object
 1620              		.size	MDIO_Interface_pageEndAddr, 12
 1621              	MDIO_Interface_pageEndAddr:
 1622 000c FF81     		.short	-32257
 1623 000e FF84     		.short	-31489
 1624 0010 FF88     		.short	-30465
 1625 0012 7FA0     		.short	-24449
 1626 0014 FFA2     		.short	-23809
ARM GAS  C:\Users\kopusov.FT\AppData\Local\Temp\ccT1QhKH.s 			page 55


 1627 0016 7FA4     		.short	-23425
 1628              		.bss
 1629              		.align	2
 1630              		.set	.LANCHOR0,. + 0
 1631              		.type	MDIO_Interface_pageStartAddr_TD, %object
 1632              		.size	MDIO_Interface_pageStartAddr_TD, 1
 1633              	MDIO_Interface_pageStartAddr_TD:
 1634 0000 00       		.space	1
 1635              		.type	MDIO_Interface_pageStartAddrDMA_Chan, %object
 1636              		.size	MDIO_Interface_pageStartAddrDMA_Chan, 1
 1637              	MDIO_Interface_pageStartAddrDMA_Chan:
 1638 0001 00       		.space	1
 1639 0002 0000     		.space	2
 1640              		.type	MDIO_Interface_pageEndAddr_TD, %object
 1641              		.size	MDIO_Interface_pageEndAddr_TD, 1
 1642              	MDIO_Interface_pageEndAddr_TD:
 1643 0004 00       		.space	1
 1644              		.type	MDIO_Interface_pageEndAddrDMA_Chan, %object
 1645              		.size	MDIO_Interface_pageEndAddrDMA_Chan, 1
 1646              	MDIO_Interface_pageEndAddrDMA_Chan:
 1647 0005 00       		.space	1
 1648 0006 0000     		.space	2
 1649              		.type	MDIO_Interface_pageInfoDMA_TD, %object
 1650              		.size	MDIO_Interface_pageInfoDMA_TD, 1
 1651              	MDIO_Interface_pageInfoDMA_TD:
 1652 0008 00       		.space	1
 1653              		.type	MDIO_Interface_pageInfoDMA_Chan, %object
 1654              		.size	MDIO_Interface_pageInfoDMA_Chan, 1
 1655              	MDIO_Interface_pageInfoDMA_Chan:
 1656 0009 00       		.space	1
 1657 000a 0000     		.space	2
 1658              		.type	MDIO_Interface_regAddrDMA_TD, %object
 1659              		.size	MDIO_Interface_regAddrDMA_TD, 7
 1660              	MDIO_Interface_regAddrDMA_TD:
 1661 000c 00000000 		.space	7
 1661      000000
 1662              		.type	MDIO_Interface_regAddrDMA_Chan, %object
 1663              		.size	MDIO_Interface_regAddrDMA_Chan, 1
 1664              	MDIO_Interface_regAddrDMA_Chan:
 1665 0013 00       		.space	1
 1666              		.type	MDIO_Interface_rdDMA_TD, %object
 1667              		.size	MDIO_Interface_rdDMA_TD, 1
 1668              	MDIO_Interface_rdDMA_TD:
 1669 0014 00       		.space	1
 1670              		.type	MDIO_Interface_rdDMA_Chan, %object
 1671              		.size	MDIO_Interface_rdDMA_Chan, 1
 1672              	MDIO_Interface_rdDMA_Chan:
 1673 0015 00       		.space	1
 1674 0016 0000     		.space	2
 1675              		.type	MDIO_Interface_wrDMA_TD, %object
 1676              		.size	MDIO_Interface_wrDMA_TD, 1
 1677              	MDIO_Interface_wrDMA_TD:
 1678 0018 00       		.space	1
 1679              		.type	MDIO_Interface_wrDMA_Chan, %object
 1680              		.size	MDIO_Interface_wrDMA_Chan, 1
 1681              	MDIO_Interface_wrDMA_Chan:
 1682 0019 00       		.space	1
ARM GAS  C:\Users\kopusov.FT\AppData\Local\Temp\ccT1QhKH.s 			page 56


 1683 001a 0000     		.space	2
 1684              		.type	MDIO_Interface_cfgDMA1_TD, %object
 1685              		.size	MDIO_Interface_cfgDMA1_TD, 1
 1686              	MDIO_Interface_cfgDMA1_TD:
 1687 001c 00       		.space	1
 1688              		.type	MDIO_Interface_cfgDMA1_Chan, %object
 1689              		.size	MDIO_Interface_cfgDMA1_Chan, 1
 1690              	MDIO_Interface_cfgDMA1_Chan:
 1691 001d 00       		.space	1
 1692 001e 0000     		.space	2
 1693              		.type	MDIO_Interface_cfgDMA2_TD, %object
 1694              		.size	MDIO_Interface_cfgDMA2_TD, 2
 1695              	MDIO_Interface_cfgDMA2_TD:
 1696 0020 0000     		.space	2
 1697              		.type	MDIO_Interface_cfgDMA2_Chan, %object
 1698              		.size	MDIO_Interface_cfgDMA2_Chan, 1
 1699              	MDIO_Interface_cfgDMA2_Chan:
 1700 0022 00       		.space	1
 1701 0023 00       		.space	1
 1702              		.type	MDIO_Interface_fwDMA1_TD, %object
 1703              		.size	MDIO_Interface_fwDMA1_TD, 1
 1704              	MDIO_Interface_fwDMA1_TD:
 1705 0024 00       		.space	1
 1706              		.type	MDIO_Interface_fwDMA1_Chan, %object
 1707              		.size	MDIO_Interface_fwDMA1_Chan, 1
 1708              	MDIO_Interface_fwDMA1_Chan:
 1709 0025 00       		.space	1
 1710 0026 0000     		.space	2
 1711              		.type	MDIO_Interface_fwDMA2_TD, %object
 1712              		.size	MDIO_Interface_fwDMA2_TD, 1
 1713              	MDIO_Interface_fwDMA2_TD:
 1714 0028 00       		.space	1
 1715              		.type	MDIO_Interface_fwDMA2_Chan, %object
 1716              		.size	MDIO_Interface_fwDMA2_Chan, 1
 1717              	MDIO_Interface_fwDMA2_Chan:
 1718 0029 00       		.space	1
 1719 002a 0000     		.space	2
 1720              		.type	MDIO_Interface_dmaChannelList, %object
 1721              		.size	MDIO_Interface_dmaChannelList, 10
 1722              	MDIO_Interface_dmaChannelList:
 1723 002c 00000000 		.space	10
 1723      00000000 
 1723      0000
 1724 0036 0000     		.space	2
 1725              		.type	MDIO_Interface_pageInfoList, %object
 1726              		.size	MDIO_Interface_pageInfoList, 48
 1727              	MDIO_Interface_pageInfoList:
 1728 0038 00000000 		.space	48
 1728      00000000 
 1728      00000000 
 1728      00000000 
 1728      00000000 
 1729              		.type	MDIO_Interface_pageAddrList, %object
 1730              		.size	MDIO_Interface_pageAddrList, 24
 1731              	MDIO_Interface_pageAddrList:
 1732 0068 00000000 		.space	24
 1732      00000000 
ARM GAS  C:\Users\kopusov.FT\AppData\Local\Temp\ccT1QhKH.s 			page 57


 1732      00000000 
 1732      00000000 
 1732      00000000 
 1733              		.type	MDIO_Interface_regConfig.5176, %object
 1734              		.size	MDIO_Interface_regConfig.5176, 4
 1735              	MDIO_Interface_regConfig.5176:
 1736 0080 00000000 		.space	4
 1737              		.type	MDIO_Interface_phyAddress, %object
 1738              		.size	MDIO_Interface_phyAddress, 1
 1739              	MDIO_Interface_phyAddress:
 1740 0084 00       		.space	1
 1741              		.type	MDIO_Interface_devAddress, %object
 1742              		.size	MDIO_Interface_devAddress, 1
 1743              	MDIO_Interface_devAddress:
 1744 0085 00       		.space	1
 1745              		.type	MDIO_Interface_dmaInitDone.5077, %object
 1746              		.size	MDIO_Interface_dmaInitDone.5077, 1
 1747              	MDIO_Interface_dmaInitDone.5077:
 1748 0086 00       		.space	1
 1749              		.type	MDIO_Interface_initVar, %object
 1750              		.size	MDIO_Interface_initVar, 1
 1751              	MDIO_Interface_initVar:
 1752 0087 00       		.space	1
 1753              		.text
 1754              	.Letext0:
 1755              		.file 2 "Generated_Source\\PSoC5\\cytypes.h"
 1756              		.file 3 "Generated_Source\\PSoC5/CYDMAC.H"
 1757              		.file 4 "Generated_Source\\PSoC5\\MDIO_Interface_REG.h"
 1758              		.file 5 "Generated_Source\\PSoC5\\MDIO_Interface_StartAddrDMA_dma.h"
 1759              		.file 6 "Generated_Source\\PSoC5\\MDIO_Interface_EndAddrDMA_dma.h"
 1760              		.file 7 "Generated_Source\\PSoC5\\MDIO_Interface_InfoDMA_dma.h"
 1761              		.file 8 "Generated_Source\\PSoC5\\MDIO_Interface_RdDMA_dma.h"
 1762              		.file 9 "Generated_Source\\PSoC5\\MDIO_Interface_WrDMA_dma.h"
 1763              		.file 10 "Generated_Source\\PSoC5\\MDIO_Interface_CfgDMA1_dma.h"
 1764              		.file 11 "Generated_Source\\PSoC5\\MDIO_Interface_CfgDMA2_dma.h"
 1765              		.file 12 "Generated_Source\\PSoC5\\MDIO_Interface_AddrDMA_dma.h"
 1766              		.file 13 "Generated_Source\\PSoC5\\MDIO_Interface_FwDMA1_dma.h"
 1767              		.file 14 "Generated_Source\\PSoC5\\MDIO_Interface_FwDMA2_dma.h"
 1768              		.file 15 "Generated_Source\\PSoC5\\CyLib.h"
 1769              		.section	.debug_info,"",%progbits
 1770              	.Ldebug_info0:
 1771 0000 03120000 		.4byte	0x1203
 1772 0004 0400     		.2byte	0x4
 1773 0006 00000000 		.4byte	.Ldebug_abbrev0
 1774 000a 04       		.byte	0x4
 1775 000b 01       		.uleb128 0x1
 1776 000c 3C080000 		.4byte	.LASF110
 1777 0010 01       		.byte	0x1
 1778 0011 09090000 		.4byte	.LASF111
 1779 0015 BA060000 		.4byte	.LASF112
 1780 0019 00000000 		.4byte	.Ldebug_ranges0+0
 1781 001d 00000000 		.4byte	0
 1782 0021 00000000 		.4byte	.Ldebug_line0
 1783 0025 02       		.uleb128 0x2
 1784 0026 01       		.byte	0x1
 1785 0027 06       		.byte	0x6
 1786 0028 72010000 		.4byte	.LASF0
ARM GAS  C:\Users\kopusov.FT\AppData\Local\Temp\ccT1QhKH.s 			page 58


 1787 002c 02       		.uleb128 0x2
 1788 002d 01       		.byte	0x1
 1789 002e 08       		.byte	0x8
 1790 002f 2B060000 		.4byte	.LASF1
 1791 0033 02       		.uleb128 0x2
 1792 0034 02       		.byte	0x2
 1793 0035 05       		.byte	0x5
 1794 0036 51060000 		.4byte	.LASF2
 1795 003a 02       		.uleb128 0x2
 1796 003b 02       		.byte	0x2
 1797 003c 07       		.byte	0x7
 1798 003d 69040000 		.4byte	.LASF3
 1799 0041 02       		.uleb128 0x2
 1800 0042 04       		.byte	0x4
 1801 0043 05       		.byte	0x5
 1802 0044 2D020000 		.4byte	.LASF4
 1803 0048 02       		.uleb128 0x2
 1804 0049 04       		.byte	0x4
 1805 004a 07       		.byte	0x7
 1806 004b C6030000 		.4byte	.LASF5
 1807 004f 02       		.uleb128 0x2
 1808 0050 08       		.byte	0x8
 1809 0051 05       		.byte	0x5
 1810 0052 64010000 		.4byte	.LASF6
 1811 0056 02       		.uleb128 0x2
 1812 0057 08       		.byte	0x8
 1813 0058 07       		.byte	0x7
 1814 0059 AB000000 		.4byte	.LASF7
 1815 005d 03       		.uleb128 0x3
 1816 005e 04       		.byte	0x4
 1817 005f 05       		.byte	0x5
 1818 0060 696E7400 		.ascii	"int\000"
 1819 0064 02       		.uleb128 0x2
 1820 0065 04       		.byte	0x4
 1821 0066 07       		.byte	0x7
 1822 0067 9F030000 		.4byte	.LASF8
 1823 006b 04       		.uleb128 0x4
 1824 006c 3C020000 		.4byte	.LASF9
 1825 0070 02       		.byte	0x2
 1826 0071 9201     		.2byte	0x192
 1827 0073 2C000000 		.4byte	0x2c
 1828 0077 04       		.uleb128 0x4
 1829 0078 00000000 		.4byte	.LASF10
 1830 007c 02       		.byte	0x2
 1831 007d 9301     		.2byte	0x193
 1832 007f 3A000000 		.4byte	0x3a
 1833 0083 04       		.uleb128 0x4
 1834 0084 D2020000 		.4byte	.LASF11
 1835 0088 02       		.byte	0x2
 1836 0089 9401     		.2byte	0x194
 1837 008b 48000000 		.4byte	0x48
 1838 008f 02       		.uleb128 0x2
 1839 0090 04       		.byte	0x4
 1840 0091 04       		.byte	0x4
 1841 0092 9A050000 		.4byte	.LASF12
 1842 0096 02       		.uleb128 0x2
 1843 0097 08       		.byte	0x8
ARM GAS  C:\Users\kopusov.FT\AppData\Local\Temp\ccT1QhKH.s 			page 59


 1844 0098 04       		.byte	0x4
 1845 0099 67020000 		.4byte	.LASF13
 1846 009d 02       		.uleb128 0x2
 1847 009e 01       		.byte	0x1
 1848 009f 08       		.byte	0x8
 1849 00a0 07070000 		.4byte	.LASF14
 1850 00a4 04       		.uleb128 0x4
 1851 00a5 95090000 		.4byte	.LASF15
 1852 00a9 02       		.byte	0x2
 1853 00aa 3402     		.2byte	0x234
 1854 00ac 48000000 		.4byte	0x48
 1855 00b0 04       		.uleb128 0x4
 1856 00b1 05060000 		.4byte	.LASF16
 1857 00b5 02       		.byte	0x2
 1858 00b6 3C02     		.2byte	0x23c
 1859 00b8 BC000000 		.4byte	0xbc
 1860 00bc 05       		.uleb128 0x5
 1861 00bd 6B000000 		.4byte	0x6b
 1862 00c1 04       		.uleb128 0x4
 1863 00c2 36020000 		.4byte	.LASF17
 1864 00c6 02       		.byte	0x2
 1865 00c7 3D02     		.2byte	0x23d
 1866 00c9 CD000000 		.4byte	0xcd
 1867 00cd 05       		.uleb128 0x5
 1868 00ce 77000000 		.4byte	0x77
 1869 00d2 02       		.uleb128 0x2
 1870 00d3 04       		.byte	0x4
 1871 00d4 07       		.byte	0x7
 1872 00d5 EB040000 		.4byte	.LASF18
 1873 00d9 06       		.uleb128 0x6
 1874 00da 1C060000 		.4byte	.LASF24
 1875 00de 10       		.byte	0x10
 1876 00df 03       		.byte	0x3
 1877 00e0 47       		.byte	0x47
 1878 00e1 16010000 		.4byte	0x116
 1879 00e5 07       		.uleb128 0x7
 1880 00e6 5F040000 		.4byte	.LASF19
 1881 00ea 03       		.byte	0x3
 1882 00eb 49       		.byte	0x49
 1883 00ec 26010000 		.4byte	0x126
 1884 00f0 00       		.byte	0
 1885 00f1 07       		.uleb128 0x7
 1886 00f2 34030000 		.4byte	.LASF20
 1887 00f6 03       		.byte	0x3
 1888 00f7 4A       		.byte	0x4a
 1889 00f8 2B010000 		.4byte	0x12b
 1890 00fc 04       		.byte	0x4
 1891 00fd 07       		.uleb128 0x7
 1892 00fe DE040000 		.4byte	.LASF21
 1893 0102 03       		.byte	0x3
 1894 0103 4B       		.byte	0x4b
 1895 0104 30010000 		.4byte	0x130
 1896 0108 08       		.byte	0x8
 1897 0109 07       		.uleb128 0x7
 1898 010a 60030000 		.4byte	.LASF22
 1899 010e 03       		.byte	0x3
 1900 010f 4C       		.byte	0x4c
ARM GAS  C:\Users\kopusov.FT\AppData\Local\Temp\ccT1QhKH.s 			page 60


 1901 0110 35010000 		.4byte	0x135
 1902 0114 0C       		.byte	0xc
 1903 0115 00       		.byte	0
 1904 0116 08       		.uleb128 0x8
 1905 0117 6B000000 		.4byte	0x6b
 1906 011b 26010000 		.4byte	0x126
 1907 011f 09       		.uleb128 0x9
 1908 0120 D2000000 		.4byte	0xd2
 1909 0124 03       		.byte	0x3
 1910 0125 00       		.byte	0
 1911 0126 05       		.uleb128 0x5
 1912 0127 16010000 		.4byte	0x116
 1913 012b 05       		.uleb128 0x5
 1914 012c 16010000 		.4byte	0x116
 1915 0130 05       		.uleb128 0x5
 1916 0131 16010000 		.4byte	0x116
 1917 0135 05       		.uleb128 0x5
 1918 0136 16010000 		.4byte	0x116
 1919 013a 0A       		.uleb128 0xa
 1920 013b 52070000 		.4byte	.LASF23
 1921 013f 03       		.byte	0x3
 1922 0140 4E       		.byte	0x4e
 1923 0141 D9000000 		.4byte	0xd9
 1924 0145 06       		.uleb128 0x6
 1925 0146 F2030000 		.4byte	.LASF25
 1926 014a 08       		.byte	0x8
 1927 014b 03       		.byte	0x3
 1928 014c 51       		.byte	0x51
 1929 014d 6A010000 		.4byte	0x16a
 1930 0151 07       		.uleb128 0x7
 1931 0152 32080000 		.4byte	.LASF26
 1932 0156 03       		.byte	0x3
 1933 0157 53       		.byte	0x53
 1934 0158 6A010000 		.4byte	0x16a
 1935 015c 00       		.byte	0
 1936 015d 07       		.uleb128 0x7
 1937 015e 37080000 		.4byte	.LASF27
 1938 0162 03       		.byte	0x3
 1939 0163 54       		.byte	0x54
 1940 0164 6F010000 		.4byte	0x16f
 1941 0168 04       		.byte	0x4
 1942 0169 00       		.byte	0
 1943 016a 05       		.uleb128 0x5
 1944 016b 16010000 		.4byte	0x116
 1945 016f 05       		.uleb128 0x5
 1946 0170 16010000 		.4byte	0x116
 1947 0174 0A       		.uleb128 0xa
 1948 0175 3D000000 		.4byte	.LASF28
 1949 0179 03       		.byte	0x3
 1950 017a 56       		.byte	0x56
 1951 017b 45010000 		.4byte	0x145
 1952 017f 06       		.uleb128 0x6
 1953 0180 9A010000 		.4byte	.LASF29
 1954 0184 08       		.byte	0x8
 1955 0185 03       		.byte	0x3
 1956 0186 59       		.byte	0x59
 1957 0187 A4010000 		.4byte	0x1a4
ARM GAS  C:\Users\kopusov.FT\AppData\Local\Temp\ccT1QhKH.s 			page 61


 1958 018b 0B       		.uleb128 0xb
 1959 018c 54443000 		.ascii	"TD0\000"
 1960 0190 03       		.byte	0x3
 1961 0191 5B       		.byte	0x5b
 1962 0192 A4010000 		.4byte	0x1a4
 1963 0196 00       		.byte	0
 1964 0197 0B       		.uleb128 0xb
 1965 0198 54443100 		.ascii	"TD1\000"
 1966 019c 03       		.byte	0x3
 1967 019d 5C       		.byte	0x5c
 1968 019e A9010000 		.4byte	0x1a9
 1969 01a2 04       		.byte	0x4
 1970 01a3 00       		.byte	0
 1971 01a4 05       		.uleb128 0x5
 1972 01a5 16010000 		.4byte	0x116
 1973 01a9 05       		.uleb128 0x5
 1974 01aa 16010000 		.4byte	0x116
 1975 01ae 0A       		.uleb128 0xa
 1976 01af 8E070000 		.4byte	.LASF30
 1977 01b3 03       		.byte	0x3
 1978 01b4 5E       		.byte	0x5e
 1979 01b5 7F010000 		.4byte	0x17f
 1980 01b9 0C       		.uleb128 0xc
 1981 01ba 69030000 		.4byte	.LASF31
 1982 01be 01       		.byte	0x1
 1983 01bf 5603     		.2byte	0x356
 1984 01c1 00000000 		.4byte	.LFB15
 1985 01c5 80000000 		.4byte	.LFE15-.LFB15
 1986 01c9 01       		.uleb128 0x1
 1987 01ca 9C       		.byte	0x9c
 1988 01cb 47020000 		.4byte	0x247
 1989 01cf 0D       		.uleb128 0xd
 1990 01d0 6900     		.ascii	"i\000"
 1991 01d2 01       		.byte	0x1
 1992 01d3 5803     		.2byte	0x358
 1993 01d5 6B000000 		.4byte	0x6b
 1994 01d9 00000000 		.4byte	.LLST0
 1995 01dd 0E       		.uleb128 0xe
 1996 01de 0C000000 		.4byte	.LVL0
 1997 01e2 C40F0000 		.4byte	0xfc4
 1998 01e6 0E       		.uleb128 0xe
 1999 01e7 14000000 		.4byte	.LVL1
 2000 01eb C40F0000 		.4byte	0xfc4
 2001 01ef 0E       		.uleb128 0xe
 2002 01f0 1C000000 		.4byte	.LVL2
 2003 01f4 C40F0000 		.4byte	0xfc4
 2004 01f8 0E       		.uleb128 0xe
 2005 01f9 24000000 		.4byte	.LVL3
 2006 01fd C40F0000 		.4byte	0xfc4
 2007 0201 0E       		.uleb128 0xe
 2008 0202 2C000000 		.4byte	.LVL4
 2009 0206 C40F0000 		.4byte	0xfc4
 2010 020a 0E       		.uleb128 0xe
 2011 020b 34000000 		.4byte	.LVL5
 2012 020f C40F0000 		.4byte	0xfc4
 2013 0213 0E       		.uleb128 0xe
 2014 0214 3C000000 		.4byte	.LVL6
ARM GAS  C:\Users\kopusov.FT\AppData\Local\Temp\ccT1QhKH.s 			page 62


 2015 0218 C40F0000 		.4byte	0xfc4
 2016 021c 0E       		.uleb128 0xe
 2017 021d 48000000 		.4byte	.LVL7
 2018 0221 C40F0000 		.4byte	0xfc4
 2019 0225 0E       		.uleb128 0xe
 2020 0226 54000000 		.4byte	.LVL8
 2021 022a C40F0000 		.4byte	0xfc4
 2022 022e 0E       		.uleb128 0xe
 2023 022f 60000000 		.4byte	.LVL9
 2024 0233 C40F0000 		.4byte	0xfc4
 2025 0237 0F       		.uleb128 0xf
 2026 0238 72000000 		.4byte	.LVL11
 2027 023c DE0F0000 		.4byte	0xfde
 2028 0240 10       		.uleb128 0x10
 2029 0241 01       		.uleb128 0x1
 2030 0242 51       		.byte	0x51
 2031 0243 01       		.uleb128 0x1
 2032 0244 31       		.byte	0x31
 2033 0245 00       		.byte	0
 2034 0246 00       		.byte	0
 2035 0247 0C       		.uleb128 0xc
 2036 0248 5B060000 		.4byte	.LASF32
 2037 024c 01       		.byte	0x1
 2038 024d AA03     		.2byte	0x3aa
 2039 024f 00000000 		.4byte	.LFB17
 2040 0253 70030000 		.4byte	.LFE17-.LFB17
 2041 0257 01       		.uleb128 0x1
 2042 0258 9C       		.byte	0x9c
 2043 0259 50070000 		.4byte	0x750
 2044 025d 0D       		.uleb128 0xd
 2045 025e 69647800 		.ascii	"idx\000"
 2046 0262 01       		.byte	0x1
 2047 0263 AC03     		.2byte	0x3ac
 2048 0265 6B000000 		.4byte	0x6b
 2049 0269 2A000000 		.4byte	.LLST1
 2050 026d 11       		.uleb128 0x11
 2051 026e 9E090000 		.4byte	.LASF33
 2052 0272 01       		.byte	0x1
 2053 0273 AD03     		.2byte	0x3ad
 2054 0275 83000000 		.4byte	0x83
 2055 0279 05       		.uleb128 0x5
 2056 027a 03       		.byte	0x3
 2057 027b 80000000 		.4byte	MDIO_Interface_regConfig.5176
 2058 027f 12       		.uleb128 0x12
 2059 0280 74000000 		.4byte	.LVL20
 2060 0284 F80F0000 		.4byte	0xff8
 2061 0288 A5020000 		.4byte	0x2a5
 2062 028c 10       		.uleb128 0x10
 2063 028d 01       		.uleb128 0x1
 2064 028e 53       		.byte	0x53
 2065 028f 03       		.uleb128 0x3
 2066 0290 0A       		.byte	0xa
 2067 0291 0040     		.2byte	0x4000
 2068 0293 10       		.uleb128 0x10
 2069 0294 01       		.uleb128 0x1
 2070 0295 52       		.byte	0x52
 2071 0296 03       		.uleb128 0x3
ARM GAS  C:\Users\kopusov.FT\AppData\Local\Temp\ccT1QhKH.s 			page 63


 2072 0297 0A       		.byte	0xa
 2073 0298 FF1F     		.2byte	0x1fff
 2074 029a 10       		.uleb128 0x10
 2075 029b 01       		.uleb128 0x1
 2076 029c 51       		.byte	0x51
 2077 029d 01       		.uleb128 0x1
 2078 029e 31       		.byte	0x31
 2079 029f 10       		.uleb128 0x10
 2080 02a0 01       		.uleb128 0x1
 2081 02a1 50       		.byte	0x50
 2082 02a2 01       		.uleb128 0x1
 2083 02a3 32       		.byte	0x32
 2084 02a4 00       		.byte	0
 2085 02a5 12       		.uleb128 0x12
 2086 02a6 88000000 		.4byte	.LVL21
 2087 02aa 1C100000 		.4byte	0x101c
 2088 02ae CB020000 		.4byte	0x2cb
 2089 02b2 10       		.uleb128 0x10
 2090 02b3 01       		.uleb128 0x1
 2091 02b4 53       		.byte	0x53
 2092 02b5 03       		.uleb128 0x3
 2093 02b6 0A       		.byte	0xa
 2094 02b7 0040     		.2byte	0x4000
 2095 02b9 10       		.uleb128 0x10
 2096 02ba 01       		.uleb128 0x1
 2097 02bb 52       		.byte	0x52
 2098 02bc 03       		.uleb128 0x3
 2099 02bd 0A       		.byte	0xa
 2100 02be FF1F     		.2byte	0x1fff
 2101 02c0 10       		.uleb128 0x10
 2102 02c1 01       		.uleb128 0x1
 2103 02c2 51       		.byte	0x51
 2104 02c3 01       		.uleb128 0x1
 2105 02c4 31       		.byte	0x31
 2106 02c5 10       		.uleb128 0x10
 2107 02c6 01       		.uleb128 0x1
 2108 02c7 50       		.byte	0x50
 2109 02c8 01       		.uleb128 0x1
 2110 02c9 32       		.byte	0x32
 2111 02ca 00       		.byte	0
 2112 02cb 0E       		.uleb128 0xe
 2113 02cc 98000000 		.4byte	.LVL22
 2114 02d0 40100000 		.4byte	0x1040
 2115 02d4 0E       		.uleb128 0xe
 2116 02d5 9E000000 		.4byte	.LVL23
 2117 02d9 40100000 		.4byte	0x1040
 2118 02dd 12       		.uleb128 0x12
 2119 02de AC000000 		.4byte	.LVL24
 2120 02e2 4B100000 		.4byte	0x104b
 2121 02e6 F5020000 		.4byte	0x2f5
 2122 02ea 10       		.uleb128 0x10
 2123 02eb 01       		.uleb128 0x1
 2124 02ec 53       		.byte	0x53
 2125 02ed 01       		.uleb128 0x1
 2126 02ee 31       		.byte	0x31
 2127 02ef 10       		.uleb128 0x10
 2128 02f0 01       		.uleb128 0x1
ARM GAS  C:\Users\kopusov.FT\AppData\Local\Temp\ccT1QhKH.s 			page 64


 2129 02f1 51       		.byte	0x51
 2130 02f2 01       		.uleb128 0x1
 2131 02f3 3C       		.byte	0x3c
 2132 02f4 00       		.byte	0
 2133 02f5 12       		.uleb128 0x12
 2134 02f6 B8000000 		.4byte	.LVL25
 2135 02fa 4B100000 		.4byte	0x104b
 2136 02fe 0D030000 		.4byte	0x30d
 2137 0302 10       		.uleb128 0x10
 2138 0303 01       		.uleb128 0x1
 2139 0304 53       		.byte	0x53
 2140 0305 01       		.uleb128 0x1
 2141 0306 31       		.byte	0x31
 2142 0307 10       		.uleb128 0x10
 2143 0308 01       		.uleb128 0x1
 2144 0309 51       		.byte	0x51
 2145 030a 01       		.uleb128 0x1
 2146 030b 3C       		.byte	0x3c
 2147 030c 00       		.byte	0
 2148 030d 12       		.uleb128 0x12
 2149 030e C6000000 		.4byte	.LVL26
 2150 0312 6F100000 		.4byte	0x106f
 2151 0316 28030000 		.4byte	0x328
 2152 031a 10       		.uleb128 0x10
 2153 031b 01       		.uleb128 0x1
 2154 031c 52       		.byte	0x52
 2155 031d 03       		.uleb128 0x3
 2156 031e 0A       		.byte	0xa
 2157 031f 8468     		.2byte	0x6884
 2158 0321 10       		.uleb128 0x10
 2159 0322 01       		.uleb128 0x1
 2160 0323 51       		.byte	0x51
 2161 0324 02       		.uleb128 0x2
 2162 0325 75       		.byte	0x75
 2163 0326 00       		.sleb128 0
 2164 0327 00       		.byte	0
 2165 0328 12       		.uleb128 0x12
 2166 0329 D6000000 		.4byte	.LVL27
 2167 032d 6F100000 		.4byte	0x106f
 2168 0331 43030000 		.4byte	0x343
 2169 0335 10       		.uleb128 0x10
 2170 0336 01       		.uleb128 0x1
 2171 0337 52       		.byte	0x52
 2172 0338 03       		.uleb128 0x3
 2173 0339 0A       		.byte	0xa
 2174 033a A468     		.2byte	0x68a4
 2175 033c 10       		.uleb128 0x10
 2176 033d 01       		.uleb128 0x1
 2177 033e 51       		.byte	0x51
 2178 033f 02       		.uleb128 0x2
 2179 0340 75       		.byte	0x75
 2180 0341 0C       		.sleb128 12
 2181 0342 00       		.byte	0
 2182 0343 12       		.uleb128 0x12
 2183 0344 E6000000 		.4byte	.LVL28
 2184 0348 8E100000 		.4byte	0x108e
 2185 034c 69030000 		.4byte	0x369
ARM GAS  C:\Users\kopusov.FT\AppData\Local\Temp\ccT1QhKH.s 			page 65


 2186 0350 10       		.uleb128 0x10
 2187 0351 01       		.uleb128 0x1
 2188 0352 53       		.byte	0x53
 2189 0353 03       		.uleb128 0x3
 2190 0354 0A       		.byte	0xa
 2191 0355 0040     		.2byte	0x4000
 2192 0357 10       		.uleb128 0x10
 2193 0358 01       		.uleb128 0x1
 2194 0359 52       		.byte	0x52
 2195 035a 03       		.uleb128 0x3
 2196 035b 0A       		.byte	0xa
 2197 035c FF1F     		.2byte	0x1fff
 2198 035e 10       		.uleb128 0x10
 2199 035f 01       		.uleb128 0x1
 2200 0360 51       		.byte	0x51
 2201 0361 01       		.uleb128 0x1
 2202 0362 30       		.byte	0x30
 2203 0363 10       		.uleb128 0x10
 2204 0364 01       		.uleb128 0x1
 2205 0365 50       		.byte	0x50
 2206 0366 01       		.uleb128 0x1
 2207 0367 32       		.byte	0x32
 2208 0368 00       		.byte	0
 2209 0369 0E       		.uleb128 0xe
 2210 036a F0000000 		.4byte	.LVL29
 2211 036e 40100000 		.4byte	0x1040
 2212 0372 12       		.uleb128 0x12
 2213 0373 FC000000 		.4byte	.LVL30
 2214 0377 4B100000 		.4byte	0x104b
 2215 037b 8A030000 		.4byte	0x38a
 2216 037f 10       		.uleb128 0x10
 2217 0380 01       		.uleb128 0x1
 2218 0381 53       		.byte	0x53
 2219 0382 01       		.uleb128 0x1
 2220 0383 35       		.byte	0x35
 2221 0384 10       		.uleb128 0x10
 2222 0385 01       		.uleb128 0x1
 2223 0386 51       		.byte	0x51
 2224 0387 01       		.uleb128 0x1
 2225 0388 38       		.byte	0x38
 2226 0389 00       		.byte	0
 2227 038a 12       		.uleb128 0x12
 2228 038b 08010000 		.4byte	.LVL31
 2229 038f 6F100000 		.4byte	0x106f
 2230 0393 A4030000 		.4byte	0x3a4
 2231 0397 10       		.uleb128 0x10
 2232 0398 01       		.uleb128 0x1
 2233 0399 52       		.byte	0x52
 2234 039a 03       		.uleb128 0x3
 2235 039b 0A       		.byte	0xa
 2236 039c 8868     		.2byte	0x6888
 2237 039e 10       		.uleb128 0x10
 2238 039f 01       		.uleb128 0x1
 2239 03a0 51       		.byte	0x51
 2240 03a1 01       		.uleb128 0x1
 2241 03a2 30       		.byte	0x30
 2242 03a3 00       		.byte	0
ARM GAS  C:\Users\kopusov.FT\AppData\Local\Temp\ccT1QhKH.s 			page 66


 2243 03a4 12       		.uleb128 0x12
 2244 03a5 16010000 		.4byte	.LVL32
 2245 03a9 B2100000 		.4byte	0x10b2
 2246 03ad C8030000 		.4byte	0x3c8
 2247 03b1 10       		.uleb128 0x10
 2248 03b2 01       		.uleb128 0x1
 2249 03b3 53       		.byte	0x53
 2250 03b4 03       		.uleb128 0x3
 2251 03b5 0A       		.byte	0xa
 2252 03b6 0040     		.2byte	0x4000
 2253 03b8 10       		.uleb128 0x10
 2254 03b9 01       		.uleb128 0x1
 2255 03ba 52       		.byte	0x52
 2256 03bb 01       		.uleb128 0x1
 2257 03bc 30       		.byte	0x30
 2258 03bd 10       		.uleb128 0x10
 2259 03be 01       		.uleb128 0x1
 2260 03bf 51       		.byte	0x51
 2261 03c0 01       		.uleb128 0x1
 2262 03c1 31       		.byte	0x31
 2263 03c2 10       		.uleb128 0x10
 2264 03c3 01       		.uleb128 0x1
 2265 03c4 50       		.byte	0x50
 2266 03c5 01       		.uleb128 0x1
 2267 03c6 32       		.byte	0x32
 2268 03c7 00       		.byte	0
 2269 03c8 0E       		.uleb128 0xe
 2270 03c9 20010000 		.4byte	.LVL33
 2271 03cd 40100000 		.4byte	0x1040
 2272 03d1 12       		.uleb128 0x12
 2273 03d2 2C010000 		.4byte	.LVL34
 2274 03d6 4B100000 		.4byte	0x104b
 2275 03da EA030000 		.4byte	0x3ea
 2276 03de 10       		.uleb128 0x10
 2277 03df 01       		.uleb128 0x1
 2278 03e0 53       		.byte	0x53
 2279 03e1 02       		.uleb128 0x2
 2280 03e2 09       		.byte	0x9
 2281 03e3 81       		.byte	0x81
 2282 03e4 10       		.uleb128 0x10
 2283 03e5 01       		.uleb128 0x1
 2284 03e6 51       		.byte	0x51
 2285 03e7 01       		.uleb128 0x1
 2286 03e8 32       		.byte	0x32
 2287 03e9 00       		.byte	0
 2288 03ea 12       		.uleb128 0x12
 2289 03eb 38010000 		.4byte	.LVL35
 2290 03ef 6F100000 		.4byte	0x106f
 2291 03f3 04040000 		.4byte	0x404
 2292 03f7 10       		.uleb128 0x10
 2293 03f8 01       		.uleb128 0x1
 2294 03f9 52       		.byte	0x52
 2295 03fa 03       		.uleb128 0x3
 2296 03fb 0A       		.byte	0xa
 2297 03fc 946A     		.2byte	0x6a94
 2298 03fe 10       		.uleb128 0x10
 2299 03ff 01       		.uleb128 0x1
ARM GAS  C:\Users\kopusov.FT\AppData\Local\Temp\ccT1QhKH.s 			page 67


 2300 0400 51       		.byte	0x51
 2301 0401 01       		.uleb128 0x1
 2302 0402 30       		.byte	0x30
 2303 0403 00       		.byte	0
 2304 0404 12       		.uleb128 0x12
 2305 0405 48010000 		.4byte	.LVL36
 2306 0409 D6100000 		.4byte	0x10d6
 2307 040d 2A040000 		.4byte	0x42a
 2308 0411 10       		.uleb128 0x10
 2309 0412 01       		.uleb128 0x1
 2310 0413 53       		.byte	0x53
 2311 0414 03       		.uleb128 0x3
 2312 0415 0A       		.byte	0xa
 2313 0416 FF1F     		.2byte	0x1fff
 2314 0418 10       		.uleb128 0x10
 2315 0419 01       		.uleb128 0x1
 2316 041a 52       		.byte	0x52
 2317 041b 03       		.uleb128 0x3
 2318 041c 0A       		.byte	0xa
 2319 041d 0040     		.2byte	0x4000
 2320 041f 10       		.uleb128 0x10
 2321 0420 01       		.uleb128 0x1
 2322 0421 51       		.byte	0x51
 2323 0422 01       		.uleb128 0x1
 2324 0423 31       		.byte	0x31
 2325 0424 10       		.uleb128 0x10
 2326 0425 01       		.uleb128 0x1
 2327 0426 50       		.byte	0x50
 2328 0427 01       		.uleb128 0x1
 2329 0428 32       		.byte	0x32
 2330 0429 00       		.byte	0
 2331 042a 0E       		.uleb128 0xe
 2332 042b 52010000 		.4byte	.LVL37
 2333 042f 40100000 		.4byte	0x1040
 2334 0433 12       		.uleb128 0x12
 2335 0434 5E010000 		.4byte	.LVL38
 2336 0438 4B100000 		.4byte	0x104b
 2337 043c 4C040000 		.4byte	0x44c
 2338 0440 10       		.uleb128 0x10
 2339 0441 01       		.uleb128 0x1
 2340 0442 53       		.byte	0x53
 2341 0443 02       		.uleb128 0x2
 2342 0444 09       		.byte	0x9
 2343 0445 86       		.byte	0x86
 2344 0446 10       		.uleb128 0x10
 2345 0447 01       		.uleb128 0x1
 2346 0448 51       		.byte	0x51
 2347 0449 01       		.uleb128 0x1
 2348 044a 32       		.byte	0x32
 2349 044b 00       		.byte	0
 2350 044c 12       		.uleb128 0x12
 2351 044d 6A010000 		.4byte	.LVL39
 2352 0451 6F100000 		.4byte	0x106f
 2353 0455 66040000 		.4byte	0x466
 2354 0459 10       		.uleb128 0x10
 2355 045a 01       		.uleb128 0x1
 2356 045b 52       		.byte	0x52
ARM GAS  C:\Users\kopusov.FT\AppData\Local\Temp\ccT1QhKH.s 			page 68


 2357 045c 01       		.uleb128 0x1
 2358 045d 30       		.byte	0x30
 2359 045e 10       		.uleb128 0x10
 2360 045f 01       		.uleb128 0x1
 2361 0460 51       		.byte	0x51
 2362 0461 03       		.uleb128 0x3
 2363 0462 0A       		.byte	0xa
 2364 0463 B46A     		.2byte	0x6ab4
 2365 0465 00       		.byte	0
 2366 0466 12       		.uleb128 0x12
 2367 0467 78010000 		.4byte	.LVL40
 2368 046b FA100000 		.4byte	0x10fa
 2369 046f 8A040000 		.4byte	0x48a
 2370 0473 10       		.uleb128 0x10
 2371 0474 01       		.uleb128 0x1
 2372 0475 53       		.byte	0x53
 2373 0476 03       		.uleb128 0x3
 2374 0477 0A       		.byte	0xa
 2375 0478 FF1F     		.2byte	0x1fff
 2376 047a 10       		.uleb128 0x10
 2377 047b 01       		.uleb128 0x1
 2378 047c 52       		.byte	0x52
 2379 047d 01       		.uleb128 0x1
 2380 047e 30       		.byte	0x30
 2381 047f 10       		.uleb128 0x10
 2382 0480 01       		.uleb128 0x1
 2383 0481 51       		.byte	0x51
 2384 0482 01       		.uleb128 0x1
 2385 0483 30       		.byte	0x30
 2386 0484 10       		.uleb128 0x10
 2387 0485 01       		.uleb128 0x1
 2388 0486 50       		.byte	0x50
 2389 0487 01       		.uleb128 0x1
 2390 0488 34       		.byte	0x34
 2391 0489 00       		.byte	0
 2392 048a 12       		.uleb128 0x12
 2393 048b 8A010000 		.4byte	.LVL41
 2394 048f 1E110000 		.4byte	0x111e
 2395 0493 B0040000 		.4byte	0x4b0
 2396 0497 10       		.uleb128 0x10
 2397 0498 01       		.uleb128 0x1
 2398 0499 53       		.byte	0x53
 2399 049a 03       		.uleb128 0x3
 2400 049b 0A       		.byte	0xa
 2401 049c 0040     		.2byte	0x4000
 2402 049e 10       		.uleb128 0x10
 2403 049f 01       		.uleb128 0x1
 2404 04a0 52       		.byte	0x52
 2405 04a1 03       		.uleb128 0x3
 2406 04a2 0A       		.byte	0xa
 2407 04a3 FF1F     		.2byte	0x1fff
 2408 04a5 10       		.uleb128 0x10
 2409 04a6 01       		.uleb128 0x1
 2410 04a7 51       		.byte	0x51
 2411 04a8 01       		.uleb128 0x1
 2412 04a9 30       		.byte	0x30
 2413 04aa 10       		.uleb128 0x10
ARM GAS  C:\Users\kopusov.FT\AppData\Local\Temp\ccT1QhKH.s 			page 69


 2414 04ab 01       		.uleb128 0x1
 2415 04ac 50       		.byte	0x50
 2416 04ad 01       		.uleb128 0x1
 2417 04ae 31       		.byte	0x31
 2418 04af 00       		.byte	0
 2419 04b0 0E       		.uleb128 0xe
 2420 04b1 9C010000 		.4byte	.LVL42
 2421 04b5 40100000 		.4byte	0x1040
 2422 04b9 0E       		.uleb128 0xe
 2423 04ba A2010000 		.4byte	.LVL43
 2424 04be 40100000 		.4byte	0x1040
 2425 04c2 0E       		.uleb128 0xe
 2426 04c3 AA010000 		.4byte	.LVL44
 2427 04c7 40100000 		.4byte	0x1040
 2428 04cb 12       		.uleb128 0x12
 2429 04cc BA010000 		.4byte	.LVL45
 2430 04d0 4B100000 		.4byte	0x104b
 2431 04d4 E3040000 		.4byte	0x4e3
 2432 04d8 10       		.uleb128 0x10
 2433 04d9 01       		.uleb128 0x1
 2434 04da 53       		.byte	0x53
 2435 04db 01       		.uleb128 0x1
 2436 04dc 37       		.byte	0x37
 2437 04dd 10       		.uleb128 0x10
 2438 04de 01       		.uleb128 0x1
 2439 04df 51       		.byte	0x51
 2440 04e0 01       		.uleb128 0x1
 2441 04e1 34       		.byte	0x34
 2442 04e2 00       		.byte	0
 2443 04e3 12       		.uleb128 0x12
 2444 04e4 CA010000 		.4byte	.LVL46
 2445 04e8 4B100000 		.4byte	0x104b
 2446 04ec FC040000 		.4byte	0x4fc
 2447 04f0 10       		.uleb128 0x10
 2448 04f1 01       		.uleb128 0x1
 2449 04f2 53       		.byte	0x53
 2450 04f3 02       		.uleb128 0x2
 2451 04f4 08       		.byte	0x8
 2452 04f5 23       		.byte	0x23
 2453 04f6 10       		.uleb128 0x10
 2454 04f7 01       		.uleb128 0x1
 2455 04f8 51       		.byte	0x51
 2456 04f9 01       		.uleb128 0x1
 2457 04fa 32       		.byte	0x32
 2458 04fb 00       		.byte	0
 2459 04fc 12       		.uleb128 0x12
 2460 04fd DA010000 		.4byte	.LVL47
 2461 0501 4B100000 		.4byte	0x104b
 2462 0505 14050000 		.4byte	0x514
 2463 0509 10       		.uleb128 0x10
 2464 050a 01       		.uleb128 0x1
 2465 050b 53       		.byte	0x53
 2466 050c 01       		.uleb128 0x1
 2467 050d 30       		.byte	0x30
 2468 050e 10       		.uleb128 0x10
 2469 050f 01       		.uleb128 0x1
 2470 0510 51       		.byte	0x51
ARM GAS  C:\Users\kopusov.FT\AppData\Local\Temp\ccT1QhKH.s 			page 70


 2471 0511 01       		.uleb128 0x1
 2472 0512 31       		.byte	0x31
 2473 0513 00       		.byte	0
 2474 0514 12       		.uleb128 0x12
 2475 0515 EA010000 		.4byte	.LVL48
 2476 0519 6F100000 		.4byte	0x106f
 2477 051d 2D050000 		.4byte	0x52d
 2478 0521 10       		.uleb128 0x10
 2479 0522 01       		.uleb128 0x1
 2480 0523 52       		.byte	0x52
 2481 0524 02       		.uleb128 0x2
 2482 0525 75       		.byte	0x75
 2483 0526 00       		.sleb128 0
 2484 0527 10       		.uleb128 0x10
 2485 0528 01       		.uleb128 0x1
 2486 0529 51       		.byte	0x51
 2487 052a 01       		.uleb128 0x1
 2488 052b 30       		.byte	0x30
 2489 052c 00       		.byte	0
 2490 052d 12       		.uleb128 0x12
 2491 052e F8010000 		.4byte	.LVL49
 2492 0532 6F100000 		.4byte	0x106f
 2493 0536 48050000 		.4byte	0x548
 2494 053a 10       		.uleb128 0x10
 2495 053b 01       		.uleb128 0x1
 2496 053c 52       		.byte	0x52
 2497 053d 03       		.uleb128 0x3
 2498 053e 0A       		.byte	0xa
 2499 053f 3A65     		.2byte	0x653a
 2500 0541 10       		.uleb128 0x10
 2501 0542 01       		.uleb128 0x1
 2502 0543 51       		.byte	0x51
 2503 0544 02       		.uleb128 0x2
 2504 0545 75       		.byte	0x75
 2505 0546 00       		.sleb128 0
 2506 0547 00       		.byte	0
 2507 0548 12       		.uleb128 0x12
 2508 0549 08020000 		.4byte	.LVL50
 2509 054d 6F100000 		.4byte	0x106f
 2510 0551 63050000 		.4byte	0x563
 2511 0555 10       		.uleb128 0x10
 2512 0556 01       		.uleb128 0x1
 2513 0557 52       		.byte	0x52
 2514 0558 03       		.uleb128 0x3
 2515 0559 0A       		.byte	0xa
 2516 055a 7464     		.2byte	0x6474
 2517 055c 10       		.uleb128 0x10
 2518 055d 01       		.uleb128 0x1
 2519 055e 51       		.byte	0x51
 2520 055f 02       		.uleb128 0x2
 2521 0560 75       		.byte	0x75
 2522 0561 02       		.sleb128 2
 2523 0562 00       		.byte	0
 2524 0563 12       		.uleb128 0x12
 2525 0564 16020000 		.4byte	.LVL51
 2526 0568 42110000 		.4byte	0x1142
 2527 056c 89050000 		.4byte	0x589
ARM GAS  C:\Users\kopusov.FT\AppData\Local\Temp\ccT1QhKH.s 			page 71


 2528 0570 10       		.uleb128 0x10
 2529 0571 01       		.uleb128 0x1
 2530 0572 53       		.byte	0x53
 2531 0573 03       		.uleb128 0x3
 2532 0574 0A       		.byte	0xa
 2533 0575 0040     		.2byte	0x4000
 2534 0577 10       		.uleb128 0x10
 2535 0578 01       		.uleb128 0x1
 2536 0579 52       		.byte	0x52
 2537 057a 03       		.uleb128 0x3
 2538 057b 0A       		.byte	0xa
 2539 057c 0040     		.2byte	0x4000
 2540 057e 10       		.uleb128 0x10
 2541 057f 01       		.uleb128 0x1
 2542 0580 51       		.byte	0x51
 2543 0581 01       		.uleb128 0x1
 2544 0582 31       		.byte	0x31
 2545 0583 10       		.uleb128 0x10
 2546 0584 01       		.uleb128 0x1
 2547 0585 50       		.byte	0x50
 2548 0586 01       		.uleb128 0x1
 2549 0587 32       		.byte	0x32
 2550 0588 00       		.byte	0
 2551 0589 0E       		.uleb128 0xe
 2552 058a 24020000 		.4byte	.LVL54
 2553 058e 40100000 		.4byte	0x1040
 2554 0592 12       		.uleb128 0x12
 2555 0593 40020000 		.4byte	.LVL58
 2556 0597 4B100000 		.4byte	0x104b
 2557 059b AB050000 		.4byte	0x5ab
 2558 059f 10       		.uleb128 0x10
 2559 05a0 01       		.uleb128 0x1
 2560 05a1 53       		.byte	0x53
 2561 05a2 02       		.uleb128 0x2
 2562 05a3 08       		.byte	0x8
 2563 05a4 20       		.byte	0x20
 2564 05a5 10       		.uleb128 0x10
 2565 05a6 01       		.uleb128 0x1
 2566 05a7 51       		.byte	0x51
 2567 05a8 01       		.uleb128 0x1
 2568 05a9 32       		.byte	0x32
 2569 05aa 00       		.byte	0
 2570 05ab 12       		.uleb128 0x12
 2571 05ac 4C020000 		.4byte	.LVL59
 2572 05b0 4B100000 		.4byte	0x104b
 2573 05b4 C3050000 		.4byte	0x5c3
 2574 05b8 10       		.uleb128 0x10
 2575 05b9 01       		.uleb128 0x1
 2576 05ba 53       		.byte	0x53
 2577 05bb 01       		.uleb128 0x1
 2578 05bc 34       		.byte	0x34
 2579 05bd 10       		.uleb128 0x10
 2580 05be 01       		.uleb128 0x1
 2581 05bf 51       		.byte	0x51
 2582 05c0 01       		.uleb128 0x1
 2583 05c1 32       		.byte	0x32
 2584 05c2 00       		.byte	0
ARM GAS  C:\Users\kopusov.FT\AppData\Local\Temp\ccT1QhKH.s 			page 72


 2585 05c3 12       		.uleb128 0x12
 2586 05c4 58020000 		.4byte	.LVL60
 2587 05c8 4B100000 		.4byte	0x104b
 2588 05cc DC050000 		.4byte	0x5dc
 2589 05d0 10       		.uleb128 0x10
 2590 05d1 01       		.uleb128 0x1
 2591 05d2 53       		.byte	0x53
 2592 05d3 02       		.uleb128 0x2
 2593 05d4 08       		.byte	0x8
 2594 05d5 20       		.byte	0x20
 2595 05d6 10       		.uleb128 0x10
 2596 05d7 01       		.uleb128 0x1
 2597 05d8 51       		.byte	0x51
 2598 05d9 01       		.uleb128 0x1
 2599 05da 32       		.byte	0x32
 2600 05db 00       		.byte	0
 2601 05dc 12       		.uleb128 0x12
 2602 05dd 64020000 		.4byte	.LVL61
 2603 05e1 4B100000 		.4byte	0x104b
 2604 05e5 F4050000 		.4byte	0x5f4
 2605 05e9 10       		.uleb128 0x10
 2606 05ea 01       		.uleb128 0x1
 2607 05eb 53       		.byte	0x53
 2608 05ec 01       		.uleb128 0x1
 2609 05ed 34       		.byte	0x34
 2610 05ee 10       		.uleb128 0x10
 2611 05ef 01       		.uleb128 0x1
 2612 05f0 51       		.byte	0x51
 2613 05f1 01       		.uleb128 0x1
 2614 05f2 32       		.byte	0x32
 2615 05f3 00       		.byte	0
 2616 05f4 12       		.uleb128 0x12
 2617 05f5 70020000 		.4byte	.LVL62
 2618 05f9 4B100000 		.4byte	0x104b
 2619 05fd 0C060000 		.4byte	0x60c
 2620 0601 10       		.uleb128 0x10
 2621 0602 01       		.uleb128 0x1
 2622 0603 53       		.byte	0x53
 2623 0604 01       		.uleb128 0x1
 2624 0605 34       		.byte	0x34
 2625 0606 10       		.uleb128 0x10
 2626 0607 01       		.uleb128 0x1
 2627 0608 51       		.byte	0x51
 2628 0609 01       		.uleb128 0x1
 2629 060a 32       		.byte	0x32
 2630 060b 00       		.byte	0
 2631 060c 12       		.uleb128 0x12
 2632 060d 7C020000 		.4byte	.LVL63
 2633 0611 4B100000 		.4byte	0x104b
 2634 0615 24060000 		.4byte	0x624
 2635 0619 10       		.uleb128 0x10
 2636 061a 01       		.uleb128 0x1
 2637 061b 53       		.byte	0x53
 2638 061c 01       		.uleb128 0x1
 2639 061d 34       		.byte	0x34
 2640 061e 10       		.uleb128 0x10
 2641 061f 01       		.uleb128 0x1
ARM GAS  C:\Users\kopusov.FT\AppData\Local\Temp\ccT1QhKH.s 			page 73


 2642 0620 51       		.byte	0x51
 2643 0621 01       		.uleb128 0x1
 2644 0622 32       		.byte	0x32
 2645 0623 00       		.byte	0
 2646 0624 12       		.uleb128 0x12
 2647 0625 88020000 		.4byte	.LVL64
 2648 0629 4B100000 		.4byte	0x104b
 2649 062d 3C060000 		.4byte	0x63c
 2650 0631 10       		.uleb128 0x10
 2651 0632 01       		.uleb128 0x1
 2652 0633 53       		.byte	0x53
 2653 0634 01       		.uleb128 0x1
 2654 0635 34       		.byte	0x34
 2655 0636 10       		.uleb128 0x10
 2656 0637 01       		.uleb128 0x1
 2657 0638 51       		.byte	0x51
 2658 0639 01       		.uleb128 0x1
 2659 063a 32       		.byte	0x32
 2660 063b 00       		.byte	0
 2661 063c 12       		.uleb128 0x12
 2662 063d 9C020000 		.4byte	.LVL65
 2663 0641 6F100000 		.4byte	0x106f
 2664 0645 51060000 		.4byte	0x651
 2665 0649 10       		.uleb128 0x10
 2666 064a 01       		.uleb128 0x1
 2667 064b 51       		.byte	0x51
 2668 064c 03       		.uleb128 0x3
 2669 064d 0A       		.byte	0xa
 2670 064e 0868     		.2byte	0x6808
 2671 0650 00       		.byte	0
 2672 0651 12       		.uleb128 0x12
 2673 0652 AA020000 		.4byte	.LVL66
 2674 0656 6F100000 		.4byte	0x106f
 2675 065a 6D060000 		.4byte	0x66d
 2676 065e 10       		.uleb128 0x10
 2677 065f 01       		.uleb128 0x1
 2678 0660 52       		.byte	0x52
 2679 0661 03       		.uleb128 0x3
 2680 0662 0A       		.byte	0xa
 2681 0663 2868     		.2byte	0x6828
 2682 0665 10       		.uleb128 0x10
 2683 0666 01       		.uleb128 0x1
 2684 0667 51       		.byte	0x51
 2685 0668 03       		.uleb128 0x3
 2686 0669 0A       		.byte	0xa
 2687 066a 0468     		.2byte	0x6804
 2688 066c 00       		.byte	0
 2689 066d 12       		.uleb128 0x12
 2690 066e BE020000 		.4byte	.LVL67
 2691 0672 6F100000 		.4byte	0x106f
 2692 0676 82060000 		.4byte	0x682
 2693 067a 10       		.uleb128 0x10
 2694 067b 01       		.uleb128 0x1
 2695 067c 51       		.byte	0x51
 2696 067d 03       		.uleb128 0x3
 2697 067e 0A       		.byte	0xa
 2698 067f 0868     		.2byte	0x6808
ARM GAS  C:\Users\kopusov.FT\AppData\Local\Temp\ccT1QhKH.s 			page 74


 2699 0681 00       		.byte	0
 2700 0682 12       		.uleb128 0x12
 2701 0683 D2020000 		.4byte	.LVL68
 2702 0687 6F100000 		.4byte	0x106f
 2703 068b 97060000 		.4byte	0x697
 2704 068f 10       		.uleb128 0x10
 2705 0690 01       		.uleb128 0x1
 2706 0691 51       		.byte	0x51
 2707 0692 03       		.uleb128 0x3
 2708 0693 0A       		.byte	0xa
 2709 0694 0868     		.2byte	0x6808
 2710 0696 00       		.byte	0
 2711 0697 12       		.uleb128 0x12
 2712 0698 E6020000 		.4byte	.LVL69
 2713 069c 6F100000 		.4byte	0x106f
 2714 06a0 AC060000 		.4byte	0x6ac
 2715 06a4 10       		.uleb128 0x10
 2716 06a5 01       		.uleb128 0x1
 2717 06a6 51       		.byte	0x51
 2718 06a7 03       		.uleb128 0x3
 2719 06a8 0A       		.byte	0xa
 2720 06a9 0868     		.2byte	0x6808
 2721 06ab 00       		.byte	0
 2722 06ac 12       		.uleb128 0x12
 2723 06ad FA020000 		.4byte	.LVL70
 2724 06b1 6F100000 		.4byte	0x106f
 2725 06b5 C1060000 		.4byte	0x6c1
 2726 06b9 10       		.uleb128 0x10
 2727 06ba 01       		.uleb128 0x1
 2728 06bb 51       		.byte	0x51
 2729 06bc 03       		.uleb128 0x3
 2730 06bd 0A       		.byte	0xa
 2731 06be 0868     		.2byte	0x6808
 2732 06c0 00       		.byte	0
 2733 06c1 12       		.uleb128 0x12
 2734 06c2 0E030000 		.4byte	.LVL71
 2735 06c6 6F100000 		.4byte	0x106f
 2736 06ca D6060000 		.4byte	0x6d6
 2737 06ce 10       		.uleb128 0x10
 2738 06cf 01       		.uleb128 0x1
 2739 06d0 51       		.byte	0x51
 2740 06d1 03       		.uleb128 0x3
 2741 06d2 0A       		.byte	0xa
 2742 06d3 0868     		.2byte	0x6808
 2743 06d5 00       		.byte	0
 2744 06d6 12       		.uleb128 0x12
 2745 06d7 1C030000 		.4byte	.LVL72
 2746 06db 66110000 		.4byte	0x1166
 2747 06df FC060000 		.4byte	0x6fc
 2748 06e3 10       		.uleb128 0x10
 2749 06e4 01       		.uleb128 0x1
 2750 06e5 53       		.byte	0x53
 2751 06e6 03       		.uleb128 0x3
 2752 06e7 0A       		.byte	0xa
 2753 06e8 FF1F     		.2byte	0x1fff
 2754 06ea 10       		.uleb128 0x10
 2755 06eb 01       		.uleb128 0x1
ARM GAS  C:\Users\kopusov.FT\AppData\Local\Temp\ccT1QhKH.s 			page 75


 2756 06ec 52       		.byte	0x52
 2757 06ed 03       		.uleb128 0x3
 2758 06ee 0A       		.byte	0xa
 2759 06ef FF1F     		.2byte	0x1fff
 2760 06f1 10       		.uleb128 0x10
 2761 06f2 01       		.uleb128 0x1
 2762 06f3 51       		.byte	0x51
 2763 06f4 01       		.uleb128 0x1
 2764 06f5 30       		.byte	0x30
 2765 06f6 10       		.uleb128 0x10
 2766 06f7 01       		.uleb128 0x1
 2767 06f8 50       		.byte	0x50
 2768 06f9 01       		.uleb128 0x1
 2769 06fa 32       		.byte	0x32
 2770 06fb 00       		.byte	0
 2771 06fc 0E       		.uleb128 0xe
 2772 06fd 24030000 		.4byte	.LVL73
 2773 0701 40100000 		.4byte	0x1040
 2774 0705 12       		.uleb128 0x12
 2775 0706 38030000 		.4byte	.LVL74
 2776 070a 8A110000 		.4byte	0x118a
 2777 070e 2B070000 		.4byte	0x72b
 2778 0712 10       		.uleb128 0x10
 2779 0713 01       		.uleb128 0x1
 2780 0714 53       		.byte	0x53
 2781 0715 03       		.uleb128 0x3
 2782 0716 0A       		.byte	0xa
 2783 0717 FF1F     		.2byte	0x1fff
 2784 0719 10       		.uleb128 0x10
 2785 071a 01       		.uleb128 0x1
 2786 071b 52       		.byte	0x52
 2787 071c 03       		.uleb128 0x3
 2788 071d 0A       		.byte	0xa
 2789 071e 0040     		.2byte	0x4000
 2790 0720 10       		.uleb128 0x10
 2791 0721 01       		.uleb128 0x1
 2792 0722 51       		.byte	0x51
 2793 0723 01       		.uleb128 0x1
 2794 0724 30       		.byte	0x30
 2795 0725 10       		.uleb128 0x10
 2796 0726 01       		.uleb128 0x1
 2797 0727 50       		.byte	0x50
 2798 0728 01       		.uleb128 0x1
 2799 0729 32       		.byte	0x32
 2800 072a 00       		.byte	0
 2801 072b 0E       		.uleb128 0xe
 2802 072c 40030000 		.4byte	.LVL75
 2803 0730 40100000 		.4byte	0x1040
 2804 0734 0F       		.uleb128 0xf
 2805 0735 4E030000 		.4byte	.LVL76
 2806 0739 4B100000 		.4byte	0x104b
 2807 073d 10       		.uleb128 0x10
 2808 073e 01       		.uleb128 0x1
 2809 073f 53       		.byte	0x53
 2810 0740 02       		.uleb128 0x2
 2811 0741 09       		.byte	0x9
 2812 0742 85       		.byte	0x85
ARM GAS  C:\Users\kopusov.FT\AppData\Local\Temp\ccT1QhKH.s 			page 76


 2813 0743 10       		.uleb128 0x10
 2814 0744 01       		.uleb128 0x1
 2815 0745 52       		.byte	0x52
 2816 0746 02       		.uleb128 0x2
 2817 0747 09       		.byte	0x9
 2818 0748 FF       		.byte	0xff
 2819 0749 10       		.uleb128 0x10
 2820 074a 01       		.uleb128 0x1
 2821 074b 51       		.byte	0x51
 2822 074c 01       		.uleb128 0x1
 2823 074d 32       		.byte	0x32
 2824 074e 00       		.byte	0
 2825 074f 00       		.byte	0
 2826 0750 0C       		.uleb128 0xc
 2827 0751 AC030000 		.4byte	.LASF34
 2828 0755 01       		.byte	0x1
 2829 0756 7E03     		.2byte	0x37e
 2830 0758 00000000 		.4byte	.LFB16
 2831 075c 4C000000 		.4byte	.LFE16-.LFB16
 2832 0760 01       		.uleb128 0x1
 2833 0761 9C       		.byte	0x9c
 2834 0762 C7070000 		.4byte	0x7c7
 2835 0766 0D       		.uleb128 0xd
 2836 0767 6900     		.ascii	"i\000"
 2837 0769 01       		.byte	0x1
 2838 076a 8003     		.2byte	0x380
 2839 076c 6B000000 		.4byte	0x6b
 2840 0770 76000000 		.4byte	.LLST2
 2841 0774 13       		.uleb128 0x13
 2842 0775 72060000 		.4byte	.LASF35
 2843 0779 01       		.byte	0x1
 2844 077a 8103     		.2byte	0x381
 2845 077c 6B000000 		.4byte	0x6b
 2846 0780 A0000000 		.4byte	.LLST3
 2847 0784 12       		.uleb128 0x12
 2848 0785 14000000 		.4byte	.LVL80
 2849 0789 AE110000 		.4byte	0x11ae
 2850 078d 98070000 		.4byte	0x798
 2851 0791 10       		.uleb128 0x10
 2852 0792 01       		.uleb128 0x1
 2853 0793 50       		.byte	0x50
 2854 0794 02       		.uleb128 0x2
 2855 0795 75       		.byte	0x75
 2856 0796 00       		.sleb128 0
 2857 0797 00       		.byte	0
 2858 0798 12       		.uleb128 0x12
 2859 0799 2A000000 		.4byte	.LVL81
 2860 079d C3110000 		.4byte	0x11c3
 2861 07a1 B1070000 		.4byte	0x7b1
 2862 07a5 10       		.uleb128 0x10
 2863 07a6 01       		.uleb128 0x1
 2864 07a7 51       		.byte	0x51
 2865 07a8 01       		.uleb128 0x1
 2866 07a9 34       		.byte	0x34
 2867 07aa 10       		.uleb128 0x10
 2868 07ab 01       		.uleb128 0x1
 2869 07ac 50       		.byte	0x50
ARM GAS  C:\Users\kopusov.FT\AppData\Local\Temp\ccT1QhKH.s 			page 77


 2870 07ad 02       		.uleb128 0x2
 2871 07ae 75       		.byte	0x75
 2872 07af 00       		.sleb128 0
 2873 07b0 00       		.byte	0
 2874 07b1 0F       		.uleb128 0xf
 2875 07b2 32000000 		.4byte	.LVL82
 2876 07b6 DE0F0000 		.4byte	0xfde
 2877 07ba 10       		.uleb128 0x10
 2878 07bb 01       		.uleb128 0x1
 2879 07bc 51       		.byte	0x51
 2880 07bd 01       		.uleb128 0x1
 2881 07be 31       		.byte	0x31
 2882 07bf 10       		.uleb128 0x10
 2883 07c0 01       		.uleb128 0x1
 2884 07c1 50       		.byte	0x50
 2885 07c2 02       		.uleb128 0x2
 2886 07c3 75       		.byte	0x75
 2887 07c4 00       		.sleb128 0
 2888 07c5 00       		.byte	0
 2889 07c6 00       		.byte	0
 2890 07c7 14       		.uleb128 0x14
 2891 07c8 84040000 		.4byte	.LASF113
 2892 07cc 01       		.byte	0x1
 2893 07cd 3303     		.2byte	0x333
 2894 07cf 6B000000 		.4byte	0x6b
 2895 07d3 00000000 		.4byte	.LFB14
 2896 07d7 2C000000 		.4byte	.LFE14-.LFB14
 2897 07db 01       		.uleb128 0x1
 2898 07dc 9C       		.byte	0x9c
 2899 07dd 11080000 		.4byte	0x811
 2900 07e1 15       		.uleb128 0x15
 2901 07e2 56020000 		.4byte	.LASF43
 2902 07e6 01       		.byte	0x1
 2903 07e7 3303     		.2byte	0x333
 2904 07e9 6B000000 		.4byte	0x6b
 2905 07ed B3000000 		.4byte	.LLST4
 2906 07f1 13       		.uleb128 0x13
 2907 07f2 62090000 		.4byte	.LASF36
 2908 07f6 01       		.byte	0x1
 2909 07f7 3503     		.2byte	0x335
 2910 07f9 6B000000 		.4byte	0x6b
 2911 07fd D4000000 		.4byte	.LLST5
 2912 0801 0F       		.uleb128 0xf
 2913 0802 12000000 		.4byte	.LVL91
 2914 0806 DD110000 		.4byte	0x11dd
 2915 080a 10       		.uleb128 0x10
 2916 080b 01       		.uleb128 0x1
 2917 080c 50       		.byte	0x50
 2918 080d 01       		.uleb128 0x1
 2919 080e 31       		.byte	0x31
 2920 080f 00       		.byte	0
 2921 0810 00       		.byte	0
 2922 0811 16       		.uleb128 0x16
 2923 0812 0E050000 		.4byte	.LASF38
 2924 0816 01       		.byte	0x1
 2925 0817 2D01     		.2byte	0x12d
 2926 0819 00000000 		.4byte	.LFB4
ARM GAS  C:\Users\kopusov.FT\AppData\Local\Temp\ccT1QhKH.s 			page 78


 2927 081d 10000000 		.4byte	.LFE4-.LFB4
 2928 0821 01       		.uleb128 0x1
 2929 0822 9C       		.byte	0x9c
 2930 0823 17       		.uleb128 0x17
 2931 0824 99070000 		.4byte	.LASF40
 2932 0828 01       		.byte	0x1
 2933 0829 75       		.byte	0x75
 2934 082a 00000000 		.4byte	.LFB0
 2935 082e 30000000 		.4byte	.LFE0-.LFB0
 2936 0832 01       		.uleb128 0x1
 2937 0833 9C       		.byte	0x9c
 2938 0834 6C080000 		.4byte	0x86c
 2939 0838 18       		.uleb128 0x18
 2940 0839 FC070000 		.4byte	.LASF37
 2941 083d 01       		.byte	0x1
 2942 083e 77       		.byte	0x77
 2943 083f 6B000000 		.4byte	0x6b
 2944 0843 FF000000 		.4byte	.LLST6
 2945 0847 0E       		.uleb128 0xe
 2946 0848 06000000 		.4byte	.LVL94
 2947 084c EE110000 		.4byte	0x11ee
 2948 0850 0E       		.uleb128 0xe
 2949 0851 14000000 		.4byte	.LVL95
 2950 0855 F9110000 		.4byte	0x11f9
 2951 0859 0E       		.uleb128 0xe
 2952 085a 18000000 		.4byte	.LVL96
 2953 085e B9010000 		.4byte	0x1b9
 2954 0862 0E       		.uleb128 0xe
 2955 0863 1C000000 		.4byte	.LVL97
 2956 0867 11080000 		.4byte	0x811
 2957 086b 00       		.byte	0
 2958 086c 16       		.uleb128 0x16
 2959 086d B7090000 		.4byte	.LASF39
 2960 0871 01       		.byte	0x1
 2961 0872 4101     		.2byte	0x141
 2962 0874 00000000 		.4byte	.LFB5
 2963 0878 10000000 		.4byte	.LFE5-.LFB5
 2964 087c 01       		.uleb128 0x1
 2965 087d 9C       		.byte	0x9c
 2966 087e 17       		.uleb128 0x17
 2967 087f 7A070000 		.4byte	.LASF41
 2968 0883 01       		.byte	0x1
 2969 0884 FC       		.byte	0xfc
 2970 0885 00000000 		.4byte	.LFB3
 2971 0889 80000000 		.4byte	.LFE3-.LFB3
 2972 088d 01       		.uleb128 0x1
 2973 088e 9C       		.byte	0x9c
 2974 088f C7080000 		.4byte	0x8c7
 2975 0893 18       		.uleb128 0x18
 2976 0894 FC070000 		.4byte	.LASF37
 2977 0898 01       		.byte	0x1
 2978 0899 FE       		.byte	0xfe
 2979 089a 6B000000 		.4byte	0x6b
 2980 089e 12010000 		.4byte	.LLST7
 2981 08a2 0E       		.uleb128 0xe
 2982 08a3 10000000 		.4byte	.LVL98
 2983 08a7 6C080000 		.4byte	0x86c
ARM GAS  C:\Users\kopusov.FT\AppData\Local\Temp\ccT1QhKH.s 			page 79


 2984 08ab 0E       		.uleb128 0xe
 2985 08ac 14000000 		.4byte	.LVL99
 2986 08b0 50070000 		.4byte	0x750
 2987 08b4 0E       		.uleb128 0xe
 2988 08b5 18000000 		.4byte	.LVL100
 2989 08b9 EE110000 		.4byte	0x11ee
 2990 08bd 0E       		.uleb128 0xe
 2991 08be 70000000 		.4byte	.LVL101
 2992 08c2 F9110000 		.4byte	0x11f9
 2993 08c6 00       		.byte	0
 2994 08c7 19       		.uleb128 0x19
 2995 08c8 82030000 		.4byte	.LASF42
 2996 08cc 01       		.byte	0x1
 2997 08cd 5901     		.2byte	0x159
 2998 08cf 00000000 		.4byte	.LFB6
 2999 08d3 20000000 		.4byte	.LFE6-.LFB6
 3000 08d7 01       		.uleb128 0x1
 3001 08d8 9C       		.byte	0x9c
 3002 08d9 EC080000 		.4byte	0x8ec
 3003 08dd 1A       		.uleb128 0x1a
 3004 08de 7C040000 		.4byte	.LASF44
 3005 08e2 01       		.byte	0x1
 3006 08e3 5901     		.2byte	0x159
 3007 08e5 6B000000 		.4byte	0x6b
 3008 08e9 01       		.uleb128 0x1
 3009 08ea 50       		.byte	0x50
 3010 08eb 00       		.byte	0
 3011 08ec 19       		.uleb128 0x19
 3012 08ed B6050000 		.4byte	.LASF45
 3013 08f1 01       		.byte	0x1
 3014 08f2 7101     		.2byte	0x171
 3015 08f4 00000000 		.4byte	.LFB7
 3016 08f8 24000000 		.4byte	.LFE7-.LFB7
 3017 08fc 01       		.uleb128 0x1
 3018 08fd 9C       		.byte	0x9c
 3019 08fe 13090000 		.4byte	0x913
 3020 0902 15       		.uleb128 0x15
 3021 0903 B8040000 		.4byte	.LASF46
 3022 0907 01       		.byte	0x1
 3023 0908 7101     		.2byte	0x171
 3024 090a 6B000000 		.4byte	0x6b
 3025 090e 25010000 		.4byte	.LLST8
 3026 0912 00       		.byte	0
 3027 0913 19       		.uleb128 0x19
 3028 0914 D1090000 		.4byte	.LASF47
 3029 0918 01       		.byte	0x1
 3030 0919 8F01     		.2byte	0x18f
 3031 091b 00000000 		.4byte	.LFB8
 3032 091f 0A000000 		.4byte	.LFE8-.LFB8
 3033 0923 01       		.uleb128 0x1
 3034 0924 9C       		.byte	0x9c
 3035 0925 39090000 		.4byte	0x939
 3036 0929 0F       		.uleb128 0xf
 3037 092a 08000000 		.4byte	.LVL105
 3038 092e EC080000 		.4byte	0x8ec
 3039 0932 10       		.uleb128 0x10
 3040 0933 01       		.uleb128 0x1
ARM GAS  C:\Users\kopusov.FT\AppData\Local\Temp\ccT1QhKH.s 			page 80


 3041 0934 50       		.byte	0x50
 3042 0935 01       		.uleb128 0x1
 3043 0936 30       		.byte	0x30
 3044 0937 00       		.byte	0
 3045 0938 00       		.byte	0
 3046 0939 17       		.uleb128 0x17
 3047 093a 42020000 		.4byte	.LASF48
 3048 093e 01       		.byte	0x1
 3049 093f 9F       		.byte	0x9f
 3050 0940 00000000 		.4byte	.LFB1
 3051 0944 74000000 		.4byte	.LFE1-.LFB1
 3052 0948 01       		.uleb128 0x1
 3053 0949 9C       		.byte	0x9c
 3054 094a A6090000 		.4byte	0x9a6
 3055 094e 1B       		.uleb128 0x1b
 3056 094f 37070000 		.4byte	.LASF49
 3057 0953 01       		.byte	0x1
 3058 0954 A2       		.byte	0xa2
 3059 0955 6B000000 		.4byte	0x6b
 3060 0959 05       		.uleb128 0x5
 3061 095a 03       		.byte	0x3
 3062 095b 86000000 		.4byte	MDIO_Interface_dmaInitDone.5077
 3063 095f 18       		.uleb128 0x18
 3064 0960 FC070000 		.4byte	.LASF37
 3065 0964 01       		.byte	0x1
 3066 0965 A4       		.byte	0xa4
 3067 0966 6B000000 		.4byte	0x6b
 3068 096a 43010000 		.4byte	.LLST9
 3069 096e 12       		.uleb128 0x12
 3070 096f 08000000 		.4byte	.LVL106
 3071 0973 C7080000 		.4byte	0x8c7
 3072 0977 81090000 		.4byte	0x981
 3073 097b 10       		.uleb128 0x10
 3074 097c 01       		.uleb128 0x1
 3075 097d 50       		.byte	0x50
 3076 097e 01       		.uleb128 0x1
 3077 097f 31       		.byte	0x31
 3078 0980 00       		.byte	0
 3079 0981 0E       		.uleb128 0xe
 3080 0982 0C000000 		.4byte	.LVL107
 3081 0986 13090000 		.4byte	0x913
 3082 098a 0E       		.uleb128 0xe
 3083 098b 10000000 		.4byte	.LVL108
 3084 098f EE110000 		.4byte	0x11ee
 3085 0993 0E       		.uleb128 0xe
 3086 0994 28000000 		.4byte	.LVL109
 3087 0998 F9110000 		.4byte	0x11f9
 3088 099c 0E       		.uleb128 0xe
 3089 099d 58000000 		.4byte	.LVL110
 3090 09a1 47020000 		.4byte	0x247
 3091 09a5 00       		.byte	0
 3092 09a6 17       		.uleb128 0x17
 3093 09a7 F4000000 		.4byte	.LASF50
 3094 09ab 01       		.byte	0x1
 3095 09ac DF       		.byte	0xdf
 3096 09ad 00000000 		.4byte	.LFB2
 3097 09b1 20000000 		.4byte	.LFE2-.LFB2
ARM GAS  C:\Users\kopusov.FT\AppData\Local\Temp\ccT1QhKH.s 			page 81


 3098 09b5 01       		.uleb128 0x1
 3099 09b6 9C       		.byte	0x9c
 3100 09b7 CE090000 		.4byte	0x9ce
 3101 09bb 0E       		.uleb128 0xe
 3102 09bc 0E000000 		.4byte	.LVL111
 3103 09c0 39090000 		.4byte	0x939
 3104 09c4 0E       		.uleb128 0xe
 3105 09c5 1A000000 		.4byte	.LVL112
 3106 09c9 23080000 		.4byte	0x823
 3107 09cd 00       		.byte	0
 3108 09ce 1C       		.uleb128 0x1c
 3109 09cf D8030000 		.4byte	.LASF114
 3110 09d3 01       		.byte	0x1
 3111 09d4 E001     		.2byte	0x1e0
 3112 09d6 77000000 		.4byte	0x77
 3113 09da 00000000 		.4byte	.LFB9
 3114 09de 0C000000 		.4byte	.LFE9-.LFB9
 3115 09e2 01       		.uleb128 0x1
 3116 09e3 9C       		.byte	0x9c
 3117 09e4 1D       		.uleb128 0x1d
 3118 09e5 D3050000 		.4byte	.LASF56
 3119 09e9 01       		.byte	0x1
 3120 09ea FC01     		.2byte	0x1fc
 3121 09ec 6B000000 		.4byte	0x6b
 3122 09f0 00000000 		.4byte	.LFB10
 3123 09f4 A4000000 		.4byte	.LFE10-.LFB10
 3124 09f8 01       		.uleb128 0x1
 3125 09f9 9C       		.byte	0x9c
 3126 09fa F00A0000 		.4byte	0xaf0
 3127 09fe 15       		.uleb128 0x15
 3128 09ff F4040000 		.4byte	.LASF51
 3129 0a03 01       		.byte	0x1
 3130 0a04 FC01     		.2byte	0x1fc
 3131 0a06 77000000 		.4byte	0x77
 3132 0a0a 56010000 		.4byte	.LLST10
 3133 0a0e 15       		.uleb128 0x15
 3134 0a0f 0C070000 		.4byte	.LASF52
 3135 0a13 01       		.byte	0x1
 3136 0a14 FC01     		.2byte	0x1fc
 3137 0a16 F00A0000 		.4byte	0xaf0
 3138 0a1a 77010000 		.4byte	.LLST11
 3139 0a1e 15       		.uleb128 0x15
 3140 0a1f F3070000 		.4byte	.LASF53
 3141 0a23 01       		.byte	0x1
 3142 0a24 FC01     		.2byte	0x1fc
 3143 0a26 77000000 		.4byte	0x77
 3144 0a2a A3010000 		.4byte	.LLST12
 3145 0a2e 13       		.uleb128 0x13
 3146 0a2f 0B0A0000 		.4byte	.LASF54
 3147 0a33 01       		.byte	0x1
 3148 0a34 FF01     		.2byte	0x1ff
 3149 0a36 6B000000 		.4byte	0x6b
 3150 0a3a CC010000 		.4byte	.LLST13
 3151 0a3e 0D       		.uleb128 0xd
 3152 0a3f 6900     		.ascii	"i\000"
 3153 0a41 01       		.byte	0x1
 3154 0a42 0002     		.2byte	0x200
ARM GAS  C:\Users\kopusov.FT\AppData\Local\Temp\ccT1QhKH.s 			page 82


 3155 0a44 6B000000 		.4byte	0x6b
 3156 0a48 F6010000 		.4byte	.LLST14
 3157 0a4c 0D       		.uleb128 0xd
 3158 0a4d 69647800 		.ascii	"idx\000"
 3159 0a51 01       		.byte	0x1
 3160 0a52 0102     		.2byte	0x201
 3161 0a54 77000000 		.4byte	0x77
 3162 0a58 20020000 		.4byte	.LLST15
 3163 0a5c 13       		.uleb128 0x13
 3164 0a5d 0E040000 		.4byte	.LASF55
 3165 0a61 01       		.byte	0x1
 3166 0a62 0202     		.2byte	0x202
 3167 0a64 83000000 		.4byte	0x83
 3168 0a68 53020000 		.4byte	.LLST16
 3169 0a6c 12       		.uleb128 0x12
 3170 0a6d 54000000 		.4byte	.LVL124
 3171 0a71 66110000 		.4byte	0x1166
 3172 0a75 930A0000 		.4byte	0xa93
 3173 0a79 10       		.uleb128 0x10
 3174 0a7a 01       		.uleb128 0x1
 3175 0a7b 53       		.byte	0x53
 3176 0a7c 03       		.uleb128 0x3
 3177 0a7d 0A       		.byte	0xa
 3178 0a7e FF1F     		.2byte	0x1fff
 3179 0a80 10       		.uleb128 0x10
 3180 0a81 01       		.uleb128 0x1
 3181 0a82 52       		.byte	0x52
 3182 0a83 04       		.uleb128 0x4
 3183 0a84 75       		.byte	0x75
 3184 0a85 00       		.sleb128 0
 3185 0a86 40       		.byte	0x40
 3186 0a87 25       		.byte	0x25
 3187 0a88 10       		.uleb128 0x10
 3188 0a89 01       		.uleb128 0x1
 3189 0a8a 51       		.byte	0x51
 3190 0a8b 01       		.uleb128 0x1
 3191 0a8c 30       		.byte	0x30
 3192 0a8d 10       		.uleb128 0x10
 3193 0a8e 01       		.uleb128 0x1
 3194 0a8f 50       		.byte	0x50
 3195 0a90 01       		.uleb128 0x1
 3196 0a91 32       		.byte	0x32
 3197 0a92 00       		.byte	0
 3198 0a93 12       		.uleb128 0x12
 3199 0a94 66000000 		.4byte	.LVL125
 3200 0a98 4B100000 		.4byte	0x104b
 3201 0a9c B30A0000 		.4byte	0xab3
 3202 0aa0 10       		.uleb128 0x10
 3203 0aa1 01       		.uleb128 0x1
 3204 0aa2 53       		.byte	0x53
 3205 0aa3 02       		.uleb128 0x2
 3206 0aa4 09       		.byte	0x9
 3207 0aa5 87       		.byte	0x87
 3208 0aa6 10       		.uleb128 0x10
 3209 0aa7 01       		.uleb128 0x1
 3210 0aa8 52       		.byte	0x52
 3211 0aa9 02       		.uleb128 0x2
ARM GAS  C:\Users\kopusov.FT\AppData\Local\Temp\ccT1QhKH.s 			page 83


 3212 0aaa 09       		.byte	0x9
 3213 0aab FF       		.byte	0xff
 3214 0aac 10       		.uleb128 0x10
 3215 0aad 01       		.uleb128 0x1
 3216 0aae 51       		.byte	0x51
 3217 0aaf 02       		.uleb128 0x2
 3218 0ab0 77       		.byte	0x77
 3219 0ab1 00       		.sleb128 0
 3220 0ab2 00       		.byte	0
 3221 0ab3 12       		.uleb128 0x12
 3222 0ab4 74000000 		.4byte	.LVL126
 3223 0ab8 6F100000 		.4byte	0x106f
 3224 0abc CD0A0000 		.4byte	0xacd
 3225 0ac0 10       		.uleb128 0x10
 3226 0ac1 01       		.uleb128 0x1
 3227 0ac2 52       		.byte	0x52
 3228 0ac3 02       		.uleb128 0x2
 3229 0ac4 78       		.byte	0x78
 3230 0ac5 00       		.sleb128 0
 3231 0ac6 10       		.uleb128 0x10
 3232 0ac7 01       		.uleb128 0x1
 3233 0ac8 51       		.byte	0x51
 3234 0ac9 02       		.uleb128 0x2
 3235 0aca 75       		.byte	0x75
 3236 0acb 00       		.sleb128 0
 3237 0acc 00       		.byte	0
 3238 0acd 12       		.uleb128 0x12
 3239 0ace 82000000 		.4byte	.LVL127
 3240 0ad2 C3110000 		.4byte	0x11c3
 3241 0ad6 E00A0000 		.4byte	0xae0
 3242 0ada 10       		.uleb128 0x10
 3243 0adb 01       		.uleb128 0x1
 3244 0adc 51       		.byte	0x51
 3245 0add 01       		.uleb128 0x1
 3246 0ade 31       		.byte	0x31
 3247 0adf 00       		.byte	0
 3248 0ae0 0F       		.uleb128 0xf
 3249 0ae1 88000000 		.4byte	.LVL128
 3250 0ae5 C7070000 		.4byte	0x7c7
 3251 0ae9 10       		.uleb128 0x10
 3252 0aea 01       		.uleb128 0x1
 3253 0aeb 50       		.byte	0x50
 3254 0aec 01       		.uleb128 0x1
 3255 0aed 31       		.byte	0x31
 3256 0aee 00       		.byte	0
 3257 0aef 00       		.byte	0
 3258 0af0 1E       		.uleb128 0x1e
 3259 0af1 04       		.byte	0x4
 3260 0af2 F60A0000 		.4byte	0xaf6
 3261 0af6 1F       		.uleb128 0x1f
 3262 0af7 77000000 		.4byte	0x77
 3263 0afb 1D       		.uleb128 0x1d
 3264 0afc C2000000 		.4byte	.LASF57
 3265 0b00 01       		.byte	0x1
 3266 0b01 5302     		.2byte	0x253
 3267 0b03 6B000000 		.4byte	0x6b
 3268 0b07 00000000 		.4byte	.LFB11
ARM GAS  C:\Users\kopusov.FT\AppData\Local\Temp\ccT1QhKH.s 			page 84


 3269 0b0b A4000000 		.4byte	.LFE11-.LFB11
 3270 0b0f 01       		.uleb128 0x1
 3271 0b10 9C       		.byte	0x9c
 3272 0b11 070C0000 		.4byte	0xc07
 3273 0b15 15       		.uleb128 0x15
 3274 0b16 F4040000 		.4byte	.LASF51
 3275 0b1a 01       		.byte	0x1
 3276 0b1b 5302     		.2byte	0x253
 3277 0b1d 77000000 		.4byte	0x77
 3278 0b21 66020000 		.4byte	.LLST17
 3279 0b25 15       		.uleb128 0x15
 3280 0b26 0C070000 		.4byte	.LASF52
 3281 0b2a 01       		.byte	0x1
 3282 0b2b 5302     		.2byte	0x253
 3283 0b2d F00A0000 		.4byte	0xaf0
 3284 0b31 87020000 		.4byte	.LLST18
 3285 0b35 15       		.uleb128 0x15
 3286 0b36 F3070000 		.4byte	.LASF53
 3287 0b3a 01       		.byte	0x1
 3288 0b3b 5302     		.2byte	0x253
 3289 0b3d 77000000 		.4byte	0x77
 3290 0b41 B3020000 		.4byte	.LLST19
 3291 0b45 13       		.uleb128 0x13
 3292 0b46 0B0A0000 		.4byte	.LASF54
 3293 0b4a 01       		.byte	0x1
 3294 0b4b 5602     		.2byte	0x256
 3295 0b4d 6B000000 		.4byte	0x6b
 3296 0b51 DC020000 		.4byte	.LLST20
 3297 0b55 0D       		.uleb128 0xd
 3298 0b56 6900     		.ascii	"i\000"
 3299 0b58 01       		.byte	0x1
 3300 0b59 5702     		.2byte	0x257
 3301 0b5b 6B000000 		.4byte	0x6b
 3302 0b5f 06030000 		.4byte	.LLST21
 3303 0b63 0D       		.uleb128 0xd
 3304 0b64 69647800 		.ascii	"idx\000"
 3305 0b68 01       		.byte	0x1
 3306 0b69 5802     		.2byte	0x258
 3307 0b6b 77000000 		.4byte	0x77
 3308 0b6f 30030000 		.4byte	.LLST22
 3309 0b73 13       		.uleb128 0x13
 3310 0b74 0E040000 		.4byte	.LASF55
 3311 0b78 01       		.byte	0x1
 3312 0b79 5902     		.2byte	0x259
 3313 0b7b 83000000 		.4byte	0x83
 3314 0b7f 63030000 		.4byte	.LLST23
 3315 0b83 12       		.uleb128 0x12
 3316 0b84 54000000 		.4byte	.LVL143
 3317 0b88 66110000 		.4byte	0x1166
 3318 0b8c AA0B0000 		.4byte	0xbaa
 3319 0b90 10       		.uleb128 0x10
 3320 0b91 01       		.uleb128 0x1
 3321 0b92 53       		.byte	0x53
 3322 0b93 04       		.uleb128 0x4
 3323 0b94 75       		.byte	0x75
 3324 0b95 00       		.sleb128 0
 3325 0b96 40       		.byte	0x40
ARM GAS  C:\Users\kopusov.FT\AppData\Local\Temp\ccT1QhKH.s 			page 85


 3326 0b97 25       		.byte	0x25
 3327 0b98 10       		.uleb128 0x10
 3328 0b99 01       		.uleb128 0x1
 3329 0b9a 52       		.byte	0x52
 3330 0b9b 03       		.uleb128 0x3
 3331 0b9c 0A       		.byte	0xa
 3332 0b9d FF1F     		.2byte	0x1fff
 3333 0b9f 10       		.uleb128 0x10
 3334 0ba0 01       		.uleb128 0x1
 3335 0ba1 51       		.byte	0x51
 3336 0ba2 01       		.uleb128 0x1
 3337 0ba3 30       		.byte	0x30
 3338 0ba4 10       		.uleb128 0x10
 3339 0ba5 01       		.uleb128 0x1
 3340 0ba6 50       		.byte	0x50
 3341 0ba7 01       		.uleb128 0x1
 3342 0ba8 32       		.byte	0x32
 3343 0ba9 00       		.byte	0
 3344 0baa 12       		.uleb128 0x12
 3345 0bab 66000000 		.4byte	.LVL144
 3346 0baf 4B100000 		.4byte	0x104b
 3347 0bb3 CA0B0000 		.4byte	0xbca
 3348 0bb7 10       		.uleb128 0x10
 3349 0bb8 01       		.uleb128 0x1
 3350 0bb9 53       		.byte	0x53
 3351 0bba 02       		.uleb128 0x2
 3352 0bbb 09       		.byte	0x9
 3353 0bbc 87       		.byte	0x87
 3354 0bbd 10       		.uleb128 0x10
 3355 0bbe 01       		.uleb128 0x1
 3356 0bbf 52       		.byte	0x52
 3357 0bc0 02       		.uleb128 0x2
 3358 0bc1 09       		.byte	0x9
 3359 0bc2 FF       		.byte	0xff
 3360 0bc3 10       		.uleb128 0x10
 3361 0bc4 01       		.uleb128 0x1
 3362 0bc5 51       		.byte	0x51
 3363 0bc6 02       		.uleb128 0x2
 3364 0bc7 77       		.byte	0x77
 3365 0bc8 00       		.sleb128 0
 3366 0bc9 00       		.byte	0
 3367 0bca 12       		.uleb128 0x12
 3368 0bcb 74000000 		.4byte	.LVL145
 3369 0bcf 6F100000 		.4byte	0x106f
 3370 0bd3 E40B0000 		.4byte	0xbe4
 3371 0bd7 10       		.uleb128 0x10
 3372 0bd8 01       		.uleb128 0x1
 3373 0bd9 52       		.byte	0x52
 3374 0bda 02       		.uleb128 0x2
 3375 0bdb 75       		.byte	0x75
 3376 0bdc 00       		.sleb128 0
 3377 0bdd 10       		.uleb128 0x10
 3378 0bde 01       		.uleb128 0x1
 3379 0bdf 51       		.byte	0x51
 3380 0be0 02       		.uleb128 0x2
 3381 0be1 78       		.byte	0x78
 3382 0be2 00       		.sleb128 0
ARM GAS  C:\Users\kopusov.FT\AppData\Local\Temp\ccT1QhKH.s 			page 86


 3383 0be3 00       		.byte	0
 3384 0be4 12       		.uleb128 0x12
 3385 0be5 82000000 		.4byte	.LVL146
 3386 0be9 C3110000 		.4byte	0x11c3
 3387 0bed F70B0000 		.4byte	0xbf7
 3388 0bf1 10       		.uleb128 0x10
 3389 0bf2 01       		.uleb128 0x1
 3390 0bf3 51       		.byte	0x51
 3391 0bf4 01       		.uleb128 0x1
 3392 0bf5 31       		.byte	0x31
 3393 0bf6 00       		.byte	0
 3394 0bf7 0F       		.uleb128 0xf
 3395 0bf8 88000000 		.4byte	.LVL147
 3396 0bfc C7070000 		.4byte	0x7c7
 3397 0c00 10       		.uleb128 0x10
 3398 0c01 01       		.uleb128 0x1
 3399 0c02 50       		.byte	0x50
 3400 0c03 01       		.uleb128 0x1
 3401 0c04 31       		.byte	0x31
 3402 0c05 00       		.byte	0
 3403 0c06 00       		.byte	0
 3404 0c07 1D       		.uleb128 0x1d
 3405 0c08 31090000 		.4byte	.LASF58
 3406 0c0c 01       		.byte	0x1
 3407 0c0d AC02     		.2byte	0x2ac
 3408 0c0f 6B000000 		.4byte	0x6b
 3409 0c13 00000000 		.4byte	.LFB12
 3410 0c17 BC000000 		.4byte	.LFE12-.LFB12
 3411 0c1b 01       		.uleb128 0x1
 3412 0c1c 9C       		.byte	0x9c
 3413 0c1d 170D0000 		.4byte	0xd17
 3414 0c21 15       		.uleb128 0x15
 3415 0c22 F4040000 		.4byte	.LASF51
 3416 0c26 01       		.byte	0x1
 3417 0c27 AC02     		.2byte	0x2ac
 3418 0c29 77000000 		.4byte	0x77
 3419 0c2d 76030000 		.4byte	.LLST24
 3420 0c31 15       		.uleb128 0x15
 3421 0c32 5B050000 		.4byte	.LASF59
 3422 0c36 01       		.byte	0x1
 3423 0c37 AC02     		.2byte	0x2ac
 3424 0c39 77000000 		.4byte	0x77
 3425 0c3d 97030000 		.4byte	.LLST25
 3426 0c41 13       		.uleb128 0x13
 3427 0c42 0B0A0000 		.4byte	.LASF54
 3428 0c46 01       		.byte	0x1
 3429 0c47 AE02     		.2byte	0x2ae
 3430 0c49 6B000000 		.4byte	0x6b
 3431 0c4d B8030000 		.4byte	.LLST26
 3432 0c51 0D       		.uleb128 0xd
 3433 0c52 6900     		.ascii	"i\000"
 3434 0c54 01       		.byte	0x1
 3435 0c55 AF02     		.2byte	0x2af
 3436 0c57 6B000000 		.4byte	0x6b
 3437 0c5b E2030000 		.4byte	.LLST27
 3438 0c5f 0D       		.uleb128 0xd
 3439 0c60 69647800 		.ascii	"idx\000"
ARM GAS  C:\Users\kopusov.FT\AppData\Local\Temp\ccT1QhKH.s 			page 87


 3440 0c64 01       		.byte	0x1
 3441 0c65 B002     		.2byte	0x2b0
 3442 0c67 77000000 		.4byte	0x77
 3443 0c6b 0C040000 		.4byte	.LLST28
 3444 0c6f 13       		.uleb128 0x13
 3445 0c70 0E040000 		.4byte	.LASF55
 3446 0c74 01       		.byte	0x1
 3447 0c75 B102     		.2byte	0x2b1
 3448 0c77 83000000 		.4byte	0x83
 3449 0c7b 5A040000 		.4byte	.LLST29
 3450 0c7f 20       		.uleb128 0x20
 3451 0c80 F3070000 		.4byte	.LASF53
 3452 0c84 01       		.byte	0x1
 3453 0c85 B302     		.2byte	0x2b3
 3454 0c87 6B000000 		.4byte	0x6b
 3455 0c8b 01       		.byte	0x1
 3456 0c8c 12       		.uleb128 0x12
 3457 0c8d 54000000 		.4byte	.LVL162
 3458 0c91 66110000 		.4byte	0x1166
 3459 0c95 B20C0000 		.4byte	0xcb2
 3460 0c99 10       		.uleb128 0x10
 3461 0c9a 01       		.uleb128 0x1
 3462 0c9b 53       		.byte	0x53
 3463 0c9c 03       		.uleb128 0x3
 3464 0c9d 0A       		.byte	0xa
 3465 0c9e 0040     		.2byte	0x4000
 3466 0ca0 10       		.uleb128 0x10
 3467 0ca1 01       		.uleb128 0x1
 3468 0ca2 52       		.byte	0x52
 3469 0ca3 03       		.uleb128 0x3
 3470 0ca4 0A       		.byte	0xa
 3471 0ca5 FF1F     		.2byte	0x1fff
 3472 0ca7 10       		.uleb128 0x10
 3473 0ca8 01       		.uleb128 0x1
 3474 0ca9 51       		.byte	0x51
 3475 0caa 01       		.uleb128 0x1
 3476 0cab 30       		.byte	0x30
 3477 0cac 10       		.uleb128 0x10
 3478 0cad 01       		.uleb128 0x1
 3479 0cae 50       		.byte	0x50
 3480 0caf 01       		.uleb128 0x1
 3481 0cb0 32       		.byte	0x32
 3482 0cb1 00       		.byte	0
 3483 0cb2 12       		.uleb128 0x12
 3484 0cb3 68000000 		.4byte	.LVL164
 3485 0cb7 6F100000 		.4byte	0x106f
 3486 0cbb CD0C0000 		.4byte	0xccd
 3487 0cbf 10       		.uleb128 0x10
 3488 0cc0 01       		.uleb128 0x1
 3489 0cc1 52       		.byte	0x52
 3490 0cc2 03       		.uleb128 0x3
 3491 0cc3 0A       		.byte	0xa
 3492 0cc4 106A     		.2byte	0x6a10
 3493 0cc6 10       		.uleb128 0x10
 3494 0cc7 01       		.uleb128 0x1
 3495 0cc8 51       		.byte	0x51
 3496 0cc9 02       		.uleb128 0x2
ARM GAS  C:\Users\kopusov.FT\AppData\Local\Temp\ccT1QhKH.s 			page 88


 3497 0cca 75       		.byte	0x75
 3498 0ccb 00       		.sleb128 0
 3499 0ccc 00       		.byte	0
 3500 0ccd 12       		.uleb128 0x12
 3501 0cce 76000000 		.4byte	.LVL165
 3502 0cd2 6F100000 		.4byte	0x106f
 3503 0cd6 E80C0000 		.4byte	0xce8
 3504 0cda 10       		.uleb128 0x10
 3505 0cdb 01       		.uleb128 0x1
 3506 0cdc 52       		.byte	0x52
 3507 0cdd 02       		.uleb128 0x2
 3508 0cde 75       		.byte	0x75
 3509 0cdf 00       		.sleb128 0
 3510 0ce0 10       		.uleb128 0x10
 3511 0ce1 01       		.uleb128 0x1
 3512 0ce2 51       		.byte	0x51
 3513 0ce3 03       		.uleb128 0x3
 3514 0ce4 0A       		.byte	0xa
 3515 0ce5 106A     		.2byte	0x6a10
 3516 0ce7 00       		.byte	0
 3517 0ce8 12       		.uleb128 0x12
 3518 0ce9 84000000 		.4byte	.LVL166
 3519 0ced 4B100000 		.4byte	0x104b
 3520 0cf1 070D0000 		.4byte	0xd07
 3521 0cf5 10       		.uleb128 0x10
 3522 0cf6 01       		.uleb128 0x1
 3523 0cf7 53       		.byte	0x53
 3524 0cf8 02       		.uleb128 0x2
 3525 0cf9 09       		.byte	0x9
 3526 0cfa 85       		.byte	0x85
 3527 0cfb 10       		.uleb128 0x10
 3528 0cfc 01       		.uleb128 0x1
 3529 0cfd 52       		.byte	0x52
 3530 0cfe 02       		.uleb128 0x2
 3531 0cff 09       		.byte	0x9
 3532 0d00 FF       		.byte	0xff
 3533 0d01 10       		.uleb128 0x10
 3534 0d02 01       		.uleb128 0x1
 3535 0d03 51       		.byte	0x51
 3536 0d04 01       		.uleb128 0x1
 3537 0d05 32       		.byte	0x32
 3538 0d06 00       		.byte	0
 3539 0d07 0F       		.uleb128 0xf
 3540 0d08 98000000 		.4byte	.LVL167
 3541 0d0c C7070000 		.4byte	0x7c7
 3542 0d10 10       		.uleb128 0x10
 3543 0d11 01       		.uleb128 0x1
 3544 0d12 50       		.byte	0x50
 3545 0d13 01       		.uleb128 0x1
 3546 0d14 32       		.byte	0x32
 3547 0d15 00       		.byte	0
 3548 0d16 00       		.byte	0
 3549 0d17 1D       		.uleb128 0x1d
 3550 0d18 5A070000 		.4byte	.LASF60
 3551 0d1c 01       		.byte	0x1
 3552 0d1d 1503     		.2byte	0x315
 3553 0d1f 520D0000 		.4byte	0xd52
ARM GAS  C:\Users\kopusov.FT\AppData\Local\Temp\ccT1QhKH.s 			page 89


 3554 0d23 00000000 		.4byte	.LFB13
 3555 0d27 24000000 		.4byte	.LFE13-.LFB13
 3556 0d2b 01       		.uleb128 0x1
 3557 0d2c 9C       		.byte	0x9c
 3558 0d2d 520D0000 		.4byte	0xd52
 3559 0d31 15       		.uleb128 0x15
 3560 0d32 05040000 		.4byte	.LASF61
 3561 0d36 01       		.byte	0x1
 3562 0d37 1503     		.2byte	0x315
 3563 0d39 6B000000 		.4byte	0x6b
 3564 0d3d 6D040000 		.4byte	.LLST30
 3565 0d41 13       		.uleb128 0x13
 3566 0d42 14070000 		.4byte	.LASF62
 3567 0d46 01       		.byte	0x1
 3568 0d47 1703     		.2byte	0x317
 3569 0d49 520D0000 		.4byte	0xd52
 3570 0d4d BC040000 		.4byte	.LLST31
 3571 0d51 00       		.byte	0
 3572 0d52 1E       		.uleb128 0x1e
 3573 0d53 04       		.byte	0x4
 3574 0d54 6B000000 		.4byte	0x6b
 3575 0d58 08       		.uleb128 0x8
 3576 0d59 77000000 		.4byte	0x77
 3577 0d5d 680D0000 		.4byte	0xd68
 3578 0d61 09       		.uleb128 0x9
 3579 0d62 D2000000 		.4byte	0xd2
 3580 0d66 05       		.byte	0x5
 3581 0d67 00       		.byte	0
 3582 0d68 1B       		.uleb128 0x1b
 3583 0d69 09010000 		.4byte	.LASF63
 3584 0d6d 01       		.byte	0x1
 3585 0d6e 22       		.byte	0x22
 3586 0d6f 580D0000 		.4byte	0xd58
 3587 0d73 05       		.uleb128 0x5
 3588 0d74 03       		.byte	0x3
 3589 0d75 00000000 		.4byte	MDIO_Interface_pageStartAddr
 3590 0d79 1B       		.uleb128 0x1b
 3591 0d7a 26010000 		.4byte	.LASF64
 3592 0d7e 01       		.byte	0x1
 3593 0d7f 27       		.byte	0x27
 3594 0d80 580D0000 		.4byte	0xd58
 3595 0d84 05       		.uleb128 0x5
 3596 0d85 03       		.byte	0x3
 3597 0d86 0C000000 		.4byte	MDIO_Interface_pageEndAddr
 3598 0d8a 1B       		.uleb128 0x1b
 3599 0d8b 3B030000 		.4byte	.LASF65
 3600 0d8f 01       		.byte	0x1
 3601 0d90 2D       		.byte	0x2d
 3602 0d91 6B000000 		.4byte	0x6b
 3603 0d95 05       		.uleb128 0x5
 3604 0d96 03       		.byte	0x3
 3605 0d97 01000000 		.4byte	MDIO_Interface_pageStartAddrDMA_Chan
 3606 0d9b 08       		.uleb128 0x8
 3607 0d9c 6B000000 		.4byte	0x6b
 3608 0da0 AB0D0000 		.4byte	0xdab
 3609 0da4 09       		.uleb128 0x9
 3610 0da5 D2000000 		.4byte	0xd2
ARM GAS  C:\Users\kopusov.FT\AppData\Local\Temp\ccT1QhKH.s 			page 90


 3611 0da9 00       		.byte	0
 3612 0daa 00       		.byte	0
 3613 0dab 1B       		.uleb128 0x1b
 3614 0dac 98020000 		.4byte	.LASF66
 3615 0db0 01       		.byte	0x1
 3616 0db1 2E       		.byte	0x2e
 3617 0db2 9B0D0000 		.4byte	0xd9b
 3618 0db6 05       		.uleb128 0x5
 3619 0db7 03       		.byte	0x3
 3620 0db8 00000000 		.4byte	MDIO_Interface_pageStartAddr_TD
 3621 0dbc 1B       		.uleb128 0x1b
 3622 0dbd CA080000 		.4byte	.LASF67
 3623 0dc1 01       		.byte	0x1
 3624 0dc2 31       		.byte	0x31
 3625 0dc3 6B000000 		.4byte	0x6b
 3626 0dc7 05       		.uleb128 0x5
 3627 0dc8 03       		.byte	0x3
 3628 0dc9 05000000 		.4byte	MDIO_Interface_pageEndAddrDMA_Chan
 3629 0dcd 1B       		.uleb128 0x1b
 3630 0dce C0040000 		.4byte	.LASF68
 3631 0dd2 01       		.byte	0x1
 3632 0dd3 32       		.byte	0x32
 3633 0dd4 9B0D0000 		.4byte	0xd9b
 3634 0dd8 05       		.uleb128 0x5
 3635 0dd9 03       		.byte	0x3
 3636 0dda 04000000 		.4byte	MDIO_Interface_pageEndAddr_TD
 3637 0dde 1B       		.uleb128 0x1b
 3638 0ddf 7B050000 		.4byte	.LASF69
 3639 0de3 01       		.byte	0x1
 3640 0de4 35       		.byte	0x35
 3641 0de5 6B000000 		.4byte	0x6b
 3642 0de9 05       		.uleb128 0x5
 3643 0dea 03       		.byte	0x3
 3644 0deb 13000000 		.4byte	MDIO_Interface_regAddrDMA_Chan
 3645 0def 08       		.uleb128 0x8
 3646 0df0 6B000000 		.4byte	0x6b
 3647 0df4 FF0D0000 		.4byte	0xdff
 3648 0df8 09       		.uleb128 0x9
 3649 0df9 D2000000 		.4byte	0xd2
 3650 0dfd 06       		.byte	0x6
 3651 0dfe 00       		.byte	0
 3652 0dff 1B       		.uleb128 0x1b
 3653 0e00 07000000 		.4byte	.LASF70
 3654 0e04 01       		.byte	0x1
 3655 0e05 36       		.byte	0x36
 3656 0e06 EF0D0000 		.4byte	0xdef
 3657 0e0a 05       		.uleb128 0x5
 3658 0e0b 03       		.byte	0x3
 3659 0e0c 0C000000 		.4byte	MDIO_Interface_regAddrDMA_TD
 3660 0e10 1B       		.uleb128 0x1b
 3661 0e11 D9020000 		.4byte	.LASF71
 3662 0e15 01       		.byte	0x1
 3663 0e16 39       		.byte	0x39
 3664 0e17 6B000000 		.4byte	0x6b
 3665 0e1b 05       		.uleb128 0x5
 3666 0e1c 03       		.byte	0x3
 3667 0e1d 09000000 		.4byte	MDIO_Interface_pageInfoDMA_Chan
ARM GAS  C:\Users\kopusov.FT\AppData\Local\Temp\ccT1QhKH.s 			page 91


 3668 0e21 1B       		.uleb128 0x1b
 3669 0e22 F5010000 		.4byte	.LASF72
 3670 0e26 01       		.byte	0x1
 3671 0e27 3A       		.byte	0x3a
 3672 0e28 9B0D0000 		.4byte	0xd9b
 3673 0e2c 05       		.uleb128 0x5
 3674 0e2d 03       		.byte	0x3
 3675 0e2e 08000000 		.4byte	MDIO_Interface_pageInfoDMA_TD
 3676 0e32 1B       		.uleb128 0x1b
 3677 0e33 13020000 		.4byte	.LASF73
 3678 0e37 01       		.byte	0x1
 3679 0e38 3D       		.byte	0x3d
 3680 0e39 6B000000 		.4byte	0x6b
 3681 0e3d 05       		.uleb128 0x5
 3682 0e3e 03       		.byte	0x3
 3683 0e3f 15000000 		.4byte	MDIO_Interface_rdDMA_Chan
 3684 0e43 1B       		.uleb128 0x1b
 3685 0e44 1C030000 		.4byte	.LASF74
 3686 0e48 01       		.byte	0x1
 3687 0e49 3E       		.byte	0x3e
 3688 0e4a 9B0D0000 		.4byte	0xd9b
 3689 0e4e 05       		.uleb128 0x5
 3690 0e4f 03       		.byte	0x3
 3691 0e50 14000000 		.4byte	MDIO_Interface_rdDMA_TD
 3692 0e54 1B       		.uleb128 0x1b
 3693 0e55 F1090000 		.4byte	.LASF75
 3694 0e59 01       		.byte	0x1
 3695 0e5a 41       		.byte	0x41
 3696 0e5b 6B000000 		.4byte	0x6b
 3697 0e5f 05       		.uleb128 0x5
 3698 0e60 03       		.byte	0x3
 3699 0e61 19000000 		.4byte	MDIO_Interface_wrDMA_Chan
 3700 0e65 1B       		.uleb128 0x1b
 3701 0e66 63050000 		.4byte	.LASF76
 3702 0e6a 01       		.byte	0x1
 3703 0e6b 42       		.byte	0x42
 3704 0e6c 9B0D0000 		.4byte	0xd9b
 3705 0e70 05       		.uleb128 0x5
 3706 0e71 03       		.byte	0x3
 3707 0e72 18000000 		.4byte	MDIO_Interface_wrDMA_TD
 3708 0e76 1B       		.uleb128 0x1b
 3709 0e77 1B070000 		.4byte	.LASF77
 3710 0e7b 01       		.byte	0x1
 3711 0e7c 45       		.byte	0x45
 3712 0e7d 6B000000 		.4byte	0x6b
 3713 0e81 05       		.uleb128 0x5
 3714 0e82 03       		.byte	0x3
 3715 0e83 1D000000 		.4byte	MDIO_Interface_cfgDMA1_Chan
 3716 0e87 1B       		.uleb128 0x1b
 3717 0e88 41050000 		.4byte	.LASF78
 3718 0e8c 01       		.byte	0x1
 3719 0e8d 46       		.byte	0x46
 3720 0e8e 9B0D0000 		.4byte	0xd9b
 3721 0e92 05       		.uleb128 0x5
 3722 0e93 03       		.byte	0x3
 3723 0e94 1C000000 		.4byte	MDIO_Interface_cfgDMA1_TD
 3724 0e98 1B       		.uleb128 0x1b
ARM GAS  C:\Users\kopusov.FT\AppData\Local\Temp\ccT1QhKH.s 			page 92


 3725 0e99 ED080000 		.4byte	.LASF79
 3726 0e9d 01       		.byte	0x1
 3727 0e9e 47       		.byte	0x47
 3728 0e9f 6B000000 		.4byte	0x6b
 3729 0ea3 05       		.uleb128 0x5
 3730 0ea4 03       		.byte	0x3
 3731 0ea5 22000000 		.4byte	MDIO_Interface_cfgDMA2_Chan
 3732 0ea9 08       		.uleb128 0x8
 3733 0eaa 6B000000 		.4byte	0x6b
 3734 0eae B90E0000 		.4byte	0xeb9
 3735 0eb2 09       		.uleb128 0x9
 3736 0eb3 D2000000 		.4byte	0xd2
 3737 0eb7 01       		.byte	0x1
 3738 0eb8 00       		.byte	0
 3739 0eb9 1B       		.uleb128 0x1b
 3740 0eba 48090000 		.4byte	.LASF80
 3741 0ebe 01       		.byte	0x1
 3742 0ebf 48       		.byte	0x48
 3743 0ec0 A90E0000 		.4byte	0xea9
 3744 0ec4 05       		.uleb128 0x5
 3745 0ec5 03       		.byte	0x3
 3746 0ec6 20000000 		.4byte	MDIO_Interface_cfgDMA2_TD
 3747 0eca 1B       		.uleb128 0x1b
 3748 0ecb EA050000 		.4byte	.LASF81
 3749 0ecf 01       		.byte	0x1
 3750 0ed0 4B       		.byte	0x4b
 3751 0ed1 6B000000 		.4byte	0x6b
 3752 0ed5 05       		.uleb128 0x5
 3753 0ed6 03       		.byte	0x3
 3754 0ed7 25000000 		.4byte	MDIO_Interface_fwDMA1_Chan
 3755 0edb 1B       		.uleb128 0x1b
 3756 0edc 24000000 		.4byte	.LASF82
 3757 0ee0 01       		.byte	0x1
 3758 0ee1 4C       		.byte	0x4c
 3759 0ee2 9B0D0000 		.4byte	0xd9b
 3760 0ee6 05       		.uleb128 0x5
 3761 0ee7 03       		.byte	0x3
 3762 0ee8 24000000 		.4byte	MDIO_Interface_fwDMA1_TD
 3763 0eec 1B       		.uleb128 0x1b
 3764 0eed 9F060000 		.4byte	.LASF83
 3765 0ef1 01       		.byte	0x1
 3766 0ef2 4D       		.byte	0x4d
 3767 0ef3 6B000000 		.4byte	0x6b
 3768 0ef7 05       		.uleb128 0x5
 3769 0ef8 03       		.byte	0x3
 3770 0ef9 29000000 		.4byte	MDIO_Interface_fwDMA2_Chan
 3771 0efd 1B       		.uleb128 0x1b
 3772 0efe 68090000 		.4byte	.LASF84
 3773 0f02 01       		.byte	0x1
 3774 0f03 4E       		.byte	0x4e
 3775 0f04 9B0D0000 		.4byte	0xd9b
 3776 0f08 05       		.uleb128 0x5
 3777 0f09 03       		.byte	0x3
 3778 0f0a 28000000 		.4byte	MDIO_Interface_fwDMA2_TD
 3779 0f0e 08       		.uleb128 0x8
 3780 0f0f 6B000000 		.4byte	0x6b
 3781 0f13 1E0F0000 		.4byte	0xf1e
ARM GAS  C:\Users\kopusov.FT\AppData\Local\Temp\ccT1QhKH.s 			page 93


 3782 0f17 09       		.uleb128 0x9
 3783 0f18 D2000000 		.4byte	0xd2
 3784 0f1c 09       		.byte	0x9
 3785 0f1d 00       		.byte	0
 3786 0f1e 1B       		.uleb128 0x1b
 3787 0f1f 8D000000 		.4byte	.LASF85
 3788 0f23 01       		.byte	0x1
 3789 0f24 51       		.byte	0x51
 3790 0f25 0E0F0000 		.4byte	0xf0e
 3791 0f29 05       		.uleb128 0x5
 3792 0f2a 03       		.byte	0x3
 3793 0f2b 2C000000 		.4byte	MDIO_Interface_dmaChannelList
 3794 0f2f 08       		.uleb128 0x8
 3795 0f30 83000000 		.4byte	0x83
 3796 0f34 3F0F0000 		.4byte	0xf3f
 3797 0f38 09       		.uleb128 0x9
 3798 0f39 D2000000 		.4byte	0xd2
 3799 0f3d 05       		.byte	0x5
 3800 0f3e 00       		.byte	0
 3801 0f3f 1B       		.uleb128 0x1b
 3802 0f40 7E010000 		.4byte	.LASF86
 3803 0f44 01       		.byte	0x1
 3804 0f45 54       		.byte	0x54
 3805 0f46 2F0F0000 		.4byte	0xf2f
 3806 0f4a 05       		.uleb128 0x5
 3807 0f4b 03       		.byte	0x3
 3808 0f4c 68000000 		.4byte	MDIO_Interface_pageAddrList
 3809 0f50 08       		.uleb128 0x8
 3810 0f51 83000000 		.4byte	0x83
 3811 0f55 600F0000 		.4byte	0xf60
 3812 0f59 09       		.uleb128 0x9
 3813 0f5a D2000000 		.4byte	0xd2
 3814 0f5e 0B       		.byte	0xb
 3815 0f5f 00       		.byte	0
 3816 0f60 1B       		.uleb128 0x1b
 3817 0f61 AF070000 		.4byte	.LASF87
 3818 0f65 01       		.byte	0x1
 3819 0f66 55       		.byte	0x55
 3820 0f67 500F0000 		.4byte	0xf50
 3821 0f6b 05       		.uleb128 0x5
 3822 0f6c 03       		.byte	0x3
 3823 0f6d 38000000 		.4byte	MDIO_Interface_pageInfoList
 3824 0f71 1B       		.uleb128 0x1b
 3825 0f72 27050000 		.4byte	.LASF88
 3826 0f76 01       		.byte	0x1
 3827 0f77 60       		.byte	0x60
 3828 0f78 6B000000 		.4byte	0x6b
 3829 0f7c 05       		.uleb128 0x5
 3830 0f7d 03       		.byte	0x3
 3831 0f7e 84000000 		.4byte	MDIO_Interface_phyAddress
 3832 0f82 1B       		.uleb128 0x1b
 3833 0f83 B8020000 		.4byte	.LASF89
 3834 0f87 01       		.byte	0x1
 3835 0f88 61       		.byte	0x61
 3836 0f89 6B000000 		.4byte	0x6b
 3837 0f8d 05       		.uleb128 0x5
 3838 0f8e 03       		.byte	0x3
ARM GAS  C:\Users\kopusov.FT\AppData\Local\Temp\ccT1QhKH.s 			page 94


 3839 0f8f 85000000 		.4byte	MDIO_Interface_devAddress
 3840 0f93 21       		.uleb128 0x21
 3841 0f94 58000000 		.4byte	.LASF90
 3842 0f98 01       		.byte	0x1
 3843 0f99 5F       		.byte	0x5f
 3844 0f9a 6B000000 		.4byte	0x6b
 3845 0f9e 05       		.uleb128 0x5
 3846 0f9f 03       		.byte	0x3
 3847 0fa0 00000000 		.4byte	MDIO_Interface_initVar
 3848 0fa4 08       		.uleb128 0x8
 3849 0fa5 F00A0000 		.4byte	0xaf0
 3850 0fa9 B40F0000 		.4byte	0xfb4
 3851 0fad 09       		.uleb128 0x9
 3852 0fae D2000000 		.4byte	0xd2
 3853 0fb2 0B       		.byte	0xb
 3854 0fb3 00       		.byte	0
 3855 0fb4 22       		.uleb128 0x22
 3856 0fb5 D9000000 		.4byte	.LASF91
 3857 0fb9 04       		.byte	0x4
 3858 0fba 3D       		.byte	0x3d
 3859 0fbb BF0F0000 		.4byte	0xfbf
 3860 0fbf 1F       		.uleb128 0x1f
 3861 0fc0 A40F0000 		.4byte	0xfa4
 3862 0fc4 23       		.uleb128 0x23
 3863 0fc5 81090000 		.4byte	.LASF92
 3864 0fc9 03       		.byte	0x3
 3865 0fca 2F       		.byte	0x2f
 3866 0fcb A4000000 		.4byte	0xa4
 3867 0fcf DE0F0000 		.4byte	0xfde
 3868 0fd3 24       		.uleb128 0x24
 3869 0fd4 6B000000 		.4byte	0x6b
 3870 0fd8 24       		.uleb128 0x24
 3871 0fd9 6B000000 		.4byte	0x6b
 3872 0fdd 00       		.byte	0
 3873 0fde 23       		.uleb128 0x23
 3874 0fdf 7F000000 		.4byte	.LASF93
 3875 0fe3 03       		.byte	0x3
 3876 0fe4 29       		.byte	0x29
 3877 0fe5 A4000000 		.4byte	0xa4
 3878 0fe9 F80F0000 		.4byte	0xff8
 3879 0fed 24       		.uleb128 0x24
 3880 0fee 6B000000 		.4byte	0x6b
 3881 0ff2 24       		.uleb128 0x24
 3882 0ff3 6B000000 		.4byte	0x6b
 3883 0ff7 00       		.byte	0
 3884 0ff8 23       		.uleb128 0x23
 3885 0ff9 6E020000 		.4byte	.LASF94
 3886 0ffd 05       		.byte	0x5
 3887 0ffe 1E       		.byte	0x1e
 3888 0fff 6B000000 		.4byte	0x6b
 3889 1003 1C100000 		.4byte	0x101c
 3890 1007 24       		.uleb128 0x24
 3891 1008 6B000000 		.4byte	0x6b
 3892 100c 24       		.uleb128 0x24
 3893 100d 6B000000 		.4byte	0x6b
 3894 1011 24       		.uleb128 0x24
 3895 1012 77000000 		.4byte	0x77
ARM GAS  C:\Users\kopusov.FT\AppData\Local\Temp\ccT1QhKH.s 			page 95


 3896 1016 24       		.uleb128 0x24
 3897 1017 77000000 		.4byte	0x77
 3898 101b 00       		.byte	0
 3899 101c 23       		.uleb128 0x23
 3900 101d CB070000 		.4byte	.LASF95
 3901 1021 06       		.byte	0x6
 3902 1022 1E       		.byte	0x1e
 3903 1023 6B000000 		.4byte	0x6b
 3904 1027 40100000 		.4byte	0x1040
 3905 102b 24       		.uleb128 0x24
 3906 102c 6B000000 		.4byte	0x6b
 3907 1030 24       		.uleb128 0x24
 3908 1031 6B000000 		.4byte	0x6b
 3909 1035 24       		.uleb128 0x24
 3910 1036 77000000 		.4byte	0x77
 3911 103a 24       		.uleb128 0x24
 3912 103b 77000000 		.4byte	0x77
 3913 103f 00       		.byte	0
 3914 1040 25       		.uleb128 0x25
 3915 1041 6F000000 		.4byte	.LASF108
 3916 1045 03       		.byte	0x3
 3917 1046 38       		.byte	0x38
 3918 1047 6B000000 		.4byte	0x6b
 3919 104b 23       		.uleb128 0x23
 3920 104c 39060000 		.4byte	.LASF96
 3921 1050 03       		.byte	0x3
 3922 1051 3B       		.byte	0x3b
 3923 1052 A4000000 		.4byte	0xa4
 3924 1056 6F100000 		.4byte	0x106f
 3925 105a 24       		.uleb128 0x24
 3926 105b 6B000000 		.4byte	0x6b
 3927 105f 24       		.uleb128 0x24
 3928 1060 77000000 		.4byte	0x77
 3929 1064 24       		.uleb128 0x24
 3930 1065 6B000000 		.4byte	0x6b
 3931 1069 24       		.uleb128 0x24
 3932 106a 6B000000 		.4byte	0x6b
 3933 106e 00       		.byte	0
 3934 106f 23       		.uleb128 0x23
 3935 1070 FC040000 		.4byte	.LASF97
 3936 1074 03       		.byte	0x3
 3937 1075 3F       		.byte	0x3f
 3938 1076 A4000000 		.4byte	0xa4
 3939 107a 8E100000 		.4byte	0x108e
 3940 107e 24       		.uleb128 0x24
 3941 107f 6B000000 		.4byte	0x6b
 3942 1083 24       		.uleb128 0x24
 3943 1084 77000000 		.4byte	0x77
 3944 1088 24       		.uleb128 0x24
 3945 1089 77000000 		.4byte	0x77
 3946 108d 00       		.byte	0
 3947 108e 23       		.uleb128 0x23
 3948 108f 7A060000 		.4byte	.LASF98
 3949 1093 07       		.byte	0x7
 3950 1094 1E       		.byte	0x1e
 3951 1095 6B000000 		.4byte	0x6b
 3952 1099 B2100000 		.4byte	0x10b2
ARM GAS  C:\Users\kopusov.FT\AppData\Local\Temp\ccT1QhKH.s 			page 96


 3953 109d 24       		.uleb128 0x24
 3954 109e 6B000000 		.4byte	0x6b
 3955 10a2 24       		.uleb128 0x24
 3956 10a3 6B000000 		.4byte	0x6b
 3957 10a7 24       		.uleb128 0x24
 3958 10a8 77000000 		.4byte	0x77
 3959 10ac 24       		.uleb128 0x24
 3960 10ad 77000000 		.4byte	0x77
 3961 10b1 00       		.byte	0
 3962 10b2 23       		.uleb128 0x23
 3963 10b3 41010000 		.4byte	.LASF99
 3964 10b7 08       		.byte	0x8
 3965 10b8 1E       		.byte	0x1e
 3966 10b9 6B000000 		.4byte	0x6b
 3967 10bd D6100000 		.4byte	0x10d6
 3968 10c1 24       		.uleb128 0x24
 3969 10c2 6B000000 		.4byte	0x6b
 3970 10c6 24       		.uleb128 0x24
 3971 10c7 6B000000 		.4byte	0x6b
 3972 10cb 24       		.uleb128 0x24
 3973 10cc 77000000 		.4byte	0x77
 3974 10d0 24       		.uleb128 0x24
 3975 10d1 77000000 		.4byte	0x77
 3976 10d5 00       		.byte	0
 3977 10d6 23       		.uleb128 0x23
 3978 10d7 F9020000 		.4byte	.LASF100
 3979 10db 09       		.byte	0x9
 3980 10dc 1E       		.byte	0x1e
 3981 10dd 6B000000 		.4byte	0x6b
 3982 10e1 FA100000 		.4byte	0x10fa
 3983 10e5 24       		.uleb128 0x24
 3984 10e6 6B000000 		.4byte	0x6b
 3985 10ea 24       		.uleb128 0x24
 3986 10eb 6B000000 		.4byte	0x6b
 3987 10ef 24       		.uleb128 0x24
 3988 10f0 77000000 		.4byte	0x77
 3989 10f4 24       		.uleb128 0x24
 3990 10f5 77000000 		.4byte	0x77
 3991 10f9 00       		.byte	0
 3992 10fa 23       		.uleb128 0x23
 3993 10fb 0D080000 		.4byte	.LASF101
 3994 10ff 0A       		.byte	0xa
 3995 1100 1E       		.byte	0x1e
 3996 1101 6B000000 		.4byte	0x6b
 3997 1105 1E110000 		.4byte	0x111e
 3998 1109 24       		.uleb128 0x24
 3999 110a 6B000000 		.4byte	0x6b
 4000 110e 24       		.uleb128 0x24
 4001 110f 6B000000 		.4byte	0x6b
 4002 1113 24       		.uleb128 0x24
 4003 1114 77000000 		.4byte	0x77
 4004 1118 24       		.uleb128 0x24
 4005 1119 77000000 		.4byte	0x77
 4006 111d 00       		.byte	0
 4007 111e 23       		.uleb128 0x23
 4008 111f 16040000 		.4byte	.LASF102
 4009 1123 0B       		.byte	0xb
ARM GAS  C:\Users\kopusov.FT\AppData\Local\Temp\ccT1QhKH.s 			page 97


 4010 1124 1E       		.byte	0x1e
 4011 1125 6B000000 		.4byte	0x6b
 4012 1129 42110000 		.4byte	0x1142
 4013 112d 24       		.uleb128 0x24
 4014 112e 6B000000 		.4byte	0x6b
 4015 1132 24       		.uleb128 0x24
 4016 1133 6B000000 		.4byte	0x6b
 4017 1137 24       		.uleb128 0x24
 4018 1138 77000000 		.4byte	0x77
 4019 113c 24       		.uleb128 0x24
 4020 113d 77000000 		.4byte	0x77
 4021 1141 00       		.byte	0
 4022 1142 23       		.uleb128 0x23
 4023 1143 D0010000 		.4byte	.LASF103
 4024 1147 0C       		.byte	0xc
 4025 1148 1E       		.byte	0x1e
 4026 1149 6B000000 		.4byte	0x6b
 4027 114d 66110000 		.4byte	0x1166
 4028 1151 24       		.uleb128 0x24
 4029 1152 6B000000 		.4byte	0x6b
 4030 1156 24       		.uleb128 0x24
 4031 1157 6B000000 		.4byte	0x6b
 4032 115b 24       		.uleb128 0x24
 4033 115c 77000000 		.4byte	0x77
 4034 1160 24       		.uleb128 0x24
 4035 1161 77000000 		.4byte	0x77
 4036 1165 00       		.byte	0
 4037 1166 23       		.uleb128 0x23
 4038 1167 3B040000 		.4byte	.LASF104
 4039 116b 0D       		.byte	0xd
 4040 116c 1E       		.byte	0x1e
 4041 116d 6B000000 		.4byte	0x6b
 4042 1171 8A110000 		.4byte	0x118a
 4043 1175 24       		.uleb128 0x24
 4044 1176 6B000000 		.4byte	0x6b
 4045 117a 24       		.uleb128 0x24
 4046 117b 6B000000 		.4byte	0x6b
 4047 117f 24       		.uleb128 0x24
 4048 1180 77000000 		.4byte	0x77
 4049 1184 24       		.uleb128 0x24
 4050 1185 77000000 		.4byte	0x77
 4051 1189 00       		.byte	0
 4052 118a 23       		.uleb128 0x23
 4053 118b AC010000 		.4byte	.LASF105
 4054 118f 0E       		.byte	0xe
 4055 1190 1E       		.byte	0x1e
 4056 1191 6B000000 		.4byte	0x6b
 4057 1195 AE110000 		.4byte	0x11ae
 4058 1199 24       		.uleb128 0x24
 4059 119a 6B000000 		.4byte	0x6b
 4060 119e 24       		.uleb128 0x24
 4061 119f 6B000000 		.4byte	0x6b
 4062 11a3 24       		.uleb128 0x24
 4063 11a4 77000000 		.4byte	0x77
 4064 11a8 24       		.uleb128 0x24
 4065 11a9 77000000 		.4byte	0x77
 4066 11ad 00       		.byte	0
ARM GAS  C:\Users\kopusov.FT\AppData\Local\Temp\ccT1QhKH.s 			page 98


 4067 11ae 23       		.uleb128 0x23
 4068 11af 49000000 		.4byte	.LASF106
 4069 11b3 03       		.byte	0x3
 4070 11b4 2A       		.byte	0x2a
 4071 11b5 A4000000 		.4byte	0xa4
 4072 11b9 C3110000 		.4byte	0x11c3
 4073 11bd 24       		.uleb128 0x24
 4074 11be 6B000000 		.4byte	0x6b
 4075 11c2 00       		.byte	0
 4076 11c3 23       		.uleb128 0x23
 4077 11c4 0A060000 		.4byte	.LASF107
 4078 11c8 03       		.byte	0x3
 4079 11c9 30       		.byte	0x30
 4080 11ca A4000000 		.4byte	0xa4
 4081 11ce DD110000 		.4byte	0x11dd
 4082 11d2 24       		.uleb128 0x24
 4083 11d3 6B000000 		.4byte	0x6b
 4084 11d7 24       		.uleb128 0x24
 4085 11d8 6B000000 		.4byte	0x6b
 4086 11dc 00       		.byte	0
 4087 11dd 26       		.uleb128 0x26
 4088 11de 5D020000 		.4byte	.LASF115
 4089 11e2 0F       		.byte	0xf
 4090 11e3 77       		.byte	0x77
 4091 11e4 EE110000 		.4byte	0x11ee
 4092 11e8 24       		.uleb128 0x24
 4093 11e9 77000000 		.4byte	0x77
 4094 11ed 00       		.byte	0
 4095 11ee 25       		.uleb128 0x25
 4096 11ef A1040000 		.4byte	.LASF109
 4097 11f3 0F       		.byte	0xf
 4098 11f4 7D       		.byte	0x7d
 4099 11f5 6B000000 		.4byte	0x6b
 4100 11f9 27       		.uleb128 0x27
 4101 11fa A0050000 		.4byte	.LASF116
 4102 11fe 0F       		.byte	0xf
 4103 11ff 7E       		.byte	0x7e
 4104 1200 24       		.uleb128 0x24
 4105 1201 6B000000 		.4byte	0x6b
 4106 1205 00       		.byte	0
 4107 1206 00       		.byte	0
 4108              		.section	.debug_abbrev,"",%progbits
 4109              	.Ldebug_abbrev0:
 4110 0000 01       		.uleb128 0x1
 4111 0001 11       		.uleb128 0x11
 4112 0002 01       		.byte	0x1
 4113 0003 25       		.uleb128 0x25
 4114 0004 0E       		.uleb128 0xe
 4115 0005 13       		.uleb128 0x13
 4116 0006 0B       		.uleb128 0xb
 4117 0007 03       		.uleb128 0x3
 4118 0008 0E       		.uleb128 0xe
 4119 0009 1B       		.uleb128 0x1b
 4120 000a 0E       		.uleb128 0xe
 4121 000b 55       		.uleb128 0x55
 4122 000c 17       		.uleb128 0x17
 4123 000d 11       		.uleb128 0x11
ARM GAS  C:\Users\kopusov.FT\AppData\Local\Temp\ccT1QhKH.s 			page 99


 4124 000e 01       		.uleb128 0x1
 4125 000f 10       		.uleb128 0x10
 4126 0010 17       		.uleb128 0x17
 4127 0011 00       		.byte	0
 4128 0012 00       		.byte	0
 4129 0013 02       		.uleb128 0x2
 4130 0014 24       		.uleb128 0x24
 4131 0015 00       		.byte	0
 4132 0016 0B       		.uleb128 0xb
 4133 0017 0B       		.uleb128 0xb
 4134 0018 3E       		.uleb128 0x3e
 4135 0019 0B       		.uleb128 0xb
 4136 001a 03       		.uleb128 0x3
 4137 001b 0E       		.uleb128 0xe
 4138 001c 00       		.byte	0
 4139 001d 00       		.byte	0
 4140 001e 03       		.uleb128 0x3
 4141 001f 24       		.uleb128 0x24
 4142 0020 00       		.byte	0
 4143 0021 0B       		.uleb128 0xb
 4144 0022 0B       		.uleb128 0xb
 4145 0023 3E       		.uleb128 0x3e
 4146 0024 0B       		.uleb128 0xb
 4147 0025 03       		.uleb128 0x3
 4148 0026 08       		.uleb128 0x8
 4149 0027 00       		.byte	0
 4150 0028 00       		.byte	0
 4151 0029 04       		.uleb128 0x4
 4152 002a 16       		.uleb128 0x16
 4153 002b 00       		.byte	0
 4154 002c 03       		.uleb128 0x3
 4155 002d 0E       		.uleb128 0xe
 4156 002e 3A       		.uleb128 0x3a
 4157 002f 0B       		.uleb128 0xb
 4158 0030 3B       		.uleb128 0x3b
 4159 0031 05       		.uleb128 0x5
 4160 0032 49       		.uleb128 0x49
 4161 0033 13       		.uleb128 0x13
 4162 0034 00       		.byte	0
 4163 0035 00       		.byte	0
 4164 0036 05       		.uleb128 0x5
 4165 0037 35       		.uleb128 0x35
 4166 0038 00       		.byte	0
 4167 0039 49       		.uleb128 0x49
 4168 003a 13       		.uleb128 0x13
 4169 003b 00       		.byte	0
 4170 003c 00       		.byte	0
 4171 003d 06       		.uleb128 0x6
 4172 003e 13       		.uleb128 0x13
 4173 003f 01       		.byte	0x1
 4174 0040 03       		.uleb128 0x3
 4175 0041 0E       		.uleb128 0xe
 4176 0042 0B       		.uleb128 0xb
 4177 0043 0B       		.uleb128 0xb
 4178 0044 3A       		.uleb128 0x3a
 4179 0045 0B       		.uleb128 0xb
 4180 0046 3B       		.uleb128 0x3b
ARM GAS  C:\Users\kopusov.FT\AppData\Local\Temp\ccT1QhKH.s 			page 100


 4181 0047 0B       		.uleb128 0xb
 4182 0048 01       		.uleb128 0x1
 4183 0049 13       		.uleb128 0x13
 4184 004a 00       		.byte	0
 4185 004b 00       		.byte	0
 4186 004c 07       		.uleb128 0x7
 4187 004d 0D       		.uleb128 0xd
 4188 004e 00       		.byte	0
 4189 004f 03       		.uleb128 0x3
 4190 0050 0E       		.uleb128 0xe
 4191 0051 3A       		.uleb128 0x3a
 4192 0052 0B       		.uleb128 0xb
 4193 0053 3B       		.uleb128 0x3b
 4194 0054 0B       		.uleb128 0xb
 4195 0055 49       		.uleb128 0x49
 4196 0056 13       		.uleb128 0x13
 4197 0057 38       		.uleb128 0x38
 4198 0058 0B       		.uleb128 0xb
 4199 0059 00       		.byte	0
 4200 005a 00       		.byte	0
 4201 005b 08       		.uleb128 0x8
 4202 005c 01       		.uleb128 0x1
 4203 005d 01       		.byte	0x1
 4204 005e 49       		.uleb128 0x49
 4205 005f 13       		.uleb128 0x13
 4206 0060 01       		.uleb128 0x1
 4207 0061 13       		.uleb128 0x13
 4208 0062 00       		.byte	0
 4209 0063 00       		.byte	0
 4210 0064 09       		.uleb128 0x9
 4211 0065 21       		.uleb128 0x21
 4212 0066 00       		.byte	0
 4213 0067 49       		.uleb128 0x49
 4214 0068 13       		.uleb128 0x13
 4215 0069 2F       		.uleb128 0x2f
 4216 006a 0B       		.uleb128 0xb
 4217 006b 00       		.byte	0
 4218 006c 00       		.byte	0
 4219 006d 0A       		.uleb128 0xa
 4220 006e 16       		.uleb128 0x16
 4221 006f 00       		.byte	0
 4222 0070 03       		.uleb128 0x3
 4223 0071 0E       		.uleb128 0xe
 4224 0072 3A       		.uleb128 0x3a
 4225 0073 0B       		.uleb128 0xb
 4226 0074 3B       		.uleb128 0x3b
 4227 0075 0B       		.uleb128 0xb
 4228 0076 49       		.uleb128 0x49
 4229 0077 13       		.uleb128 0x13
 4230 0078 00       		.byte	0
 4231 0079 00       		.byte	0
 4232 007a 0B       		.uleb128 0xb
 4233 007b 0D       		.uleb128 0xd
 4234 007c 00       		.byte	0
 4235 007d 03       		.uleb128 0x3
 4236 007e 08       		.uleb128 0x8
 4237 007f 3A       		.uleb128 0x3a
ARM GAS  C:\Users\kopusov.FT\AppData\Local\Temp\ccT1QhKH.s 			page 101


 4238 0080 0B       		.uleb128 0xb
 4239 0081 3B       		.uleb128 0x3b
 4240 0082 0B       		.uleb128 0xb
 4241 0083 49       		.uleb128 0x49
 4242 0084 13       		.uleb128 0x13
 4243 0085 38       		.uleb128 0x38
 4244 0086 0B       		.uleb128 0xb
 4245 0087 00       		.byte	0
 4246 0088 00       		.byte	0
 4247 0089 0C       		.uleb128 0xc
 4248 008a 2E       		.uleb128 0x2e
 4249 008b 01       		.byte	0x1
 4250 008c 03       		.uleb128 0x3
 4251 008d 0E       		.uleb128 0xe
 4252 008e 3A       		.uleb128 0x3a
 4253 008f 0B       		.uleb128 0xb
 4254 0090 3B       		.uleb128 0x3b
 4255 0091 05       		.uleb128 0x5
 4256 0092 27       		.uleb128 0x27
 4257 0093 19       		.uleb128 0x19
 4258 0094 11       		.uleb128 0x11
 4259 0095 01       		.uleb128 0x1
 4260 0096 12       		.uleb128 0x12
 4261 0097 06       		.uleb128 0x6
 4262 0098 40       		.uleb128 0x40
 4263 0099 18       		.uleb128 0x18
 4264 009a 9742     		.uleb128 0x2117
 4265 009c 19       		.uleb128 0x19
 4266 009d 01       		.uleb128 0x1
 4267 009e 13       		.uleb128 0x13
 4268 009f 00       		.byte	0
 4269 00a0 00       		.byte	0
 4270 00a1 0D       		.uleb128 0xd
 4271 00a2 34       		.uleb128 0x34
 4272 00a3 00       		.byte	0
 4273 00a4 03       		.uleb128 0x3
 4274 00a5 08       		.uleb128 0x8
 4275 00a6 3A       		.uleb128 0x3a
 4276 00a7 0B       		.uleb128 0xb
 4277 00a8 3B       		.uleb128 0x3b
 4278 00a9 05       		.uleb128 0x5
 4279 00aa 49       		.uleb128 0x49
 4280 00ab 13       		.uleb128 0x13
 4281 00ac 02       		.uleb128 0x2
 4282 00ad 17       		.uleb128 0x17
 4283 00ae 00       		.byte	0
 4284 00af 00       		.byte	0
 4285 00b0 0E       		.uleb128 0xe
 4286 00b1 898201   		.uleb128 0x4109
 4287 00b4 00       		.byte	0
 4288 00b5 11       		.uleb128 0x11
 4289 00b6 01       		.uleb128 0x1
 4290 00b7 31       		.uleb128 0x31
 4291 00b8 13       		.uleb128 0x13
 4292 00b9 00       		.byte	0
 4293 00ba 00       		.byte	0
 4294 00bb 0F       		.uleb128 0xf
ARM GAS  C:\Users\kopusov.FT\AppData\Local\Temp\ccT1QhKH.s 			page 102


 4295 00bc 898201   		.uleb128 0x4109
 4296 00bf 01       		.byte	0x1
 4297 00c0 11       		.uleb128 0x11
 4298 00c1 01       		.uleb128 0x1
 4299 00c2 31       		.uleb128 0x31
 4300 00c3 13       		.uleb128 0x13
 4301 00c4 00       		.byte	0
 4302 00c5 00       		.byte	0
 4303 00c6 10       		.uleb128 0x10
 4304 00c7 8A8201   		.uleb128 0x410a
 4305 00ca 00       		.byte	0
 4306 00cb 02       		.uleb128 0x2
 4307 00cc 18       		.uleb128 0x18
 4308 00cd 9142     		.uleb128 0x2111
 4309 00cf 18       		.uleb128 0x18
 4310 00d0 00       		.byte	0
 4311 00d1 00       		.byte	0
 4312 00d2 11       		.uleb128 0x11
 4313 00d3 34       		.uleb128 0x34
 4314 00d4 00       		.byte	0
 4315 00d5 03       		.uleb128 0x3
 4316 00d6 0E       		.uleb128 0xe
 4317 00d7 3A       		.uleb128 0x3a
 4318 00d8 0B       		.uleb128 0xb
 4319 00d9 3B       		.uleb128 0x3b
 4320 00da 05       		.uleb128 0x5
 4321 00db 49       		.uleb128 0x49
 4322 00dc 13       		.uleb128 0x13
 4323 00dd 02       		.uleb128 0x2
 4324 00de 18       		.uleb128 0x18
 4325 00df 00       		.byte	0
 4326 00e0 00       		.byte	0
 4327 00e1 12       		.uleb128 0x12
 4328 00e2 898201   		.uleb128 0x4109
 4329 00e5 01       		.byte	0x1
 4330 00e6 11       		.uleb128 0x11
 4331 00e7 01       		.uleb128 0x1
 4332 00e8 31       		.uleb128 0x31
 4333 00e9 13       		.uleb128 0x13
 4334 00ea 01       		.uleb128 0x1
 4335 00eb 13       		.uleb128 0x13
 4336 00ec 00       		.byte	0
 4337 00ed 00       		.byte	0
 4338 00ee 13       		.uleb128 0x13
 4339 00ef 34       		.uleb128 0x34
 4340 00f0 00       		.byte	0
 4341 00f1 03       		.uleb128 0x3
 4342 00f2 0E       		.uleb128 0xe
 4343 00f3 3A       		.uleb128 0x3a
 4344 00f4 0B       		.uleb128 0xb
 4345 00f5 3B       		.uleb128 0x3b
 4346 00f6 05       		.uleb128 0x5
 4347 00f7 49       		.uleb128 0x49
 4348 00f8 13       		.uleb128 0x13
 4349 00f9 02       		.uleb128 0x2
 4350 00fa 17       		.uleb128 0x17
 4351 00fb 00       		.byte	0
ARM GAS  C:\Users\kopusov.FT\AppData\Local\Temp\ccT1QhKH.s 			page 103


 4352 00fc 00       		.byte	0
 4353 00fd 14       		.uleb128 0x14
 4354 00fe 2E       		.uleb128 0x2e
 4355 00ff 01       		.byte	0x1
 4356 0100 03       		.uleb128 0x3
 4357 0101 0E       		.uleb128 0xe
 4358 0102 3A       		.uleb128 0x3a
 4359 0103 0B       		.uleb128 0xb
 4360 0104 3B       		.uleb128 0x3b
 4361 0105 05       		.uleb128 0x5
 4362 0106 27       		.uleb128 0x27
 4363 0107 19       		.uleb128 0x19
 4364 0108 49       		.uleb128 0x49
 4365 0109 13       		.uleb128 0x13
 4366 010a 11       		.uleb128 0x11
 4367 010b 01       		.uleb128 0x1
 4368 010c 12       		.uleb128 0x12
 4369 010d 06       		.uleb128 0x6
 4370 010e 40       		.uleb128 0x40
 4371 010f 18       		.uleb128 0x18
 4372 0110 9742     		.uleb128 0x2117
 4373 0112 19       		.uleb128 0x19
 4374 0113 01       		.uleb128 0x1
 4375 0114 13       		.uleb128 0x13
 4376 0115 00       		.byte	0
 4377 0116 00       		.byte	0
 4378 0117 15       		.uleb128 0x15
 4379 0118 05       		.uleb128 0x5
 4380 0119 00       		.byte	0
 4381 011a 03       		.uleb128 0x3
 4382 011b 0E       		.uleb128 0xe
 4383 011c 3A       		.uleb128 0x3a
 4384 011d 0B       		.uleb128 0xb
 4385 011e 3B       		.uleb128 0x3b
 4386 011f 05       		.uleb128 0x5
 4387 0120 49       		.uleb128 0x49
 4388 0121 13       		.uleb128 0x13
 4389 0122 02       		.uleb128 0x2
 4390 0123 17       		.uleb128 0x17
 4391 0124 00       		.byte	0
 4392 0125 00       		.byte	0
 4393 0126 16       		.uleb128 0x16
 4394 0127 2E       		.uleb128 0x2e
 4395 0128 00       		.byte	0
 4396 0129 3F       		.uleb128 0x3f
 4397 012a 19       		.uleb128 0x19
 4398 012b 03       		.uleb128 0x3
 4399 012c 0E       		.uleb128 0xe
 4400 012d 3A       		.uleb128 0x3a
 4401 012e 0B       		.uleb128 0xb
 4402 012f 3B       		.uleb128 0x3b
 4403 0130 05       		.uleb128 0x5
 4404 0131 27       		.uleb128 0x27
 4405 0132 19       		.uleb128 0x19
 4406 0133 11       		.uleb128 0x11
 4407 0134 01       		.uleb128 0x1
 4408 0135 12       		.uleb128 0x12
ARM GAS  C:\Users\kopusov.FT\AppData\Local\Temp\ccT1QhKH.s 			page 104


 4409 0136 06       		.uleb128 0x6
 4410 0137 40       		.uleb128 0x40
 4411 0138 18       		.uleb128 0x18
 4412 0139 9742     		.uleb128 0x2117
 4413 013b 19       		.uleb128 0x19
 4414 013c 00       		.byte	0
 4415 013d 00       		.byte	0
 4416 013e 17       		.uleb128 0x17
 4417 013f 2E       		.uleb128 0x2e
 4418 0140 01       		.byte	0x1
 4419 0141 3F       		.uleb128 0x3f
 4420 0142 19       		.uleb128 0x19
 4421 0143 03       		.uleb128 0x3
 4422 0144 0E       		.uleb128 0xe
 4423 0145 3A       		.uleb128 0x3a
 4424 0146 0B       		.uleb128 0xb
 4425 0147 3B       		.uleb128 0x3b
 4426 0148 0B       		.uleb128 0xb
 4427 0149 27       		.uleb128 0x27
 4428 014a 19       		.uleb128 0x19
 4429 014b 11       		.uleb128 0x11
 4430 014c 01       		.uleb128 0x1
 4431 014d 12       		.uleb128 0x12
 4432 014e 06       		.uleb128 0x6
 4433 014f 40       		.uleb128 0x40
 4434 0150 18       		.uleb128 0x18
 4435 0151 9742     		.uleb128 0x2117
 4436 0153 19       		.uleb128 0x19
 4437 0154 01       		.uleb128 0x1
 4438 0155 13       		.uleb128 0x13
 4439 0156 00       		.byte	0
 4440 0157 00       		.byte	0
 4441 0158 18       		.uleb128 0x18
 4442 0159 34       		.uleb128 0x34
 4443 015a 00       		.byte	0
 4444 015b 03       		.uleb128 0x3
 4445 015c 0E       		.uleb128 0xe
 4446 015d 3A       		.uleb128 0x3a
 4447 015e 0B       		.uleb128 0xb
 4448 015f 3B       		.uleb128 0x3b
 4449 0160 0B       		.uleb128 0xb
 4450 0161 49       		.uleb128 0x49
 4451 0162 13       		.uleb128 0x13
 4452 0163 02       		.uleb128 0x2
 4453 0164 17       		.uleb128 0x17
 4454 0165 00       		.byte	0
 4455 0166 00       		.byte	0
 4456 0167 19       		.uleb128 0x19
 4457 0168 2E       		.uleb128 0x2e
 4458 0169 01       		.byte	0x1
 4459 016a 3F       		.uleb128 0x3f
 4460 016b 19       		.uleb128 0x19
 4461 016c 03       		.uleb128 0x3
 4462 016d 0E       		.uleb128 0xe
 4463 016e 3A       		.uleb128 0x3a
 4464 016f 0B       		.uleb128 0xb
 4465 0170 3B       		.uleb128 0x3b
ARM GAS  C:\Users\kopusov.FT\AppData\Local\Temp\ccT1QhKH.s 			page 105


 4466 0171 05       		.uleb128 0x5
 4467 0172 27       		.uleb128 0x27
 4468 0173 19       		.uleb128 0x19
 4469 0174 11       		.uleb128 0x11
 4470 0175 01       		.uleb128 0x1
 4471 0176 12       		.uleb128 0x12
 4472 0177 06       		.uleb128 0x6
 4473 0178 40       		.uleb128 0x40
 4474 0179 18       		.uleb128 0x18
 4475 017a 9742     		.uleb128 0x2117
 4476 017c 19       		.uleb128 0x19
 4477 017d 01       		.uleb128 0x1
 4478 017e 13       		.uleb128 0x13
 4479 017f 00       		.byte	0
 4480 0180 00       		.byte	0
 4481 0181 1A       		.uleb128 0x1a
 4482 0182 05       		.uleb128 0x5
 4483 0183 00       		.byte	0
 4484 0184 03       		.uleb128 0x3
 4485 0185 0E       		.uleb128 0xe
 4486 0186 3A       		.uleb128 0x3a
 4487 0187 0B       		.uleb128 0xb
 4488 0188 3B       		.uleb128 0x3b
 4489 0189 05       		.uleb128 0x5
 4490 018a 49       		.uleb128 0x49
 4491 018b 13       		.uleb128 0x13
 4492 018c 02       		.uleb128 0x2
 4493 018d 18       		.uleb128 0x18
 4494 018e 00       		.byte	0
 4495 018f 00       		.byte	0
 4496 0190 1B       		.uleb128 0x1b
 4497 0191 34       		.uleb128 0x34
 4498 0192 00       		.byte	0
 4499 0193 03       		.uleb128 0x3
 4500 0194 0E       		.uleb128 0xe
 4501 0195 3A       		.uleb128 0x3a
 4502 0196 0B       		.uleb128 0xb
 4503 0197 3B       		.uleb128 0x3b
 4504 0198 0B       		.uleb128 0xb
 4505 0199 49       		.uleb128 0x49
 4506 019a 13       		.uleb128 0x13
 4507 019b 02       		.uleb128 0x2
 4508 019c 18       		.uleb128 0x18
 4509 019d 00       		.byte	0
 4510 019e 00       		.byte	0
 4511 019f 1C       		.uleb128 0x1c
 4512 01a0 2E       		.uleb128 0x2e
 4513 01a1 00       		.byte	0
 4514 01a2 3F       		.uleb128 0x3f
 4515 01a3 19       		.uleb128 0x19
 4516 01a4 03       		.uleb128 0x3
 4517 01a5 0E       		.uleb128 0xe
 4518 01a6 3A       		.uleb128 0x3a
 4519 01a7 0B       		.uleb128 0xb
 4520 01a8 3B       		.uleb128 0x3b
 4521 01a9 05       		.uleb128 0x5
 4522 01aa 27       		.uleb128 0x27
ARM GAS  C:\Users\kopusov.FT\AppData\Local\Temp\ccT1QhKH.s 			page 106


 4523 01ab 19       		.uleb128 0x19
 4524 01ac 49       		.uleb128 0x49
 4525 01ad 13       		.uleb128 0x13
 4526 01ae 11       		.uleb128 0x11
 4527 01af 01       		.uleb128 0x1
 4528 01b0 12       		.uleb128 0x12
 4529 01b1 06       		.uleb128 0x6
 4530 01b2 40       		.uleb128 0x40
 4531 01b3 18       		.uleb128 0x18
 4532 01b4 9742     		.uleb128 0x2117
 4533 01b6 19       		.uleb128 0x19
 4534 01b7 00       		.byte	0
 4535 01b8 00       		.byte	0
 4536 01b9 1D       		.uleb128 0x1d
 4537 01ba 2E       		.uleb128 0x2e
 4538 01bb 01       		.byte	0x1
 4539 01bc 3F       		.uleb128 0x3f
 4540 01bd 19       		.uleb128 0x19
 4541 01be 03       		.uleb128 0x3
 4542 01bf 0E       		.uleb128 0xe
 4543 01c0 3A       		.uleb128 0x3a
 4544 01c1 0B       		.uleb128 0xb
 4545 01c2 3B       		.uleb128 0x3b
 4546 01c3 05       		.uleb128 0x5
 4547 01c4 27       		.uleb128 0x27
 4548 01c5 19       		.uleb128 0x19
 4549 01c6 49       		.uleb128 0x49
 4550 01c7 13       		.uleb128 0x13
 4551 01c8 11       		.uleb128 0x11
 4552 01c9 01       		.uleb128 0x1
 4553 01ca 12       		.uleb128 0x12
 4554 01cb 06       		.uleb128 0x6
 4555 01cc 40       		.uleb128 0x40
 4556 01cd 18       		.uleb128 0x18
 4557 01ce 9742     		.uleb128 0x2117
 4558 01d0 19       		.uleb128 0x19
 4559 01d1 01       		.uleb128 0x1
 4560 01d2 13       		.uleb128 0x13
 4561 01d3 00       		.byte	0
 4562 01d4 00       		.byte	0
 4563 01d5 1E       		.uleb128 0x1e
 4564 01d6 0F       		.uleb128 0xf
 4565 01d7 00       		.byte	0
 4566 01d8 0B       		.uleb128 0xb
 4567 01d9 0B       		.uleb128 0xb
 4568 01da 49       		.uleb128 0x49
 4569 01db 13       		.uleb128 0x13
 4570 01dc 00       		.byte	0
 4571 01dd 00       		.byte	0
 4572 01de 1F       		.uleb128 0x1f
 4573 01df 26       		.uleb128 0x26
 4574 01e0 00       		.byte	0
 4575 01e1 49       		.uleb128 0x49
 4576 01e2 13       		.uleb128 0x13
 4577 01e3 00       		.byte	0
 4578 01e4 00       		.byte	0
 4579 01e5 20       		.uleb128 0x20
ARM GAS  C:\Users\kopusov.FT\AppData\Local\Temp\ccT1QhKH.s 			page 107


 4580 01e6 34       		.uleb128 0x34
 4581 01e7 00       		.byte	0
 4582 01e8 03       		.uleb128 0x3
 4583 01e9 0E       		.uleb128 0xe
 4584 01ea 3A       		.uleb128 0x3a
 4585 01eb 0B       		.uleb128 0xb
 4586 01ec 3B       		.uleb128 0x3b
 4587 01ed 05       		.uleb128 0x5
 4588 01ee 49       		.uleb128 0x49
 4589 01ef 13       		.uleb128 0x13
 4590 01f0 1C       		.uleb128 0x1c
 4591 01f1 0B       		.uleb128 0xb
 4592 01f2 00       		.byte	0
 4593 01f3 00       		.byte	0
 4594 01f4 21       		.uleb128 0x21
 4595 01f5 34       		.uleb128 0x34
 4596 01f6 00       		.byte	0
 4597 01f7 03       		.uleb128 0x3
 4598 01f8 0E       		.uleb128 0xe
 4599 01f9 3A       		.uleb128 0x3a
 4600 01fa 0B       		.uleb128 0xb
 4601 01fb 3B       		.uleb128 0x3b
 4602 01fc 0B       		.uleb128 0xb
 4603 01fd 49       		.uleb128 0x49
 4604 01fe 13       		.uleb128 0x13
 4605 01ff 3F       		.uleb128 0x3f
 4606 0200 19       		.uleb128 0x19
 4607 0201 02       		.uleb128 0x2
 4608 0202 18       		.uleb128 0x18
 4609 0203 00       		.byte	0
 4610 0204 00       		.byte	0
 4611 0205 22       		.uleb128 0x22
 4612 0206 34       		.uleb128 0x34
 4613 0207 00       		.byte	0
 4614 0208 03       		.uleb128 0x3
 4615 0209 0E       		.uleb128 0xe
 4616 020a 3A       		.uleb128 0x3a
 4617 020b 0B       		.uleb128 0xb
 4618 020c 3B       		.uleb128 0x3b
 4619 020d 0B       		.uleb128 0xb
 4620 020e 49       		.uleb128 0x49
 4621 020f 13       		.uleb128 0x13
 4622 0210 3F       		.uleb128 0x3f
 4623 0211 19       		.uleb128 0x19
 4624 0212 3C       		.uleb128 0x3c
 4625 0213 19       		.uleb128 0x19
 4626 0214 00       		.byte	0
 4627 0215 00       		.byte	0
 4628 0216 23       		.uleb128 0x23
 4629 0217 2E       		.uleb128 0x2e
 4630 0218 01       		.byte	0x1
 4631 0219 3F       		.uleb128 0x3f
 4632 021a 19       		.uleb128 0x19
 4633 021b 03       		.uleb128 0x3
 4634 021c 0E       		.uleb128 0xe
 4635 021d 3A       		.uleb128 0x3a
 4636 021e 0B       		.uleb128 0xb
ARM GAS  C:\Users\kopusov.FT\AppData\Local\Temp\ccT1QhKH.s 			page 108


 4637 021f 3B       		.uleb128 0x3b
 4638 0220 0B       		.uleb128 0xb
 4639 0221 27       		.uleb128 0x27
 4640 0222 19       		.uleb128 0x19
 4641 0223 49       		.uleb128 0x49
 4642 0224 13       		.uleb128 0x13
 4643 0225 3C       		.uleb128 0x3c
 4644 0226 19       		.uleb128 0x19
 4645 0227 01       		.uleb128 0x1
 4646 0228 13       		.uleb128 0x13
 4647 0229 00       		.byte	0
 4648 022a 00       		.byte	0
 4649 022b 24       		.uleb128 0x24
 4650 022c 05       		.uleb128 0x5
 4651 022d 00       		.byte	0
 4652 022e 49       		.uleb128 0x49
 4653 022f 13       		.uleb128 0x13
 4654 0230 00       		.byte	0
 4655 0231 00       		.byte	0
 4656 0232 25       		.uleb128 0x25
 4657 0233 2E       		.uleb128 0x2e
 4658 0234 00       		.byte	0
 4659 0235 3F       		.uleb128 0x3f
 4660 0236 19       		.uleb128 0x19
 4661 0237 03       		.uleb128 0x3
 4662 0238 0E       		.uleb128 0xe
 4663 0239 3A       		.uleb128 0x3a
 4664 023a 0B       		.uleb128 0xb
 4665 023b 3B       		.uleb128 0x3b
 4666 023c 0B       		.uleb128 0xb
 4667 023d 27       		.uleb128 0x27
 4668 023e 19       		.uleb128 0x19
 4669 023f 49       		.uleb128 0x49
 4670 0240 13       		.uleb128 0x13
 4671 0241 3C       		.uleb128 0x3c
 4672 0242 19       		.uleb128 0x19
 4673 0243 00       		.byte	0
 4674 0244 00       		.byte	0
 4675 0245 26       		.uleb128 0x26
 4676 0246 2E       		.uleb128 0x2e
 4677 0247 01       		.byte	0x1
 4678 0248 3F       		.uleb128 0x3f
 4679 0249 19       		.uleb128 0x19
 4680 024a 03       		.uleb128 0x3
 4681 024b 0E       		.uleb128 0xe
 4682 024c 3A       		.uleb128 0x3a
 4683 024d 0B       		.uleb128 0xb
 4684 024e 3B       		.uleb128 0x3b
 4685 024f 0B       		.uleb128 0xb
 4686 0250 27       		.uleb128 0x27
 4687 0251 19       		.uleb128 0x19
 4688 0252 3C       		.uleb128 0x3c
 4689 0253 19       		.uleb128 0x19
 4690 0254 01       		.uleb128 0x1
 4691 0255 13       		.uleb128 0x13
 4692 0256 00       		.byte	0
 4693 0257 00       		.byte	0
ARM GAS  C:\Users\kopusov.FT\AppData\Local\Temp\ccT1QhKH.s 			page 109


 4694 0258 27       		.uleb128 0x27
 4695 0259 2E       		.uleb128 0x2e
 4696 025a 01       		.byte	0x1
 4697 025b 3F       		.uleb128 0x3f
 4698 025c 19       		.uleb128 0x19
 4699 025d 03       		.uleb128 0x3
 4700 025e 0E       		.uleb128 0xe
 4701 025f 3A       		.uleb128 0x3a
 4702 0260 0B       		.uleb128 0xb
 4703 0261 3B       		.uleb128 0x3b
 4704 0262 0B       		.uleb128 0xb
 4705 0263 27       		.uleb128 0x27
 4706 0264 19       		.uleb128 0x19
 4707 0265 3C       		.uleb128 0x3c
 4708 0266 19       		.uleb128 0x19
 4709 0267 00       		.byte	0
 4710 0268 00       		.byte	0
 4711 0269 00       		.byte	0
 4712              		.section	.debug_loc,"",%progbits
 4713              	.Ldebug_loc0:
 4714              	.LLST0:
 4715 0000 60000000 		.4byte	.LVL9
 4716 0004 64000000 		.4byte	.LVL10
 4717 0008 0200     		.2byte	0x2
 4718 000a 30       		.byte	0x30
 4719 000b 9F       		.byte	0x9f
 4720 000c 64000000 		.4byte	.LVL10
 4721 0010 74000000 		.4byte	.LVL12
 4722 0014 0100     		.2byte	0x1
 4723 0016 54       		.byte	0x54
 4724 0017 76000000 		.4byte	.LVL13
 4725 001b 7C000000 		.4byte	.LVL14
 4726 001f 0100     		.2byte	0x1
 4727 0021 54       		.byte	0x54
 4728 0022 00000000 		.4byte	0
 4729 0026 00000000 		.4byte	0
 4730              	.LLST1:
 4731 002a 02000000 		.4byte	.LVL15
 4732 002e 06000000 		.4byte	.LVL16
 4733 0032 0200     		.2byte	0x2
 4734 0034 30       		.byte	0x30
 4735 0035 9F       		.byte	0x9f
 4736 0036 06000000 		.4byte	.LVL16
 4737 003a 5E000000 		.4byte	.LVL17
 4738 003e 0100     		.2byte	0x1
 4739 0040 53       		.byte	0x53
 4740 0041 60000000 		.4byte	.LVL18
 4741 0045 70000000 		.4byte	.LVL19
 4742 0049 0100     		.2byte	0x1
 4743 004b 53       		.byte	0x53
 4744 004c 1C020000 		.4byte	.LVL52
 4745 0050 20020000 		.4byte	.LVL53
 4746 0054 0200     		.2byte	0x2
 4747 0056 30       		.byte	0x30
 4748 0057 9F       		.byte	0x9f
 4749 0058 20020000 		.4byte	.LVL53
 4750 005c 2C020000 		.4byte	.LVL55
ARM GAS  C:\Users\kopusov.FT\AppData\Local\Temp\ccT1QhKH.s 			page 110


 4751 0060 0100     		.2byte	0x1
 4752 0062 54       		.byte	0x54
 4753 0063 2E020000 		.4byte	.LVL56
 4754 0067 34020000 		.4byte	.LVL57
 4755 006b 0100     		.2byte	0x1
 4756 006d 54       		.byte	0x54
 4757 006e 00000000 		.4byte	0
 4758 0072 00000000 		.4byte	0
 4759              	.LLST2:
 4760 0076 02000000 		.4byte	.LVL77
 4761 007a 06000000 		.4byte	.LVL78
 4762 007e 0200     		.2byte	0x2
 4763 0080 30       		.byte	0x30
 4764 0081 9F       		.byte	0x9f
 4765 0082 06000000 		.4byte	.LVL78
 4766 0086 3C000000 		.4byte	.LVL83
 4767 008a 0100     		.2byte	0x1
 4768 008c 56       		.byte	0x56
 4769 008d 3E000000 		.4byte	.LVL84
 4770 0091 44000000 		.4byte	.LVL85
 4771 0095 0100     		.2byte	0x1
 4772 0097 56       		.byte	0x56
 4773 0098 00000000 		.4byte	0
 4774 009c 00000000 		.4byte	0
 4775              	.LLST3:
 4776 00a0 0E000000 		.4byte	.LVL79
 4777 00a4 3E000000 		.4byte	.LVL84
 4778 00a8 0100     		.2byte	0x1
 4779 00aa 55       		.byte	0x55
 4780 00ab 00000000 		.4byte	0
 4781 00af 00000000 		.4byte	0
 4782              	.LLST4:
 4783 00b3 00000000 		.4byte	.LVL86
 4784 00b7 08000000 		.4byte	.LVL88
 4785 00bb 0100     		.2byte	0x1
 4786 00bd 50       		.byte	0x50
 4787 00be 08000000 		.4byte	.LVL88
 4788 00c2 2C000000 		.4byte	.LFE14
 4789 00c6 0400     		.2byte	0x4
 4790 00c8 F3       		.byte	0xf3
 4791 00c9 01       		.uleb128 0x1
 4792 00ca 50       		.byte	0x50
 4793 00cb 9F       		.byte	0x9f
 4794 00cc 00000000 		.4byte	0
 4795 00d0 00000000 		.4byte	0
 4796              	.LLST5:
 4797 00d4 04000000 		.4byte	.LVL87
 4798 00d8 08000000 		.4byte	.LVL88
 4799 00dc 0300     		.2byte	0x3
 4800 00de 09       		.byte	0x9
 4801 00df FF       		.byte	0xff
 4802 00e0 9F       		.byte	0x9f
 4803 00e1 08000000 		.4byte	.LVL88
 4804 00e5 0A000000 		.4byte	.LVL89
 4805 00e9 0100     		.2byte	0x1
 4806 00eb 54       		.byte	0x54
 4807 00ec 0C000000 		.4byte	.LVL90
ARM GAS  C:\Users\kopusov.FT\AppData\Local\Temp\ccT1QhKH.s 			page 111


 4808 00f0 28000000 		.4byte	.LVL93
 4809 00f4 0100     		.2byte	0x1
 4810 00f6 54       		.byte	0x54
 4811 00f7 00000000 		.4byte	0
 4812 00fb 00000000 		.4byte	0
 4813              	.LLST6:
 4814 00ff 06000000 		.4byte	.LVL94
 4815 0103 13000000 		.4byte	.LVL95-1
 4816 0107 0100     		.2byte	0x1
 4817 0109 50       		.byte	0x50
 4818 010a 00000000 		.4byte	0
 4819 010e 00000000 		.4byte	0
 4820              	.LLST7:
 4821 0112 18000000 		.4byte	.LVL100
 4822 0116 6F000000 		.4byte	.LVL101-1
 4823 011a 0100     		.2byte	0x1
 4824 011c 50       		.byte	0x50
 4825 011d 00000000 		.4byte	0
 4826 0121 00000000 		.4byte	0
 4827              	.LLST8:
 4828 0125 00000000 		.4byte	.LVL103
 4829 0129 04000000 		.4byte	.LVL104
 4830 012d 0100     		.2byte	0x1
 4831 012f 50       		.byte	0x50
 4832 0130 04000000 		.4byte	.LVL104
 4833 0134 24000000 		.4byte	.LFE7
 4834 0138 0100     		.2byte	0x1
 4835 013a 50       		.byte	0x50
 4836 013b 00000000 		.4byte	0
 4837 013f 00000000 		.4byte	0
 4838              	.LLST9:
 4839 0143 10000000 		.4byte	.LVL108
 4840 0147 27000000 		.4byte	.LVL109-1
 4841 014b 0100     		.2byte	0x1
 4842 014d 50       		.byte	0x50
 4843 014e 00000000 		.4byte	0
 4844 0152 00000000 		.4byte	0
 4845              	.LLST10:
 4846 0156 00000000 		.4byte	.LVL113
 4847 015a 0E000000 		.4byte	.LVL115
 4848 015e 0100     		.2byte	0x1
 4849 0160 50       		.byte	0x50
 4850 0161 0E000000 		.4byte	.LVL115
 4851 0165 A4000000 		.4byte	.LFE10
 4852 0169 0400     		.2byte	0x4
 4853 016b F3       		.byte	0xf3
 4854 016c 01       		.uleb128 0x1
 4855 016d 50       		.byte	0x50
 4856 016e 9F       		.byte	0x9f
 4857 016f 00000000 		.4byte	0
 4858 0173 00000000 		.4byte	0
 4859              	.LLST11:
 4860 0177 00000000 		.4byte	.LVL113
 4861 017b 10000000 		.4byte	.LVL116
 4862 017f 0100     		.2byte	0x1
 4863 0181 51       		.byte	0x51
 4864 0182 10000000 		.4byte	.LVL116
ARM GAS  C:\Users\kopusov.FT\AppData\Local\Temp\ccT1QhKH.s 			page 112


 4865 0186 98000000 		.4byte	.LVL131
 4866 018a 0100     		.2byte	0x1
 4867 018c 58       		.byte	0x58
 4868 018d 98000000 		.4byte	.LVL131
 4869 0191 A4000000 		.4byte	.LFE10
 4870 0195 0400     		.2byte	0x4
 4871 0197 F3       		.byte	0xf3
 4872 0198 01       		.uleb128 0x1
 4873 0199 51       		.byte	0x51
 4874 019a 9F       		.byte	0x9f
 4875 019b 00000000 		.4byte	0
 4876 019f 00000000 		.4byte	0
 4877              	.LLST12:
 4878 01a3 00000000 		.4byte	.LVL113
 4879 01a7 10000000 		.4byte	.LVL116
 4880 01ab 0100     		.2byte	0x1
 4881 01ad 52       		.byte	0x52
 4882 01ae 10000000 		.4byte	.LVL116
 4883 01b2 38000000 		.4byte	.LVL119
 4884 01b6 0100     		.2byte	0x1
 4885 01b8 57       		.byte	0x57
 4886 01b9 3A000000 		.4byte	.LVL120
 4887 01bd 98000000 		.4byte	.LVL131
 4888 01c1 0100     		.2byte	0x1
 4889 01c3 57       		.byte	0x57
 4890 01c4 00000000 		.4byte	0
 4891 01c8 00000000 		.4byte	0
 4892              	.LLST13:
 4893 01cc 0A000000 		.4byte	.LVL114
 4894 01d0 10000000 		.4byte	.LVL116
 4895 01d4 0200     		.2byte	0x2
 4896 01d6 31       		.byte	0x31
 4897 01d7 9F       		.byte	0x9f
 4898 01d8 10000000 		.4byte	.LVL116
 4899 01dc 48000000 		.4byte	.LVL122
 4900 01e0 0100     		.2byte	0x1
 4901 01e2 50       		.byte	0x50
 4902 01e3 88000000 		.4byte	.LVL128
 4903 01e7 A4000000 		.4byte	.LFE10
 4904 01eb 0100     		.2byte	0x1
 4905 01ed 50       		.byte	0x50
 4906 01ee 00000000 		.4byte	0
 4907 01f2 00000000 		.4byte	0
 4908              	.LLST14:
 4909 01f6 0A000000 		.4byte	.LVL114
 4910 01fa 10000000 		.4byte	.LVL116
 4911 01fe 0200     		.2byte	0x2
 4912 0200 30       		.byte	0x30
 4913 0201 9F       		.byte	0x9f
 4914 0202 10000000 		.4byte	.LVL116
 4915 0206 8A000000 		.4byte	.LVL129
 4916 020a 0100     		.2byte	0x1
 4917 020c 54       		.byte	0x54
 4918 020d 8C000000 		.4byte	.LVL130
 4919 0211 98000000 		.4byte	.LVL131
 4920 0215 0100     		.2byte	0x1
 4921 0217 54       		.byte	0x54
ARM GAS  C:\Users\kopusov.FT\AppData\Local\Temp\ccT1QhKH.s 			page 113


 4922 0218 00000000 		.4byte	0
 4923 021c 00000000 		.4byte	0
 4924              	.LLST15:
 4925 0220 32000000 		.4byte	.LVL117
 4926 0224 50000000 		.4byte	.LVL123
 4927 0228 0100     		.2byte	0x1
 4928 022a 53       		.byte	0x53
 4929 022b 50000000 		.4byte	.LVL123
 4930 022f 53000000 		.4byte	.LVL124-1
 4931 0233 1600     		.2byte	0x16
 4932 0235 76       		.byte	0x76
 4933 0236 00       		.sleb128 0
 4934 0237 74       		.byte	0x74
 4935 0238 00       		.sleb128 0
 4936 0239 31       		.byte	0x31
 4937 023a 24       		.byte	0x24
 4938 023b 03       		.byte	0x3
 4939 023c 00000000 		.4byte	.LANCHOR1
 4940 0240 22       		.byte	0x22
 4941 0241 94       		.byte	0x94
 4942 0242 02       		.byte	0x2
 4943 0243 0A       		.byte	0xa
 4944 0244 FFFF     		.2byte	0xffff
 4945 0246 1A       		.byte	0x1a
 4946 0247 1C       		.byte	0x1c
 4947 0248 31       		.byte	0x31
 4948 0249 24       		.byte	0x24
 4949 024a 9F       		.byte	0x9f
 4950 024b 00000000 		.4byte	0
 4951 024f 00000000 		.4byte	0
 4952              	.LLST16:
 4953 0253 46000000 		.4byte	.LVL121
 4954 0257 88000000 		.4byte	.LVL128
 4955 025b 0100     		.2byte	0x1
 4956 025d 55       		.byte	0x55
 4957 025e 00000000 		.4byte	0
 4958 0262 00000000 		.4byte	0
 4959              	.LLST17:
 4960 0266 00000000 		.4byte	.LVL132
 4961 026a 0E000000 		.4byte	.LVL134
 4962 026e 0100     		.2byte	0x1
 4963 0270 50       		.byte	0x50
 4964 0271 0E000000 		.4byte	.LVL134
 4965 0275 A4000000 		.4byte	.LFE11
 4966 0279 0400     		.2byte	0x4
 4967 027b F3       		.byte	0xf3
 4968 027c 01       		.uleb128 0x1
 4969 027d 50       		.byte	0x50
 4970 027e 9F       		.byte	0x9f
 4971 027f 00000000 		.4byte	0
 4972 0283 00000000 		.4byte	0
 4973              	.LLST18:
 4974 0287 00000000 		.4byte	.LVL132
 4975 028b 10000000 		.4byte	.LVL135
 4976 028f 0100     		.2byte	0x1
 4977 0291 51       		.byte	0x51
 4978 0292 10000000 		.4byte	.LVL135
ARM GAS  C:\Users\kopusov.FT\AppData\Local\Temp\ccT1QhKH.s 			page 114


 4979 0296 98000000 		.4byte	.LVL150
 4980 029a 0100     		.2byte	0x1
 4981 029c 58       		.byte	0x58
 4982 029d 98000000 		.4byte	.LVL150
 4983 02a1 A4000000 		.4byte	.LFE11
 4984 02a5 0400     		.2byte	0x4
 4985 02a7 F3       		.byte	0xf3
 4986 02a8 01       		.uleb128 0x1
 4987 02a9 51       		.byte	0x51
 4988 02aa 9F       		.byte	0x9f
 4989 02ab 00000000 		.4byte	0
 4990 02af 00000000 		.4byte	0
 4991              	.LLST19:
 4992 02b3 00000000 		.4byte	.LVL132
 4993 02b7 10000000 		.4byte	.LVL135
 4994 02bb 0100     		.2byte	0x1
 4995 02bd 52       		.byte	0x52
 4996 02be 10000000 		.4byte	.LVL135
 4997 02c2 38000000 		.4byte	.LVL138
 4998 02c6 0100     		.2byte	0x1
 4999 02c8 57       		.byte	0x57
 5000 02c9 3A000000 		.4byte	.LVL139
 5001 02cd 98000000 		.4byte	.LVL150
 5002 02d1 0100     		.2byte	0x1
 5003 02d3 57       		.byte	0x57
 5004 02d4 00000000 		.4byte	0
 5005 02d8 00000000 		.4byte	0
 5006              	.LLST20:
 5007 02dc 0A000000 		.4byte	.LVL133
 5008 02e0 10000000 		.4byte	.LVL135
 5009 02e4 0200     		.2byte	0x2
 5010 02e6 31       		.byte	0x31
 5011 02e7 9F       		.byte	0x9f
 5012 02e8 10000000 		.4byte	.LVL135
 5013 02ec 48000000 		.4byte	.LVL141
 5014 02f0 0100     		.2byte	0x1
 5015 02f2 50       		.byte	0x50
 5016 02f3 88000000 		.4byte	.LVL147
 5017 02f7 A4000000 		.4byte	.LFE11
 5018 02fb 0100     		.2byte	0x1
 5019 02fd 50       		.byte	0x50
 5020 02fe 00000000 		.4byte	0
 5021 0302 00000000 		.4byte	0
 5022              	.LLST21:
 5023 0306 0A000000 		.4byte	.LVL133
 5024 030a 10000000 		.4byte	.LVL135
 5025 030e 0200     		.2byte	0x2
 5026 0310 30       		.byte	0x30
 5027 0311 9F       		.byte	0x9f
 5028 0312 10000000 		.4byte	.LVL135
 5029 0316 8A000000 		.4byte	.LVL148
 5030 031a 0100     		.2byte	0x1
 5031 031c 54       		.byte	0x54
 5032 031d 8C000000 		.4byte	.LVL149
 5033 0321 98000000 		.4byte	.LVL150
 5034 0325 0100     		.2byte	0x1
 5035 0327 54       		.byte	0x54
ARM GAS  C:\Users\kopusov.FT\AppData\Local\Temp\ccT1QhKH.s 			page 115


 5036 0328 00000000 		.4byte	0
 5037 032c 00000000 		.4byte	0
 5038              	.LLST22:
 5039 0330 32000000 		.4byte	.LVL136
 5040 0334 50000000 		.4byte	.LVL142
 5041 0338 0100     		.2byte	0x1
 5042 033a 53       		.byte	0x53
 5043 033b 50000000 		.4byte	.LVL142
 5044 033f 53000000 		.4byte	.LVL143-1
 5045 0343 1600     		.2byte	0x16
 5046 0345 76       		.byte	0x76
 5047 0346 00       		.sleb128 0
 5048 0347 74       		.byte	0x74
 5049 0348 00       		.sleb128 0
 5050 0349 31       		.byte	0x31
 5051 034a 24       		.byte	0x24
 5052 034b 03       		.byte	0x3
 5053 034c 00000000 		.4byte	.LANCHOR1
 5054 0350 22       		.byte	0x22
 5055 0351 94       		.byte	0x94
 5056 0352 02       		.byte	0x2
 5057 0353 0A       		.byte	0xa
 5058 0354 FFFF     		.2byte	0xffff
 5059 0356 1A       		.byte	0x1a
 5060 0357 1C       		.byte	0x1c
 5061 0358 31       		.byte	0x31
 5062 0359 24       		.byte	0x24
 5063 035a 9F       		.byte	0x9f
 5064 035b 00000000 		.4byte	0
 5065 035f 00000000 		.4byte	0
 5066              	.LLST23:
 5067 0363 46000000 		.4byte	.LVL140
 5068 0367 88000000 		.4byte	.LVL147
 5069 036b 0100     		.2byte	0x1
 5070 036d 55       		.byte	0x55
 5071 036e 00000000 		.4byte	0
 5072 0372 00000000 		.4byte	0
 5073              	.LLST24:
 5074 0376 00000000 		.4byte	.LVL151
 5075 037a 0C000000 		.4byte	.LVL153
 5076 037e 0100     		.2byte	0x1
 5077 0380 50       		.byte	0x50
 5078 0381 0C000000 		.4byte	.LVL153
 5079 0385 BC000000 		.4byte	.LFE12
 5080 0389 0400     		.2byte	0x4
 5081 038b F3       		.byte	0xf3
 5082 038c 01       		.uleb128 0x1
 5083 038d 50       		.byte	0x50
 5084 038e 9F       		.byte	0x9f
 5085 038f 00000000 		.4byte	0
 5086 0393 00000000 		.4byte	0
 5087              	.LLST25:
 5088 0397 00000000 		.4byte	.LVL151
 5089 039b 0E000000 		.4byte	.LVL154
 5090 039f 0100     		.2byte	0x1
 5091 03a1 51       		.byte	0x51
 5092 03a2 0E000000 		.4byte	.LVL154
ARM GAS  C:\Users\kopusov.FT\AppData\Local\Temp\ccT1QhKH.s 			page 116


 5093 03a6 BC000000 		.4byte	.LFE12
 5094 03aa 0400     		.2byte	0x4
 5095 03ac F3       		.byte	0xf3
 5096 03ad 01       		.uleb128 0x1
 5097 03ae 51       		.byte	0x51
 5098 03af 9F       		.byte	0x9f
 5099 03b0 00000000 		.4byte	0
 5100 03b4 00000000 		.4byte	0
 5101              	.LLST26:
 5102 03b8 08000000 		.4byte	.LVL152
 5103 03bc 0E000000 		.4byte	.LVL154
 5104 03c0 0200     		.2byte	0x2
 5105 03c2 31       		.byte	0x31
 5106 03c3 9F       		.byte	0x9f
 5107 03c4 0E000000 		.4byte	.LVL154
 5108 03c8 46000000 		.4byte	.LVL161
 5109 03cc 0100     		.2byte	0x1
 5110 03ce 50       		.byte	0x50
 5111 03cf 98000000 		.4byte	.LVL167
 5112 03d3 BC000000 		.4byte	.LFE12
 5113 03d7 0100     		.2byte	0x1
 5114 03d9 50       		.byte	0x50
 5115 03da 00000000 		.4byte	0
 5116 03de 00000000 		.4byte	0
 5117              	.LLST27:
 5118 03e2 08000000 		.4byte	.LVL152
 5119 03e6 0E000000 		.4byte	.LVL154
 5120 03ea 0200     		.2byte	0x2
 5121 03ec 30       		.byte	0x30
 5122 03ed 9F       		.byte	0x9f
 5123 03ee 0E000000 		.4byte	.LVL154
 5124 03f2 9A000000 		.4byte	.LVL168
 5125 03f6 0100     		.2byte	0x1
 5126 03f8 54       		.byte	0x54
 5127 03f9 9C000000 		.4byte	.LVL169
 5128 03fd A8000000 		.4byte	.LVL170
 5129 0401 0100     		.2byte	0x1
 5130 0403 54       		.byte	0x54
 5131 0404 00000000 		.4byte	0
 5132 0408 00000000 		.4byte	0
 5133              	.LLST28:
 5134 040c 30000000 		.4byte	.LVL155
 5135 0410 32000000 		.4byte	.LVL156
 5136 0414 0100     		.2byte	0x1
 5137 0416 55       		.byte	0x55
 5138 0417 32000000 		.4byte	.LVL156
 5139 041b 34000000 		.4byte	.LVL157
 5140 041f 0600     		.2byte	0x6
 5141 0421 76       		.byte	0x76
 5142 0422 00       		.sleb128 0
 5143 0423 73       		.byte	0x73
 5144 0424 00       		.sleb128 0
 5145 0425 1C       		.byte	0x1c
 5146 0426 9F       		.byte	0x9f
 5147 0427 34000000 		.4byte	.LVL157
 5148 042b 42000000 		.4byte	.LVL159
 5149 042f 0100     		.2byte	0x1
ARM GAS  C:\Users\kopusov.FT\AppData\Local\Temp\ccT1QhKH.s 			page 117


 5150 0431 53       		.byte	0x53
 5151 0432 42000000 		.4byte	.LVL159
 5152 0436 44000000 		.4byte	.LVL160
 5153 043a 1600     		.2byte	0x16
 5154 043c 76       		.byte	0x76
 5155 043d 00       		.sleb128 0
 5156 043e 74       		.byte	0x74
 5157 043f 00       		.sleb128 0
 5158 0440 31       		.byte	0x31
 5159 0441 24       		.byte	0x24
 5160 0442 03       		.byte	0x3
 5161 0443 00000000 		.4byte	.LANCHOR1
 5162 0447 22       		.byte	0x22
 5163 0448 94       		.byte	0x94
 5164 0449 02       		.byte	0x2
 5165 044a 0A       		.byte	0xa
 5166 044b FFFF     		.2byte	0xffff
 5167 044d 1A       		.byte	0x1a
 5168 044e 1C       		.byte	0x1c
 5169 044f 31       		.byte	0x31
 5170 0450 24       		.byte	0x24
 5171 0451 9F       		.byte	0x9f
 5172 0452 00000000 		.4byte	0
 5173 0456 00000000 		.4byte	0
 5174              	.LLST29:
 5175 045a 40000000 		.4byte	.LVL158
 5176 045e 5A000000 		.4byte	.LVL163
 5177 0462 0100     		.2byte	0x1
 5178 0464 55       		.byte	0x55
 5179 0465 00000000 		.4byte	0
 5180 0469 00000000 		.4byte	0
 5181              	.LLST30:
 5182 046d 00000000 		.4byte	.LVL171
 5183 0471 0A000000 		.4byte	.LVL172
 5184 0475 0100     		.2byte	0x1
 5185 0477 50       		.byte	0x50
 5186 0478 0A000000 		.4byte	.LVL172
 5187 047c 0C000000 		.4byte	.LVL173
 5188 0480 0100     		.2byte	0x1
 5189 0482 50       		.byte	0x50
 5190 0483 0C000000 		.4byte	.LVL173
 5191 0487 10000000 		.4byte	.LVL174
 5192 048b 0300     		.2byte	0x3
 5193 048d 70       		.byte	0x70
 5194 048e 01       		.sleb128 1
 5195 048f 9F       		.byte	0x9f
 5196 0490 10000000 		.4byte	.LVL174
 5197 0494 16000000 		.4byte	.LVL175
 5198 0498 0100     		.2byte	0x1
 5199 049a 50       		.byte	0x50
 5200 049b 1A000000 		.4byte	.LVL177
 5201 049f 1C000000 		.4byte	.LVL178
 5202 04a3 0100     		.2byte	0x1
 5203 04a5 50       		.byte	0x50
 5204 04a6 1C000000 		.4byte	.LVL178
 5205 04aa 24000000 		.4byte	.LFE13
 5206 04ae 0400     		.2byte	0x4
ARM GAS  C:\Users\kopusov.FT\AppData\Local\Temp\ccT1QhKH.s 			page 118


 5207 04b0 F3       		.byte	0xf3
 5208 04b1 01       		.uleb128 0x1
 5209 04b2 50       		.byte	0x50
 5210 04b3 9F       		.byte	0x9f
 5211 04b4 00000000 		.4byte	0
 5212 04b8 00000000 		.4byte	0
 5213              	.LLST31:
 5214 04bc 00000000 		.4byte	.LVL171
 5215 04c0 18000000 		.4byte	.LVL176
 5216 04c4 0200     		.2byte	0x2
 5217 04c6 30       		.byte	0x30
 5218 04c7 9F       		.byte	0x9f
 5219 04c8 18000000 		.4byte	.LVL176
 5220 04cc 1A000000 		.4byte	.LVL177
 5221 04d0 0100     		.2byte	0x1
 5222 04d2 50       		.byte	0x50
 5223 04d3 1A000000 		.4byte	.LVL177
 5224 04d7 1C000000 		.4byte	.LVL178
 5225 04db 0200     		.2byte	0x2
 5226 04dd 30       		.byte	0x30
 5227 04de 9F       		.byte	0x9f
 5228 04df 1C000000 		.4byte	.LVL178
 5229 04e3 24000000 		.4byte	.LFE13
 5230 04e7 0100     		.2byte	0x1
 5231 04e9 50       		.byte	0x50
 5232 04ea 00000000 		.4byte	0
 5233 04ee 00000000 		.4byte	0
 5234              		.section	.debug_aranges,"",%progbits
 5235 0000 A4000000 		.4byte	0xa4
 5236 0004 0200     		.2byte	0x2
 5237 0006 00000000 		.4byte	.Ldebug_info0
 5238 000a 04       		.byte	0x4
 5239 000b 00       		.byte	0
 5240 000c 0000     		.2byte	0
 5241 000e 0000     		.2byte	0
 5242 0010 00000000 		.4byte	.LFB15
 5243 0014 80000000 		.4byte	.LFE15-.LFB15
 5244 0018 00000000 		.4byte	.LFB17
 5245 001c 70030000 		.4byte	.LFE17-.LFB17
 5246 0020 00000000 		.4byte	.LFB16
 5247 0024 4C000000 		.4byte	.LFE16-.LFB16
 5248 0028 00000000 		.4byte	.LFB14
 5249 002c 2C000000 		.4byte	.LFE14-.LFB14
 5250 0030 00000000 		.4byte	.LFB4
 5251 0034 10000000 		.4byte	.LFE4-.LFB4
 5252 0038 00000000 		.4byte	.LFB0
 5253 003c 30000000 		.4byte	.LFE0-.LFB0
 5254 0040 00000000 		.4byte	.LFB5
 5255 0044 10000000 		.4byte	.LFE5-.LFB5
 5256 0048 00000000 		.4byte	.LFB3
 5257 004c 80000000 		.4byte	.LFE3-.LFB3
 5258 0050 00000000 		.4byte	.LFB6
 5259 0054 20000000 		.4byte	.LFE6-.LFB6
 5260 0058 00000000 		.4byte	.LFB7
 5261 005c 24000000 		.4byte	.LFE7-.LFB7
 5262 0060 00000000 		.4byte	.LFB8
 5263 0064 0A000000 		.4byte	.LFE8-.LFB8
ARM GAS  C:\Users\kopusov.FT\AppData\Local\Temp\ccT1QhKH.s 			page 119


 5264 0068 00000000 		.4byte	.LFB1
 5265 006c 74000000 		.4byte	.LFE1-.LFB1
 5266 0070 00000000 		.4byte	.LFB2
 5267 0074 20000000 		.4byte	.LFE2-.LFB2
 5268 0078 00000000 		.4byte	.LFB9
 5269 007c 0C000000 		.4byte	.LFE9-.LFB9
 5270 0080 00000000 		.4byte	.LFB10
 5271 0084 A4000000 		.4byte	.LFE10-.LFB10
 5272 0088 00000000 		.4byte	.LFB11
 5273 008c A4000000 		.4byte	.LFE11-.LFB11
 5274 0090 00000000 		.4byte	.LFB12
 5275 0094 BC000000 		.4byte	.LFE12-.LFB12
 5276 0098 00000000 		.4byte	.LFB13
 5277 009c 24000000 		.4byte	.LFE13-.LFB13
 5278 00a0 00000000 		.4byte	0
 5279 00a4 00000000 		.4byte	0
 5280              		.section	.debug_ranges,"",%progbits
 5281              	.Ldebug_ranges0:
 5282 0000 00000000 		.4byte	.LFB15
 5283 0004 80000000 		.4byte	.LFE15
 5284 0008 00000000 		.4byte	.LFB17
 5285 000c 70030000 		.4byte	.LFE17
 5286 0010 00000000 		.4byte	.LFB16
 5287 0014 4C000000 		.4byte	.LFE16
 5288 0018 00000000 		.4byte	.LFB14
 5289 001c 2C000000 		.4byte	.LFE14
 5290 0020 00000000 		.4byte	.LFB4
 5291 0024 10000000 		.4byte	.LFE4
 5292 0028 00000000 		.4byte	.LFB0
 5293 002c 30000000 		.4byte	.LFE0
 5294 0030 00000000 		.4byte	.LFB5
 5295 0034 10000000 		.4byte	.LFE5
 5296 0038 00000000 		.4byte	.LFB3
 5297 003c 80000000 		.4byte	.LFE3
 5298 0040 00000000 		.4byte	.LFB6
 5299 0044 20000000 		.4byte	.LFE6
 5300 0048 00000000 		.4byte	.LFB7
 5301 004c 24000000 		.4byte	.LFE7
 5302 0050 00000000 		.4byte	.LFB8
 5303 0054 0A000000 		.4byte	.LFE8
 5304 0058 00000000 		.4byte	.LFB1
 5305 005c 74000000 		.4byte	.LFE1
 5306 0060 00000000 		.4byte	.LFB2
 5307 0064 20000000 		.4byte	.LFE2
 5308 0068 00000000 		.4byte	.LFB9
 5309 006c 0C000000 		.4byte	.LFE9
 5310 0070 00000000 		.4byte	.LFB10
 5311 0074 A4000000 		.4byte	.LFE10
 5312 0078 00000000 		.4byte	.LFB11
 5313 007c A4000000 		.4byte	.LFE11
 5314 0080 00000000 		.4byte	.LFB12
 5315 0084 BC000000 		.4byte	.LFE12
 5316 0088 00000000 		.4byte	.LFB13
 5317 008c 24000000 		.4byte	.LFE13
 5318 0090 00000000 		.4byte	0
 5319 0094 00000000 		.4byte	0
 5320              		.section	.debug_line,"",%progbits
ARM GAS  C:\Users\kopusov.FT\AppData\Local\Temp\ccT1QhKH.s 			page 120


 5321              	.Ldebug_line0:
 5322 0000 77040000 		.section	.debug_str,"MS",%progbits,1
 5322      0200BC01 
 5322      00000201 
 5322      FB0E0D00 
 5322      01010101 
 5323              	.LASF10:
 5324 0000 75696E74 		.ascii	"uint16\000"
 5324      313600
 5325              	.LASF70:
 5326 0007 4D44494F 		.ascii	"MDIO_Interface_regAddrDMA_TD\000"
 5326      5F496E74 
 5326      65726661 
 5326      63655F72 
 5326      65674164 
 5327              	.LASF82:
 5328 0024 4D44494F 		.ascii	"MDIO_Interface_fwDMA1_TD\000"
 5328      5F496E74 
 5328      65726661 
 5328      63655F66 
 5328      77444D41 
 5329              	.LASF28:
 5330 003d 646D6163 		.ascii	"dmac_cfgmem\000"
 5330      5F636667 
 5330      6D656D00 
 5331              	.LASF106:
 5332 0049 4379446D 		.ascii	"CyDmaChDisable\000"
 5332      61436844 
 5332      69736162 
 5332      6C6500
 5333              	.LASF90:
 5334 0058 4D44494F 		.ascii	"MDIO_Interface_initVar\000"
 5334      5F496E74 
 5334      65726661 
 5334      63655F69 
 5334      6E697456 
 5335              	.LASF108:
 5336 006f 4379446D 		.ascii	"CyDmaTdAllocate\000"
 5336      61546441 
 5336      6C6C6F63 
 5336      61746500 
 5337              	.LASF93:
 5338 007f 4379446D 		.ascii	"CyDmaChEnable\000"
 5338      61436845 
 5338      6E61626C 
 5338      6500
 5339              	.LASF85:
 5340 008d 4D44494F 		.ascii	"MDIO_Interface_dmaChannelList\000"
 5340      5F496E74 
 5340      65726661 
 5340      63655F64 
 5340      6D614368 
 5341              	.LASF7:
 5342 00ab 6C6F6E67 		.ascii	"long long unsigned int\000"
 5342      206C6F6E 
 5342      6720756E 
 5342      7369676E 
ARM GAS  C:\Users\kopusov.FT\AppData\Local\Temp\ccT1QhKH.s 			page 121


 5342      65642069 
 5343              	.LASF57:
 5344 00c2 4D44494F 		.ascii	"MDIO_Interface_SetData\000"
 5344      5F496E74 
 5344      65726661 
 5344      63655F53 
 5344      65744461 
 5345              	.LASF91:
 5346 00d9 4D44494F 		.ascii	"MDIO_Interface_pageInfoPtr\000"
 5346      5F496E74 
 5346      65726661 
 5346      63655F70 
 5346      61676549 
 5347              	.LASF50:
 5348 00f4 4D44494F 		.ascii	"MDIO_Interface_Start\000"
 5348      5F496E74 
 5348      65726661 
 5348      63655F53 
 5348      74617274 
 5349              	.LASF63:
 5350 0109 4D44494F 		.ascii	"MDIO_Interface_pageStartAddr\000"
 5350      5F496E74 
 5350      65726661 
 5350      63655F70 
 5350      61676553 
 5351              	.LASF64:
 5352 0126 4D44494F 		.ascii	"MDIO_Interface_pageEndAddr\000"
 5352      5F496E74 
 5352      65726661 
 5352      63655F70 
 5352      61676545 
 5353              	.LASF99:
 5354 0141 4D44494F 		.ascii	"MDIO_Interface_RdDMA_DmaInitialize\000"
 5354      5F496E74 
 5354      65726661 
 5354      63655F52 
 5354      64444D41 
 5355              	.LASF6:
 5356 0164 6C6F6E67 		.ascii	"long long int\000"
 5356      206C6F6E 
 5356      6720696E 
 5356      7400
 5357              	.LASF0:
 5358 0172 7369676E 		.ascii	"signed char\000"
 5358      65642063 
 5358      68617200 
 5359              	.LASF86:
 5360 017e 4D44494F 		.ascii	"MDIO_Interface_pageAddrList\000"
 5360      5F496E74 
 5360      65726661 
 5360      63655F70 
 5360      61676541 
 5361              	.LASF29:
 5362 019a 646D6163 		.ascii	"dmac_tdmem_struct\000"
 5362      5F74646D 
 5362      656D5F73 
 5362      74727563 
ARM GAS  C:\Users\kopusov.FT\AppData\Local\Temp\ccT1QhKH.s 			page 122


 5362      7400
 5363              	.LASF105:
 5364 01ac 4D44494F 		.ascii	"MDIO_Interface_FwDMA2_DmaInitialize\000"
 5364      5F496E74 
 5364      65726661 
 5364      63655F46 
 5364      77444D41 
 5365              	.LASF103:
 5366 01d0 4D44494F 		.ascii	"MDIO_Interface_AddrDMA_DmaInitialize\000"
 5366      5F496E74 
 5366      65726661 
 5366      63655F41 
 5366      64647244 
 5367              	.LASF72:
 5368 01f5 4D44494F 		.ascii	"MDIO_Interface_pageInfoDMA_TD\000"
 5368      5F496E74 
 5368      65726661 
 5368      63655F70 
 5368      61676549 
 5369              	.LASF73:
 5370 0213 4D44494F 		.ascii	"MDIO_Interface_rdDMA_Chan\000"
 5370      5F496E74 
 5370      65726661 
 5370      63655F72 
 5370      64444D41 
 5371              	.LASF4:
 5372 022d 6C6F6E67 		.ascii	"long int\000"
 5372      20696E74 
 5372      00
 5373              	.LASF17:
 5374 0236 72656731 		.ascii	"reg16\000"
 5374      3600
 5375              	.LASF9:
 5376 023c 75696E74 		.ascii	"uint8\000"
 5376      3800
 5377              	.LASF48:
 5378 0242 4D44494F 		.ascii	"MDIO_Interface_Init\000"
 5378      5F496E74 
 5378      65726661 
 5378      63655F49 
 5378      6E697400 
 5379              	.LASF43:
 5380 0256 63684D61 		.ascii	"chMask\000"
 5380      736B00
 5381              	.LASF115:
 5382 025d 43794465 		.ascii	"CyDelayUs\000"
 5382      6C617955 
 5382      7300
 5383              	.LASF13:
 5384 0267 646F7562 		.ascii	"double\000"
 5384      6C6500
 5385              	.LASF94:
 5386 026e 4D44494F 		.ascii	"MDIO_Interface_StartAddrDMA_DmaInitialize\000"
 5386      5F496E74 
 5386      65726661 
 5386      63655F53 
 5386      74617274 
ARM GAS  C:\Users\kopusov.FT\AppData\Local\Temp\ccT1QhKH.s 			page 123


 5387              	.LASF66:
 5388 0298 4D44494F 		.ascii	"MDIO_Interface_pageStartAddr_TD\000"
 5388      5F496E74 
 5388      65726661 
 5388      63655F70 
 5388      61676553 
 5389              	.LASF89:
 5390 02b8 4D44494F 		.ascii	"MDIO_Interface_devAddress\000"
 5390      5F496E74 
 5390      65726661 
 5390      63655F64 
 5390      65764164 
 5391              	.LASF11:
 5392 02d2 75696E74 		.ascii	"uint32\000"
 5392      333200
 5393              	.LASF71:
 5394 02d9 4D44494F 		.ascii	"MDIO_Interface_pageInfoDMA_Chan\000"
 5394      5F496E74 
 5394      65726661 
 5394      63655F70 
 5394      61676549 
 5395              	.LASF100:
 5396 02f9 4D44494F 		.ascii	"MDIO_Interface_WrDMA_DmaInitialize\000"
 5396      5F496E74 
 5396      65726661 
 5396      63655F57 
 5396      72444D41 
 5397              	.LASF74:
 5398 031c 4D44494F 		.ascii	"MDIO_Interface_rdDMA_TD\000"
 5398      5F496E74 
 5398      65726661 
 5398      63655F72 
 5398      64444D41 
 5399              	.LASF20:
 5400 0334 61637469 		.ascii	"action\000"
 5400      6F6E00
 5401              	.LASF65:
 5402 033b 4D44494F 		.ascii	"MDIO_Interface_pageStartAddrDMA_Chan\000"
 5402      5F496E74 
 5402      65726661 
 5402      63655F70 
 5402      61676553 
 5403              	.LASF22:
 5404 0360 72657365 		.ascii	"reserved\000"
 5404      72766564 
 5404      00
 5405              	.LASF31:
 5406 0369 4D44494F 		.ascii	"MDIO_Interface_DmaEnable\000"
 5406      5F496E74 
 5406      65726661 
 5406      63655F44 
 5406      6D61456E 
 5407              	.LASF42:
 5408 0382 4D44494F 		.ascii	"MDIO_Interface_SetDevAddress\000"
 5408      5F496E74 
 5408      65726661 
 5408      63655F53 
ARM GAS  C:\Users\kopusov.FT\AppData\Local\Temp\ccT1QhKH.s 			page 124


 5408      65744465 
 5409              	.LASF8:
 5410 039f 756E7369 		.ascii	"unsigned int\000"
 5410      676E6564 
 5410      20696E74 
 5410      00
 5411              	.LASF34:
 5412 03ac 4D44494F 		.ascii	"MDIO_Interface_DmaDisable\000"
 5412      5F496E74 
 5412      65726661 
 5412      63655F44 
 5412      6D614469 
 5413              	.LASF5:
 5414 03c6 6C6F6E67 		.ascii	"long unsigned int\000"
 5414      20756E73 
 5414      69676E65 
 5414      6420696E 
 5414      7400
 5415              	.LASF114:
 5416 03d8 4D44494F 		.ascii	"MDIO_Interface_GetAddress\000"
 5416      5F496E74 
 5416      65726661 
 5416      63655F47 
 5416      65744164 
 5417              	.LASF25:
 5418 03f2 646D6163 		.ascii	"dmac_cfgmem_struct\000"
 5418      5F636667 
 5418      6D656D5F 
 5418      73747275 
 5418      637400
 5419              	.LASF61:
 5420 0405 72656753 		.ascii	"regSpace\000"
 5420      70616365 
 5420      00
 5421              	.LASF55:
 5422 040e 6D656D41 		.ascii	"memAddr\000"
 5422      64647200 
 5423              	.LASF102:
 5424 0416 4D44494F 		.ascii	"MDIO_Interface_CfgDMA2_DmaInitialize\000"
 5424      5F496E74 
 5424      65726661 
 5424      63655F43 
 5424      6667444D 
 5425              	.LASF104:
 5426 043b 4D44494F 		.ascii	"MDIO_Interface_FwDMA1_DmaInitialize\000"
 5426      5F496E74 
 5426      65726661 
 5426      63655F46 
 5426      77444D41 
 5427              	.LASF19:
 5428 045f 62617369 		.ascii	"basic_cfg\000"
 5428      635F6366 
 5428      6700
 5429              	.LASF3:
 5430 0469 73686F72 		.ascii	"short unsigned int\000"
 5430      7420756E 
 5430      7369676E 
ARM GAS  C:\Users\kopusov.FT\AppData\Local\Temp\ccT1QhKH.s 			page 125


 5430      65642069 
 5430      6E7400
 5431              	.LASF44:
 5432 047c 64657641 		.ascii	"devAddr\000"
 5432      64647200 
 5433              	.LASF113:
 5434 0484 4D44494F 		.ascii	"MDIO_Interface_DmaIsComplete\000"
 5434      5F496E74 
 5434      65726661 
 5434      63655F44 
 5434      6D614973 
 5435              	.LASF109:
 5436 04a1 4379456E 		.ascii	"CyEnterCriticalSection\000"
 5436      74657243 
 5436      72697469 
 5436      63616C53 
 5436      65637469 
 5437              	.LASF46:
 5438 04b8 70687941 		.ascii	"phyAddr\000"
 5438      64647200 
 5439              	.LASF68:
 5440 04c0 4D44494F 		.ascii	"MDIO_Interface_pageEndAddr_TD\000"
 5440      5F496E74 
 5440      65726661 
 5440      63655F70 
 5440      61676545 
 5441              	.LASF21:
 5442 04de 62617369 		.ascii	"basic_status\000"
 5442      635F7374 
 5442      61747573 
 5442      00
 5443              	.LASF18:
 5444 04eb 73697A65 		.ascii	"sizetype\000"
 5444      74797065 
 5444      00
 5445              	.LASF51:
 5446 04f4 61646472 		.ascii	"address\000"
 5446      65737300 
 5447              	.LASF97:
 5448 04fc 4379446D 		.ascii	"CyDmaTdSetAddress\000"
 5448      61546453 
 5448      65744164 
 5448      64726573 
 5448      7300
 5449              	.LASF38:
 5450 050e 4D44494F 		.ascii	"MDIO_Interface_EnableInt\000"
 5450      5F496E74 
 5450      65726661 
 5450      63655F45 
 5450      6E61626C 
 5451              	.LASF88:
 5452 0527 4D44494F 		.ascii	"MDIO_Interface_phyAddress\000"
 5452      5F496E74 
 5452      65726661 
 5452      63655F70 
 5452      68794164 
 5453              	.LASF78:
ARM GAS  C:\Users\kopusov.FT\AppData\Local\Temp\ccT1QhKH.s 			page 126


 5454 0541 4D44494F 		.ascii	"MDIO_Interface_cfgDMA1_TD\000"
 5454      5F496E74 
 5454      65726661 
 5454      63655F63 
 5454      6667444D 
 5455              	.LASF59:
 5456 055b 72656742 		.ascii	"regBits\000"
 5456      69747300 
 5457              	.LASF76:
 5458 0563 4D44494F 		.ascii	"MDIO_Interface_wrDMA_TD\000"
 5458      5F496E74 
 5458      65726661 
 5458      63655F77 
 5458      72444D41 
 5459              	.LASF69:
 5460 057b 4D44494F 		.ascii	"MDIO_Interface_regAddrDMA_Chan\000"
 5460      5F496E74 
 5460      65726661 
 5460      63655F72 
 5460      65674164 
 5461              	.LASF12:
 5462 059a 666C6F61 		.ascii	"float\000"
 5462      7400
 5463              	.LASF116:
 5464 05a0 43794578 		.ascii	"CyExitCriticalSection\000"
 5464      69744372 
 5464      69746963 
 5464      616C5365 
 5464      6374696F 
 5465              	.LASF45:
 5466 05b6 4D44494F 		.ascii	"MDIO_Interface_SetPhyAddress\000"
 5466      5F496E74 
 5466      65726661 
 5466      63655F53 
 5466      65745068 
 5467              	.LASF56:
 5468 05d3 4D44494F 		.ascii	"MDIO_Interface_GetData\000"
 5468      5F496E74 
 5468      65726661 
 5468      63655F47 
 5468      65744461 
 5469              	.LASF81:
 5470 05ea 4D44494F 		.ascii	"MDIO_Interface_fwDMA1_Chan\000"
 5470      5F496E74 
 5470      65726661 
 5470      63655F66 
 5470      77444D41 
 5471              	.LASF16:
 5472 0605 72656738 		.ascii	"reg8\000"
 5472      00
 5473              	.LASF107:
 5474 060a 4379446D 		.ascii	"CyDmaChSetRequest\000"
 5474      61436853 
 5474      65745265 
 5474      71756573 
 5474      7400
 5475              	.LASF24:
ARM GAS  C:\Users\kopusov.FT\AppData\Local\Temp\ccT1QhKH.s 			page 127


 5476 061c 646D6163 		.ascii	"dmac_ch_struct\000"
 5476      5F63685F 
 5476      73747275 
 5476      637400
 5477              	.LASF1:
 5478 062b 756E7369 		.ascii	"unsigned char\000"
 5478      676E6564 
 5478      20636861 
 5478      7200
 5479              	.LASF96:
 5480 0639 4379446D 		.ascii	"CyDmaTdSetConfiguration\000"
 5480      61546453 
 5480      6574436F 
 5480      6E666967 
 5480      75726174 
 5481              	.LASF2:
 5482 0651 73686F72 		.ascii	"short int\000"
 5482      7420696E 
 5482      7400
 5483              	.LASF32:
 5484 065b 4D44494F 		.ascii	"MDIO_Interface_DmaInit\000"
 5484      5F496E74 
 5484      65726661 
 5484      63655F44 
 5484      6D61496E 
 5485              	.LASF35:
 5486 0672 6368616E 		.ascii	"channel\000"
 5486      6E656C00 
 5487              	.LASF98:
 5488 067a 4D44494F 		.ascii	"MDIO_Interface_InfoDMA_DmaInitialize\000"
 5488      5F496E74 
 5488      65726661 
 5488      63655F49 
 5488      6E666F44 
 5489              	.LASF83:
 5490 069f 4D44494F 		.ascii	"MDIO_Interface_fwDMA2_Chan\000"
 5490      5F496E74 
 5490      65726661 
 5490      63655F66 
 5490      77444D41 
 5491              	.LASF112:
 5492 06ba 443A5C70 		.ascii	"D:\\pgm\\Cypress_dem_board\\CFP_reader\\cfp_reader\\"
 5492      676D5C43 
 5492      79707265 
 5492      73735F64 
 5492      656D5F62 
 5493 06e9 575F6366 		.ascii	"W_cfp_reader\\cfp_reader.cydsn\000"
 5493      705F7265 
 5493      61646572 
 5493      5C636670 
 5493      5F726561 
 5494              	.LASF14:
 5495 0707 63686172 		.ascii	"char\000"
 5495      00
 5496              	.LASF52:
 5497 070c 72656744 		.ascii	"regData\000"
 5497      61746100 
ARM GAS  C:\Users\kopusov.FT\AppData\Local\Temp\ccT1QhKH.s 			page 128


 5498              	.LASF62:
 5499 0714 636F6E66 		.ascii	"config\000"
 5499      696700
 5500              	.LASF77:
 5501 071b 4D44494F 		.ascii	"MDIO_Interface_cfgDMA1_Chan\000"
 5501      5F496E74 
 5501      65726661 
 5501      63655F63 
 5501      6667444D 
 5502              	.LASF49:
 5503 0737 4D44494F 		.ascii	"MDIO_Interface_dmaInitDone\000"
 5503      5F496E74 
 5503      65726661 
 5503      63655F64 
 5503      6D61496E 
 5504              	.LASF23:
 5505 0752 646D6163 		.ascii	"dmac_ch\000"
 5505      5F636800 
 5506              	.LASF60:
 5507 075a 4D44494F 		.ascii	"MDIO_Interface_GetConfiguration\000"
 5507      5F496E74 
 5507      65726661 
 5507      63655F47 
 5507      6574436F 
 5508              	.LASF41:
 5509 077a 4D44494F 		.ascii	"MDIO_Interface_Stop\000"
 5509      5F496E74 
 5509      65726661 
 5509      63655F53 
 5509      746F7000 
 5510              	.LASF30:
 5511 078e 646D6163 		.ascii	"dmac_tdmem\000"
 5511      5F74646D 
 5511      656D00
 5512              	.LASF40:
 5513 0799 4D44494F 		.ascii	"MDIO_Interface_Enable\000"
 5513      5F496E74 
 5513      65726661 
 5513      63655F45 
 5513      6E61626C 
 5514              	.LASF87:
 5515 07af 4D44494F 		.ascii	"MDIO_Interface_pageInfoList\000"
 5515      5F496E74 
 5515      65726661 
 5515      63655F70 
 5515      61676549 
 5516              	.LASF95:
 5517 07cb 4D44494F 		.ascii	"MDIO_Interface_EndAddrDMA_DmaInitialize\000"
 5517      5F496E74 
 5517      65726661 
 5517      63655F45 
 5517      6E644164 
 5518              	.LASF53:
 5519 07f3 6E756D57 		.ascii	"numWords\000"
 5519      6F726473 
 5519      00
 5520              	.LASF37:
ARM GAS  C:\Users\kopusov.FT\AppData\Local\Temp\ccT1QhKH.s 			page 129


 5521 07fc 656E6162 		.ascii	"enableInterrupts\000"
 5521      6C65496E 
 5521      74657272 
 5521      75707473 
 5521      00
 5522              	.LASF101:
 5523 080d 4D44494F 		.ascii	"MDIO_Interface_CfgDMA1_DmaInitialize\000"
 5523      5F496E74 
 5523      65726661 
 5523      63655F43 
 5523      6667444D 
 5524              	.LASF26:
 5525 0832 43464730 		.ascii	"CFG0\000"
 5525      00
 5526              	.LASF27:
 5527 0837 43464731 		.ascii	"CFG1\000"
 5527      00
 5528              	.LASF110:
 5529 083c 474E5520 		.ascii	"GNU C 4.9.3 20150303 (release) [ARM/embedded-4_9-br"
 5529      4320342E 
 5529      392E3320 
 5529      32303135 
 5529      30333033 
 5530 086f 616E6368 		.ascii	"anch revision 221220] -mcpu=cortex-m3 -mthumb -g -O"
 5530      20726576 
 5530      6973696F 
 5530      6E203232 
 5530      31323230 
 5531 08a2 67202D66 		.ascii	"g -ffunction-sections -ffat-lto-objects\000"
 5531      66756E63 
 5531      74696F6E 
 5531      2D736563 
 5531      74696F6E 
 5532              	.LASF67:
 5533 08ca 4D44494F 		.ascii	"MDIO_Interface_pageEndAddrDMA_Chan\000"
 5533      5F496E74 
 5533      65726661 
 5533      63655F70 
 5533      61676545 
 5534              	.LASF79:
 5535 08ed 4D44494F 		.ascii	"MDIO_Interface_cfgDMA2_Chan\000"
 5535      5F496E74 
 5535      65726661 
 5535      63655F63 
 5535      6667444D 
 5536              	.LASF111:
 5537 0909 47656E65 		.ascii	"Generated_Source\\PSoC5\\MDIO_Interface.c\000"
 5537      72617465 
 5537      645F536F 
 5537      75726365 
 5537      5C50536F 
 5538              	.LASF58:
 5539 0931 4D44494F 		.ascii	"MDIO_Interface_SetBits\000"
 5539      5F496E74 
 5539      65726661 
 5539      63655F53 
 5539      65744269 
ARM GAS  C:\Users\kopusov.FT\AppData\Local\Temp\ccT1QhKH.s 			page 130


 5540              	.LASF80:
 5541 0948 4D44494F 		.ascii	"MDIO_Interface_cfgDMA2_TD\000"
 5541      5F496E74 
 5541      65726661 
 5541      63655F63 
 5541      6667444D 
 5542              	.LASF36:
 5543 0962 74696D65 		.ascii	"timer\000"
 5543      7200
 5544              	.LASF84:
 5545 0968 4D44494F 		.ascii	"MDIO_Interface_fwDMA2_TD\000"
 5545      5F496E74 
 5545      65726661 
 5545      63655F66 
 5545      77444D41 
 5546              	.LASF92:
 5547 0981 4379446D 		.ascii	"CyDmaChSetInitialTd\000"
 5547      61436853 
 5547      6574496E 
 5547      69746961 
 5547      6C546400 
 5548              	.LASF15:
 5549 0995 63797374 		.ascii	"cystatus\000"
 5549      61747573 
 5549      00
 5550              	.LASF33:
 5551 099e 4D44494F 		.ascii	"MDIO_Interface_regConfig\000"
 5551      5F496E74 
 5551      65726661 
 5551      63655F72 
 5551      6567436F 
 5552              	.LASF39:
 5553 09b7 4D44494F 		.ascii	"MDIO_Interface_DisableInt\000"
 5553      5F496E74 
 5553      65726661 
 5553      63655F44 
 5553      69736162 
 5554              	.LASF47:
 5555 09d1 4D44494F 		.ascii	"MDIO_Interface_UpdatePhyAddress\000"
 5555      5F496E74 
 5555      65726661 
 5555      63655F55 
 5555      70646174 
 5556              	.LASF75:
 5557 09f1 4D44494F 		.ascii	"MDIO_Interface_wrDMA_Chan\000"
 5557      5F496E74 
 5557      65726661 
 5557      63655F77 
 5557      72444D41 
 5558              	.LASF54:
 5559 0a0b 72657375 		.ascii	"result\000"
 5559      6C7400
 5560              		.ident	"GCC: (GNU Tools for ARM Embedded Processors) 4.9.3 20150303 (release) [ARM/embedded-4_9-br
